(dp0
S'1.20.1070.10.FF45254'
p1
(lp2
(lp3
L1446016L
aS'COc1ccc(cc1)N(Cc2c[nH]cn2)C(C)C'
p4
a(lp5
S'Q96RJ0'
p6
aacdecimal
Decimal
p7
(S'7.10'
p8
tp9
Rp10
a(lp11
L12188203L
aaS'single'
p12
aa(lp13
L1446017L
aS'CC(C)N(Cc1c[nH]cn1)c2cccc(c2)S(=O)(=O)C'
p14
a(lp15
g6
aag7
(S'6.89'
p16
tp17
Rp18
a(lp19
L12188201L
aag12
aa(lp20
L1446018L
aS'CN(Cc1c[nH]cn1)c2cccc(Cl)c2'
p21
a(lp22
g6
aag7
(S'7.96'
p23
tp24
Rp25
a(lp26
L12188199L
aag12
aa(lp27
L1446019L
aS'CCN(Cc1c[nH]cn1)c2cccc(Cl)c2'
p28
a(lp29
g6
aag7
(S'8.70'
p30
tp31
Rp32
a(lp33
L12188197L
aag12
aa(lp34
L1446020L
aS'CC(C)(C)N(Cc1c[nH]cn1)c2cccc(Cl)c2'
p35
a(lp36
g6
aag7
(S'7.48'
p37
tp38
Rp39
a(lp40
L12188195L
aag12
aa(lp41
L1446021L
aS'CC(C)N(Cc1c[nH]cn1)c2ccccn2'
p42
a(lp43
g6
aag7
(S'6.71'
p44
tp45
Rp46
a(lp47
L12188193L
aag12
aa(lp48
L656262L
aS'NCCc1ccc(Oc2ccc(O)cc2)c(I)c1'
p49
a(lp50
g6
aag7
(S'5.82'
p51
tp52
Rp53
a(lp54
L7968729L
aag12
aa(lp55
L1446023L
aS'CC(C)N(Cc1c[nH]cn1)c2nccc(Cl)n2'
p56
a(lp57
g6
aag7
(S'7.00'
p58
tp59
Rp60
a(lp61
L12188189L
aag12
aa(lp62
L1267976L
aS'C[C@H](N)Cc1ccc(O)cc1'
p63
a(lp64
g6
aag7
(S'5.53'
p65
tp66
Rp67
a(lp68
L7967445L
aag12
aa(lp69
L1446025L
aS'CCc1cccc(CC)c1CC2=NCCN2'
p70
a(lp71
g6
aag7
(S'6.52'
p72
tp73
Rp74
a(lp75
L12188266L
aag12
aa(lp76
L1267978L
aS'COc1cccc(C[C@H](C)N)c1'
p77
a(lp78
g6
aag7
(S'5.72'
p79
tp80
Rp81
a(lp82
L7967451L
aag12
aa(lp83
L1267979L
aS'COc1cccc(C[C@@H](C)N)c1'
p84
a(lp85
g6
aag7
(S'5.19'
p86
tp87
Rp88
a(lp89
L7967452L
aag12
aa(lp90
L1267980L
aS'CCc1cc(OC)c(C[C@H](C)N)cc1OC'
p91
a(lp92
g6
aag7
(S'5.30'
p93
tp94
Rp95
a(lp96
L7967458L
aag12
aa(lp97
L1446029L
aS'Clc1cccc(Cl)c1Cc2ncc[nH]2'
p98
a(lp99
g6
aag7
(S'5.86'
p100
tp101
Rp102
a(lp103
L12188253L
aag12
aa(lp104
L1267982L
aS'CN[C@H](C)Cc1ccccc1'
p105
a(lp106
g6
aag7
(S'5.48'
p107
tp108
Rp109
a(lp110
L7967461L
aag12
aa(lp111
L1446031L
aS'CCc1cccc(CC)c1Cc2ncc[nH]2'
p112
a(lp113
g6
aag7
(S'7.62'
p114
tp115
Rp116
a(lp117
L12188249L
aag12
aa(lp118
L23056L
aS'NCCc1ccccc1'
p119
a(lp120
g6
aag7
(S'6.97'
p121
tp122
Rp123
a(lp124
L7968728L
aag12
aa(lp125
L1446034L
aS'C(Cc1c[nH]cn1)c2ccccc2'
p126
a(lp127
g6
aag7
(S'8.70'
p128
tp129
Rp130
a(lp131
L12188241L
aag12
aa(lp132
L1446035L
aS'C(Nc1ccccc1)c2c[nH]cn2'
p133
a(lp134
g6
aag7
(S'7.19'
p135
tp136
Rp137
a(lp138
L12188239L
aag12
aa(lp139
L258708L
aS'C(N(Cc1c[nH]cn1)c2ccccc2)c3ccccc3'
p140
a(lp141
g6
aag7
(S'7.49'
p142
tp143
Rp144
a(lp145
L12188231L
aag12
aa(lp146
L1446037L
aS'CCN(Cc1c[nH]cn1)c2ccccc2'
p147
a(lp148
g6
aag7
(S'7.32'
p149
tp150
Rp151
a(lp152
L12188235L
aag12
aa(lp153
L1446038L
aS'CC(C)N(Cc1c[nH]cn1)c2ccccc2'
p154
a(lp155
g6
aag7
(S'7.66'
p156
tp157
Rp158
a(lp159
L12188233L
aag12
aa(lp160
L1446039L
aS'C(N(c1ccccc1)c2ccccc2)c3c[nH]cn3'
p161
a(lp162
g6
aag7
(S'7.16'
p163
tp164
Rp165
a(lp166
L12188229L
aag12
aa(lp167
L1446040L
aS'C(N(C1CC1)c2ccccc2)c3c[nH]cn3'
p168
a(lp169
g6
aag7
(S'7.00'
p170
tp171
Rp172
a(lp173
L12188227L
aag12
aa(lp174
L1446041L
aS'C(N1CCc2ccccc12)c3c[nH]cn3'
p175
a(lp176
g6
aag7
(S'7.46'
p177
tp178
Rp179
a(lp180
L12188225L
aag12
aa(lp181
L1446528L
aS'CC(C)N(Cc1c[nH]cn1)c2ccccc2Cl'
p182
a(lp183
g6
aag7
(S'7.40'
p184
tp185
Rp186
a(lp187
L12188221L
aag12
aa(lp188
L1446042L
aS'C(N1CCCc2ccccc12)c3c[nH]cn3'
p189
a(lp190
g6
aag7
(S'7.92'
p191
tp192
Rp193
a(lp194
L12188223L
aag12
aa(lp195
L23198L
aS'C[C@@H](N)Cc1ccccc1'
p196
a(lp197
g6
ag6
ag6
aag7
(S'5.89'
p198
tp199
Rp200
a(lp201
L7967444L
aL7968727L
aL7968731L
aag12
aa(lp202
L23199L
aS'C[C@H](N)Cc1ccccc1'
p203
a(lp204
g6
ag6
ag6
aag7
(S'6.22'
p205
tp206
Rp207
a(lp208
L7967443L
aL7968726L
aL7968730L
aag12
aa(lp209
L1446022L
aS'COc1cccc(n1)N(Cc2c[nH]cn2)C(C)C'
p210
a(lp211
g6
aag7
(S'7.92'
p212
tp213
Rp214
a(lp215
L12188191L
aag12
aa(lp216
L114333L
aS'Cc1cccc(C)c1CC2=NCCN2'
p217
a(lp218
g6
aag7
(S'7.09'
p219
tp220
Rp221
a(lp222
L12188264L
aag12
aa(lp223
L1446024L
aS'CCN(Cc1c[nH]cn1)c2nccc(OC)n2'
p224
a(lp225
g6
aag7
(S'7.08'
p226
tp227
Rp228
a(lp229
L12188187L
aag12
aa(lp230
L1446529L
aS'CC(C)N(Cc1c[nH]cn1)c2cccc(Cl)c2'
p231
a(lp232
g6
aag7
(S'8.40'
p233
tp234
Rp235
a(lp236
L12188219L
aag12
aa(lp237
L245817L
aS'Clc1cccc(Cl)c1CC2=NCCN2'
p238
a(lp239
g6
aag7
(S'6.30'
p240
tp241
Rp242
a(lp243
L12188262L
aag12
aa(lp244
L1446026L
aS'CC(C)c1cccc(C(C)C)c1CC2=NCCN2'
p245
a(lp246
g6
aag7
(S'6.08'
p247
tp248
Rp249
a(lp250
L12188259L
aag12
aa(lp251
L360256L
aS'NCCOc1ccccc1'
p252
a(lp253
g6
aag7
(S'5.75'
p254
tp255
Rp256
a(lp257
L3012047L
aag12
aa(lp258
L328139L
aS'CN[C@@H](C)Cc1ccc2OCOc2c1'
p259
a(lp260
g6
aag7
(S'6.43'
p261
tp262
Rp263
a(lp264
L7968732L
aag12
aa(lp265
L1446028L
aS'C(c1ccccc1)c2ncc[nH]2'
p266
a(lp267
g6
aag7
(S'6.40'
p268
tp269
Rp270
a(lp271
L12188255L
aag12
aa(lp272
L693195L
aS'C[C@@H](N)Cc1ccc(O)cc1'
p273
a(lp274
g6
aag7
(S'5.50'
p275
tp276
Rp277
a(lp278
L7967446L
aag12
aa(lp279
L675152L
aS'CN[C@@H](C)Cc1ccccc1'
p280
a(lp281
g6
ag6
aag7
(S'5.855'
p282
tp283
Rp284
a(lp285
L7967460L
aL7968733L
aag12
aa(lp286
L43448L
aS'C(C1=NCCN1)c2ccccc2'
p287
a(lp288
g6
aag7
(S'5.79'
p289
tp290
Rp291
a(lp292
L12188260L
aag12
aa(lp293
L1446030L
aS'Cc1cccc(C)c1Cc2ncc[nH]2'
p294
a(lp295
g6
aag7
(S'7.44'
p296
tp297
Rp298
a(lp299
L12188251L
aag12
aa(lp300
L486106L
aS'C(c1ccccc1)c2c[nH]cn2'
p301
a(lp302
g6
aag7
(S'7.70'
p303
tp304
Rp305
a(lp306
L12188243L
aag12
aa(lp307
L1446032L
aS'CC(C)c1cccc(C(C)C)c1Cc2ncc[nH]2'
p308
a(lp309
g6
aag7
(S'6.20'
p310
tp311
Rp312
a(lp313
L12188247L
aag12
aa(lp314
L1446036L
aS'CN(Cc1c[nH]cn1)c2ccccc2'
p315
a(lp316
g6
aag7
(S'7.96'
p317
tp318
Rp319
a(lp320
L12188237L
aag12
aa(lp321
L1151971L
aS'C[C@H](N)Cc1ccc2OCOc2c1'
p322
a(lp323
g6
aag7
(S'5.18'
p324
tp325
Rp326
a(lp327
L7967447L
aag12
aa(lp328
L9060L
aS'NCCc1ccc(O)cc1'
p329
a(lp330
g6
aag7
(S'7.70'
p331
tp332
Rp333
a(lp334
L5084223L
aag12
aa(lp335
L1446003L
aS'CC(C)N(Cc1ncc[nH]1)c2ccc(Cl)cc2'
p336
a(lp337
g6
aag7
(S'6.86'
p338
tp339
Rp340
a(lp341
L12188175L
aag12
aa(lp342
L1446004L
aS'CC(C)N(Cc1ncc[nH]1)c2ccccc2'
p343
a(lp344
g6
aag7
(S'6.33'
p345
tp346
Rp347
a(lp348
L12188179L
aag12
aa(lp349
L1446005L
aS'CC(C)N(Cc1ncc[nH]1)c2cccc(Cl)c2'
p350
a(lp351
g6
aag7
(S'7.17'
p352
tp353
Rp354
a(lp355
L12188177L
aag12
aa(lp356
L1446006L
aS'CCN(Cc1ncc[nH]1)c2ccccc2'
p357
a(lp358
g6
aag7
(S'6.15'
p359
tp360
Rp361
a(lp362
L12188181L
aag12
aa(lp363
L1446007L
aS'CN(Cc1ncc[nH]1)c2ccccc2'
p364
a(lp365
g6
aag7
(S'5.90'
p366
tp367
Rp368
a(lp369
L12188183L
aag12
aa(lp370
L1446008L
aS'C(Nc1ccccc1)c2ncc[nH]2'
p371
a(lp372
g6
aag7
(S'5.37'
p373
tp374
Rp375
a(lp376
L12188185L
aag12
aa(lp377
L1446009L
aS'CC(C)N(Cc1c[nH]cn1)c2ccc(Cl)cc2'
p378
a(lp379
g6
aag7
(S'8.22'
p380
tp381
Rp382
a(lp383
L12188217L
aag12
aa(lp384
L1446010L
aS'CC(C)N(Cc1c[nH]cn1)c2ccc(Cl)c(Cl)c2'
p385
a(lp386
g6
aag7
(S'8.40'
p387
tp388
Rp389
a(lp390
L12188215L
aag12
aa(lp391
L1446011L
aS'CC(C)N(Cc1c[nH]cn1)c2cc(Cl)cc(Cl)c2'
p392
a(lp393
g6
aag7
(S'8.40'
p394
tp395
Rp396
a(lp397
L12188213L
aag12
aa(lp398
L1446012L
aS'CC(C)N(Cc1c[nH]cn1)c2ccccc2F'
p399
a(lp400
g6
aag7
(S'7.74'
p401
tp402
Rp403
a(lp404
L12188211L
aag12
aa(lp405
L1446013L
aS'CC(C)N(Cc1c[nH]cn1)c2cccc(F)c2'
p406
a(lp407
g6
aag7
(S'7.92'
p408
tp409
Rp410
a(lp411
L12188209L
aag12
aa(lp412
L1446014L
aS'CC(C)N(Cc1c[nH]cn1)c2ccc(F)cc2'
p413
a(lp414
g6
aag7
(S'7.89'
p415
tp416
Rp417
a(lp418
L12188207L
aag12
aa(lp419
L1446015L
aS'COc1cccc(c1)N(Cc2c[nH]cn2)C(C)C'
p420
a(lp421
g6
aag7
(S'8.30'
p422
tp423
Rp424
a(lp425
L12188205L
aag12
aasS'1.20.1070.10.FF45527'
p426
(lp427
(lp428
L234112L
aS'CC(C)(O)c1ccccc1CC[C@@H](SCC2(CC(=O)O)CC2)c3cccc(\\C=C\\c4ccc5CCCCCc5n4)c3'
p429
a(lp430
S'Q9Y271'
p431
aag7
(S'8.96'
p432
tp433
Rp434
a(lp435
L960884L
aag12
aa(lp436
L234180L
aS'CC(C)(O)c1ccccc1CC[C@@H](SCC2(CC(=O)O)CC2)c3cccc(\\C=C\\c4ccc5CSCc5n4)c3'
p437
a(lp438
g431
aag7
(S'9.21'
p439
tp440
Rp441
a(lp442
L957251L
aag12
aa(lp443
L234181L
aS'CC(C)(O)c1ccccc1CC[C@@H](SCC2(CC(=O)O)CC2)c3cccc(\\C=C\\c4ccc5SCCc5n4)c3'
p444
a(lp445
g431
aag7
(S'8.54'
p446
tp447
Rp448
a(lp449
L960878L
aag12
aa(lp450
L20935L
aS'OC(=O)c1ccccc1Nc2cccc(OCc3ccc4ccccc4n3)c2'
p451
a(lp452
g431
aag7
(S'8.70'
p453
tp454
Rp455
a(lp456
L5084229L
aag12
aa(lp457
L234216L
aS'CC(C)(O)c1ccccc1CC[C@@H](SCC2(CC(=O)O)CC2)c3cccc(\\C=C\\c4ccc5CCCc5n4)c3'
p458
a(lp459
g431
aag7
(S'9.36'
p460
tp461
Rp462
a(lp463
L950597L
aag12
aa(lp464
L54759L
aS'CCCCC\\C=C/C\\C=C/C=C/C=C/[C@@H](SC[C@H](N)C(=O)NCC(=O)O)[C@@H](O)CCCC(=O)O'
p465
a(lp466
g431
ag431
ag431
aag7
(S'9.15'
p467
tp468
Rp469
a(lp470
L5166004L
aL13340307L
aL13340372L
aag12
aa(lp471
L234111L
aS'CC(C)(O)c1ccccc1CC[C@@H](SCC2(CC(=O)O)CC2)c3cccc(\\C=C\\c4ccc5CCCCc5n4)c3'
p472
a(lp473
g431
aag7
(S'9.60'
p474
tp475
Rp476
a(lp477
L963413L
aag12
aa(lp478
L26669L
aS'O[C@H]([C@H](SCCC(=O)O)c1ccccc1CCCCCCCCc2ccccc2)C(=O)O'
p479
a(lp480
g431
aag7
(S'8.60'
p481
tp482
Rp483
a(lp484
L5084231L
aag12
aa(lp485
L244653L
aS'CN(CCOc1ccc(C[C@H](Nc2ccccc2C(=O)c3ccccc3)C(=O)O)cc1)c4ccccn4'
p486
a(lp487
g431
aag7
(S'5.26'
p488
tp489
Rp490
a(lp491
L7668581L
aag12
aa(lp492
L234033L
aS'CC1CCCc2ccc(\\C=C\\c3cccc(c3)[C@@H](CCc4ccccc4C(C)(C)O)SCC5(CC(=O)O)CC5)nc12'
p493
a(lp494
g431
aag7
(S'9.33'
p495
tp496
Rp497
a(lp498
L977386L
aag12
aa(lp499
L21523L
aS'COc1cc(ccc1Cc2cn(C)c3ccc(NC(=O)OC4CCCC4)cc23)C(=O)NS(=O)(=O)c5ccccc5C'
p500
a(lp501
g431
ag431
ag431
aag7
(S'9.06'
p502
tp503
Rp504
a(lp505
L5084227L
aL7782473L
aL7782474L
aag12
aa(lp506
L234245L
aS'CC1CCc2ccc(\\C=C\\c3cccc(c3)[C@@H](CCc4ccccc4C(C)(C)O)SCC5(CC(=O)O)CC5)nc12'
p507
a(lp508
g431
aag7
(S'8.77'
p509
tp510
Rp511
a(lp512
L971221L
aag12
aa(lp513
L47447L
aS'CC(C)(O)c1ccccc1CC[C@@H](SCC2(CC(=O)O)CC2)c3cccc(\\C=C\\c4ccc5ccc(Cl)cc5n4)c3'
p514
a(lp515
g431
ag431
ag431
ag431
aag7
(S'9.025'
p516
tp517
Rp518
a(lp519
L958576L
aL5084228L
aL7762851L
aL7762852L
aag12
aa(lp520
L234244L
aS'CC(C)(O)c1ccccc1CC[C@@H](SCC2(CC(=O)O)CC2)c3cccc(\\C=C\\c4ccc5CC(C)(C)Cc5n4)c3'
p521
a(lp522
g431
aag7
(S'9.25'
p523
tp524
Rp525
a(lp526
L986094L
aag12
aa(lp527
L26484L
aS'CCCCCCCCC\\C=C/C=C/[C@@H](SCCC(=O)O)[C@@H](O)c1cccc(c1)c2nn[nH]n2'
p528
a(lp529
g431
aag7
(S'8.30'
p530
tp531
Rp532
a(lp533
L5084230L
aag12
aa(lp534
L234175L
aS'CC(C)(O)c1ccccc1CC[C@@H](SCC2(CC(=O)O)CC2)c3cccc(\\C=C\\c4ccc5CCC(C)(C)c5n4)c3'
p535
a(lp536
g431
aag7
(S'8.70'
p537
tp538
Rp539
a(lp540
L960881L
aag12
aa(lp541
L860L
aS'CC\\C(=C(\\CC)/c1ccc(O)cc1)\\c2ccc(O)cc2'
p542
a(lp543
g431
aag7
(S'5.05'
p544
tp545
Rp546
a(lp547
L7702759L
aag12
aa(lp548
L234557L
aS'CC(C)(O)c1ccccc1CC[C@@H](SCC2(CC(=O)O)CC2)c3cccc(\\C=C\\c4ccc5CCCC(C)(C)c5n4)c3'
p549
a(lp550
g431
aag7
(S'8.30'
p551
tp552
Rp553
a(lp554
L954582L
aag12
aa(lp555
L234591L
aS'CC(C)(O)c1ccccc1CC[C@@H](SCC2(CC(=O)O)CC2)c3cccc(\\C=C\\c4ccc5CCC(C)(C)Cc5n4)c3'
p556
a(lp557
g431
aag7
(S'9.38'
p558
tp559
Rp560
a(lp561
L958573L
aag12
aasS'1.10.630.10.FF6630'
p562
(lp563
(lp564
L263558L
aS'CCN(CC)C(=O)N[C@@H]1CN(C)[C@@H]2Cc3c[nH]c4cccc(C2=C1)c34'
p565
a(lp566
S'P10635'
p567
aag7
(S'7.80'
p568
tp569
Rp570
a(lp571
L7759654L
aag12
aa(lp572
L186191L
aS'COc1cc(N)[nH]c2nc(c3ccc(F)cc3)c(c4ccncc4)c12'
p573
a(lp574
g567
aag7
(S'6.70'
p575
tp576
Rp577
a(lp578
L7804988L
aag12
aa(lp579
L253571L
aS'Nc1c(Br)cc(Br)cc1CN[C@@H]2CC[C@@H](O)CC2'
p580
a(lp581
g567
aag7
(S'6.25'
p582
tp583
Rp584
a(lp585
L7629553L
aag12
aa(lp586
L18694L
aS'Cc1ccc(cc1)c2cc(nn2c3ccc(cc3)S(=O)(=O)N)C(F)(F)F'
p587
a(lp588
g567
aag7
(S'6.00'
p589
tp590
Rp591
a(lp592
L7694612L
aag12
aa(lp593
L16391L
aS'CN(C)CCCN1c2ccccc2Sc3ccccc13'
p594
a(lp595
g567
aag7
(S'6.52'
p596
tp597
Rp598
a(lp599
L7722228L
aag12
aa(lp600
L52874L
aS'Clc1ccc(COC(Cn2ccnc2)c3ccc(Cl)cc3Cl)cc1'
p601
a(lp602
g567
aag7
(S'6.40'
p603
tp604
Rp605
a(lp606
L7651962L
aag12
aa(lp607
L15191L
aS'COC(=O)[C@H]1[C@@H](O)CC[C@H]2CN3CCc4c([nH]c5ccccc45)[C@@H]3C[C@H]12'
p608
a(lp609
g567
aag7
(S'5.69'
p610
tp611
Rp612
a(lp613
L7793056L
aag12
aa(lp614
L21938L
aS'CN1C[C@H](CNC(=O)OCc2ccccc2)C[C@H]3[C@H]1Cc4cn(C)c5cccc3c45'
p615
a(lp616
g567
aag7
(S'6.70'
p617
tp618
Rp619
a(lp620
L7755872L
aag12
aa(lp621
L255377L
aS'Cc1cc2c(OCC(CNC(C)(C)C)OC(=O)c3ccccc3)cccc2[nH]1'
p622
a(lp623
g567
aag7
(S'5.26'
p624
tp625
Rp626
a(lp627
L7619693L
aag12
aa(lp628
L37266L
aS'CN1CCN(CCCN2c3ccccc3Sc4ccc(Cl)cc24)CC1'
p629
a(lp630
g567
aag7
(S'6.52'
p631
tp632
Rp633
a(lp634
L7743597L
aag12
aa(lp635
L469763L
aS'CN1CCC[C@@H]1CCO[C@](C)(c2ccccc2)c3ccc(Cl)cc3'
p636
a(lp637
g567
aag7
(S'5.52'
p638
tp639
Rp640
a(lp641
L7680216L
aag12
aa(lp642
L835863L
aS'CN(C)CCN(Cc1cccs1)c2ccccn2'
p643
a(lp644
g567
aag7
(S'5.56'
p645
tp646
Rp647
a(lp648
L7764429L
aag12
aa(lp649
L42520L
aS'Cc1cc(c(O)c(C)c1CC2=NCCN2)C(C)(C)C'
p650
a(lp651
g567
aag7
(S'6.70'
p652
tp653
Rp654
a(lp655
L7714818L
aag12
aa(lp656
L62259L
aS'CN(C)C(=O)C(CCN1CCC(O)(CC1)c2ccc(Cl)cc2)(c3ccccc3)c4ccccc4'
p657
a(lp658
g567
aag7
(S'5.70'
p659
tp660
Rp661
a(lp662
L7772468L
aag12
aa(lp663
L27546L
aS'CN1CCN(CC1)C(c2ccccc2)c3ccccc3'
p664
a(lp665
g567
aag7
(S'5.21'
p666
tp667
Rp668
a(lp669
L7691400L
aag12
aa(lp670
L2223L
aS'CNCCC(Oc1ccc(cc1)C(F)(F)F)c2ccccc2'
p671
a(lp672
g567
aag7
(S'6.15'
p673
tp674
Rp675
a(lp676
L7663661L
aag12
aa(lp677
L1370L
aS'CC(C)NCC(O)COc1cccc2ccccc12'
p678
a(lp679
g567
aag7
(S'5.70'
p680
tp681
Rp682
a(lp683
L7741556L
aag12
aa(lp684
L60319L
aS'Clc1ccccc1CN2CCc3sccc3C2'
p685
a(lp686
g567
aag7
(S'5.20'
p687
tp688
Rp689
a(lp690
L7812843L
aag12
aa(lp691
L1243552L
aS'CCc1ccc(cc1)C(=O)C(C)CN2CCCCC2'
p692
a(lp693
g567
aag7
(S'5.31'
p694
tp695
Rp696
a(lp697
L7645747L
aag12
aa(lp698
L7714L
aS'CC1=C(CCN2CCC(CC2)c3noc4cc(F)ccc34)C(=O)N5CCCCC5=N1'
p699
a(lp700
g567
aag7
(S'5.28'
p701
tp702
Rp703
a(lp704
L7804871L
aag12
aa(lp705
L20131L
aS'Cc1ccc(cc1)N(CC2=NCCN2)c3cccc(O)c3'
p706
a(lp707
g567
aag7
(S'5.00'
p708
tp709
Rp710
a(lp711
L7736486L
aag12
aa(lp712
L155045L
aS'Clc1ccc2Oc3ccccc3N=C(N4CCNCC4)c2c1'
p713
a(lp714
g567
aag7
(S'5.00'
p715
tp716
Rp717
a(lp718
L7624101L
aag12
aa(lp719
L10661L
aS'COc1ccc(CN(CCN(C)C)c2ccccn2)cc1'
p720
a(lp721
g567
aag7
(S'6.52'
p722
tp723
Rp724
a(lp725
L7733085L
aag12
aa(lp726
L98346L
aS'[Cl-].CN(C)c1ccc(cc1)C(=C2C=CC(=[N+](C)C)C=C2)c3ccc(cc3)N(C)C'
p727
a(lp728
g567
aag7
(S'6.08'
p729
tp730
Rp731
a(lp732
L7651182L
aag12
aa(lp733
L674347L
aS'Cl.CCCCN1CCCCC1C(=O)Nc2c(C)cccc2C'
p734
a(lp735
g567
aag7
(S'6.40'
p736
tp737
Rp738
a(lp739
L7599770L
aag12
aa(lp740
L557741L
aS'COC1CN(CCCOc2ccc(F)cc2)CCC1NC(=O)c3cc(Cl)c(N)cc3OC'
p741
a(lp742
g567
aag7
(S'7.15'
p743
tp744
Rp745
a(lp746
L7684443L
aag12
aa(lp747
L704815L
aS'CC(N)Cc1c[nH]c2ccc(OCc3cccs3)cc12'
p748
a(lp749
g567
aag7
(S'5.56'
p750
tp751
Rp752
a(lp753
L7616945L
aag12
aa(lp754
L418736L
aS'COC1=C(OC)C(=O)C(=C(C)C1=O)CCCCCCCCCCO'
p755
a(lp756
g567
aag7
(S'5.52'
p757
tp758
Rp759
a(lp760
L7670996L
aag12
aa(lp761
L675144L
aS'CCCCN1CCCC[C@H]1C(=O)Nc2c(C)cccc2C'
p762
a(lp763
g567
aag7
(S'6.71'
p764
tp765
Rp766
a(lp767
L7755210L
aag12
aa(lp768
L148018L
aS'NNCCc1ccccc1'
p769
a(lp770
g567
aag7
(S'6.00'
p771
tp772
Rp773
a(lp774
L7715151L
aag12
aa(lp775
L418419L
aS'CN(Cc1cc(Br)cc(Br)c1N)C2CCCCC2'
p776
a(lp777
g567
aag7
(S'6.71'
p778
tp779
Rp780
a(lp781
L7605511L
aag12
aa(lp782
L674357L
aS'CN(C)CCOC(c1ccccc1)c2ccccc2.CN3C(=O)N(C)c4nc(Cl)[nH]c4C3=O'
p783
a(lp784
g567
aag7
(S'5.82'
p785
tp786
Rp787
a(lp788
L7707085L
aag12
aa(lp789
L92984L
aS'CCN(CC)CCOc1ccc(cc1)\\C(=C(\\Cl)/c2ccccc2)\\c3ccccc3'
p790
a(lp791
g567
aag7
(S'5.00'
p792
tp793
Rp794
a(lp795
L7706018L
aag12
aa(lp796
L9277L
aS'CNC(=O)Oc1ccc2N(C)[C@H]3N(C)CC[C@@]3(C)c2c1'
p797
a(lp798
g567
aag7
(S'6.70'
p799
tp800
Rp801
a(lp802
L7717519L
aag12
aa(lp803
L9333L
aS'Nc1c2CCCCc2nc3ccccc13'
p804
a(lp805
g567
aag7
(S'6.52'
p806
tp807
Rp808
a(lp809
L7827285L
aag12
aa(lp810
L86466L
aS'OC(CCCN1CCCCC1)(c2ccccc2)c3ccccc3'
p811
a(lp812
g567
aag7
(S'6.49'
p813
tp814
Rp815
a(lp816
L7683633L
aag12
aa(lp817
L453827L
aS'CN(C)C(=O)Oc1cc(OC(=O)N(C)C)cc(c1)C(O)CNC(C)(C)C'
p818
a(lp819
g567
aag7
(S'5.70'
p820
tp821
Rp822
a(lp823
L7606451L
aag12
aa(lp824
L453533L
aS'NNc1ccccc1'
p825
a(lp826
g567
aag7
(S'5.52'
p827
tp828
Rp829
a(lp830
L7743094L
aag12
aa(lp831
L418411L
aS'OC(CCN1CCCCC1)(C2CCCCC2)c3ccccc3'
p832
a(lp833
g567
aag7
(S'5.61'
p834
tp835
Rp836
a(lp837
L7782761L
aag12
aa(lp838
L223819L
aS'Clc1ccc(CSC(Cn2ccnc2)c3ccc(Cl)cc3Cl)cc1'
p839
a(lp840
g567
aag7
(S'6.10'
p841
tp842
Rp843
a(lp844
L7803396L
aag12
aa(lp845
L12494L
aS'CCCN1C[C@H](CSC)C[C@H]2[C@H]1Cc3c[nH]c4cccc2c34'
p846
a(lp847
g567
aag7
(S'6.70'
p848
tp849
Rp850
a(lp851
L7727825L
aag12
aa(lp852
L6643L
aS'Fc1ccc(cc1)[C@@H]2CCNC[C@H]2COc3ccc4OCOc4c3'
p853
a(lp854
g567
aag7
(S'6.00'
p855
tp856
Rp857
a(lp858
L7719180L
aag12
aa(lp859
L128080L
aS'N=C(Nc1ccccc1)Nc2ccccc2'
p860
a(lp861
g567
aag7
(S'5.46'
p862
tp863
Rp864
a(lp865
L7631332L
aag12
aa(lp866
L7736L
aS'CCN(CC)CCNC(=O)c1cc(Cl)c(N)cc1OC'
p867
a(lp868
g567
aag7
(S'6.10'
p869
tp870
Rp871
a(lp872
L7751759L
aag12
aa(lp873
L5970L
aS'CSc1ccc2Sc3ccccc3N(CCC4CCCCN4C)c2c1'
p874
a(lp875
g567
aag7
(S'5.75'
p876
tp877
Rp878
a(lp879
L7799963L
aag12
aa(lp880
L77779L
aS'CN(C)CCOC(c1ccccc1)c2ccccc2C'
p881
a(lp882
g567
aag7
(S'6.40'
p883
tp884
Rp885
a(lp886
L7714598L
aag12
aa(lp887
L8917L
aS'Clc1ccc(COC(Cn2ccnc2)c3ccc(Cl)cc3Cl)c(Cl)c1'
p888
a(lp889
g567
aag7
(S'6.00'
p890
tp891
Rp892
a(lp893
L7754147L
aag12
aa(lp894
L2262L
aS'CNCCC=C1c2ccccc2CCc3ccccc13'
p895
a(lp896
g567
aag7
(S'6.00'
p897
tp898
Rp899
a(lp900
L7740059L
aag12
aa(lp901
L5975L
aS'Cc1c(OCC(F)(F)F)ccnc1C[S+]([O-])c2nc3ccccc3[nH]2'
p902
a(lp903
g567
aag7
(S'5.27'
p904
tp905
Rp906
a(lp907
L7755082L
aag12
aa(lp908
L581848L
aS'CCN1CC(CCN2CCOCC2)C(C1=O)(c3ccccc3)c4ccccc4'
p909
a(lp910
g567
aag7
(S'7.00'
p911
tp912
Rp913
a(lp914
L7679362L
aag12
aa(lp915
L1248996L
aS'NC(=O)C1CCN(CCCN2c3ccccc3Sc4ccc(Cl)cc24)CC1'
p916
a(lp917
g567
aag7
(S'7.00'
p918
tp919
Rp920
a(lp921
L7734595L
aag12
aa(lp922
L13402L
aS'C(c1ccccc1)n2ccnc2'
p923
a(lp924
g567
aag7
(S'5.70'
p925
tp926
Rp927
a(lp928
L7623059L
aag12
aa(lp929
L17411L
aS'Nc1nc(N)c2nc(c(N)nc2n1)c3ccccc3'
p930
a(lp931
g567
aag7
(S'5.00'
p932
tp933
Rp934
a(lp935
L7785936L
aag12
aa(lp936
L1248989L
aS'CO[C@H]1C[C@@H](O[C@H]2C[C@@H](O[C@H]2[C@]3(C)CC[C@@H](O3)[C@]4(C)CC[C@]5(C[C@H](O)[C@@H](C)[C@H](O5)[C@@H](C)[C@@H]6O[C@](O)(CC(=O)O)[C@@H](C)[C@H](OC)[C@H]6OC)O4)[C@H]7O[C@](C)(O)[C@H](C)C[C@@H]7C)O[C@@H](C)[C@@H]1OC'
p937
a(lp938
g567
aag7
(S'6.00'
p939
tp940
Rp941
a(lp942
L7766133L
aag12
aa(lp943
L21459L
aS'Oc1ccc2C[C@H]3N(CC4CC4)CC[C@@]56[C@@H](Oc1c25)C(=O)CC[C@@]36O'
p944
a(lp945
g567
aag7
(S'6.00'
p946
tp947
Rp948
a(lp949
L7750127L
aag12
aa(lp950
L1377887L
aS'CCC1C2CC3C4N(C)c5ccccc5C46CC(C2[C@H]6O)N3C1O'
p951
a(lp952
g567
aag7
(S'6.00'
p953
tp954
Rp955
a(lp956
L7634595L
aag12
aa(lp957
L105442L
aS'CN(Cc1ccc(cc1)C(C)(C)C)Cc2cccc3ccccc23'
p958
a(lp959
g567
aag7
(S'6.52'
p960
tp961
Rp962
a(lp963
L7613997L
aag12
aa(lp964
L996L
aS'CN(C)CCCN1c2ccccc2CCc3ccc(Cl)cc13'
p965
a(lp966
g567
aag7
(S'5.40'
p967
tp968
Rp969
a(lp970
L7708336L
aag12
aa(lp971
L1248997L
aS'[Br-].CC[N+]1(CCOC(=O)C(O)(c2ccccc2)c3ccccc3)CCCCC1'
p972
a(lp973
g567
aag7
(S'6.28'
p974
tp975
Rp976
a(lp977
L7743196L
aag12
aa(lp978
L454374L
aS'CCCCCCNC(=O)N1C=C(F)C(=O)NC1=O'
p979
a(lp980
g567
aag7
(S'5.30'
p981
tp982
Rp983
a(lp984
L7703158L
aag12
aa(lp985
L27112L
aS'CCCNCC(O)COc1ccccc1C(=O)CCc2ccccc2'
p986
a(lp987
g567
aag7
(S'5.34'
p988
tp989
Rp990
a(lp991
L7728715L
aag12
aa(lp992
L1363818L
aS'C[C@]1(O)CC[C@H]2[C@@H]3CC[C@H]4Cc5n[nH]cc5C[C@]4(C)[C@H]3CC[C@]12C'
p993
a(lp994
g567
aag7
(S'5.03'
p995
tp996
Rp997
a(lp998
L7807595L
aag12
aa(lp999
L675307L
aS'CC[C@@H](CO)NC(=O)[C@H]1CN(C)[C@@H]2Cc3c[nH]c4cccc(C2=C1)c34'
p1000
a(lp1001
g567
aag7
(S'6.70'
p1002
tp1003
Rp1004
a(lp1005
L7768838L
aag12
aa(lp1006
L9459L
aS'[Cl-].COc1ccc2cc3c4cc5OCOc5cc4CC[n+]3cc2c1OC'
p1007
a(lp1008
g567
aag7
(S'5.35'
p1009
tp1010
Rp1011
a(lp1012
L7599467L
aag12
aa(lp1013
L1379957L
aS'[Br-].CCC(C)C(C(=O)OCC[N+](C)(CC)CC)c1ccccc1'
p1014
a(lp1015
g567
aag7
(S'6.60'
p1016
tp1017
Rp1018
a(lp1019
L7782320L
aag12
aa(lp1020
L6902L
aS'Oc1ccc2C[C@H]3N(CC=C)CC[C@@]45[C@@H](Oc1c24)C(=O)CC[C@@]35O'
p1021
a(lp1022
g567
aag7
(S'5.70'
p1023
tp1024
Rp1025
a(lp1026
L7756630L
aag12
aa(lp1027
L119288L
aS'C(C(C1CCCCC1)C2CCCCC2)C3CCCCN3'
p1028
a(lp1029
g567
aag7
(S'6.03'
p1030
tp1031
Rp1032
a(lp1033
L7732083L
aag12
aa(lp1034
L1785L
aS'CC(CCc1ccccc1)NCC(O)c2ccc(O)c(c2)C(=O)N'
p1035
a(lp1036
g567
aag7
(S'6.10'
p1037
tp1038
Rp1039
a(lp1040
L7767822L
aag12
aa(lp1041
L250L
aS'C[S+]([O-])c1ccc(cc1)c2nc(c3ccc(F)cc3)c([nH]2)c4ccncc4'
p1042
a(lp1043
g567
aag7
(S'5.70'
p1044
tp1045
Rp1046
a(lp1047
L7822225L
aag12
aa(lp1048
L56831L
aS'CN(C\\C=C\\C#CC(C)(C)C)Cc1cccc2ccccc12'
p1049
a(lp1050
g567
aag7
(S'6.70'
p1051
tp1052
Rp1053
a(lp1054
L7806143L
aag12
aa(lp1055
L687939L
aS'CC[C@H](C)[C@@H](CO[C@@H](Cc1ccccc1)C(=O)N[C@@H](CCS(=O)(=O)C)C(=O)OC(C)C)NC[C@@H](N)CS'
p1056
a(lp1057
g567
aag7
(S'6.15'
p1058
tp1059
Rp1060
a(lp1061
L7754974L
aag12
aa(lp1062
L242303L
aS'Clc1ccc(CO\\N=C(/Cn2ccnc2)\\c3ccc(Cl)cc3Cl)c(Cl)c1'
p1063
a(lp1064
g567
aag7
(S'6.00'
p1065
tp1066
Rp1067
a(lp1068
L7738225L
aag12
aasS'Pkinase_Tyr'
p1069
(lp1070
(lp1071
NaS'None'
p1072
aS'None'
p1073
aS'None'
p1074
aS'manual'
p1075
ag1075
aasS'1.20.1070.10.FF45435'
p1076
(lp1077
(lp1078
L16391L
aS'CN(C)CCCN1c2ccccc2Sc3ccccc13'
p1079
a(lp1080
S'P20309'
p1081
ag1081
aag7
(S'6.72'
p1082
tp1083
Rp1084
a(lp1085
L7722300L
aL7722301L
aag12
aa(lp1086
L26632L
aS'CCCN(CCC)CC1CCCCN1CCNC(=O)N2c3ccccc3C(=O)Nc4cccnc24'
p1087
a(lp1088
g1081
aag7
(S'7.80'
p1089
tp1090
Rp1091
a(lp1092
L5084359L
aag12
aa(lp1093
L1511435L
aS'CCN1CCC(=C(C1)C(=O)OCCCc2ccc(OC)cc2)c3ccccc3'
p1094
a(lp1095
g1081
aag7
(S'5.39'
p1096
tp1097
Rp1098
a(lp1099
L12627788L
aag12
aa(lp1100
L491534L
aS'Cc1ccccc1CN2CCC(CC2)N3CCC(CC3)N4C(=O)Nc5ccccc45'
p1101
a(lp1102
g1081
ag1081
ag1081
aag7
(S'5.64'
p1103
tp1104
Rp1105
a(lp1106
L3430246L
aL12639025L
aL12639026L
aag12
aa(lp1107
L1265643L
aS'C[C@@](N1CCCCC1)(C(=O)O[C@H]2C[N+]3(CC(=O)Nc4ccon4)CCC2CC3)c5cccs5'
p1108
a(lp1109
g1081
aag7
(S'9.70'
p1110
tp1111
Rp1112
a(lp1113
L7947362L
aag12
aa(lp1114
L114704L
aS'CCCC(=O)N1CCC(CC1)N2CCC(CC2)C(=C)c3ccc(cc3)S(=O)(=O)c4ccc(OC)cc4'
p1115
a(lp1116
g1081
aag7
(S'6.92'
p1117
tp1118
Rp1119
a(lp1120
L358631L
aag12
aa(lp1121
L114707L
aS'COc1ccc(cc1)S(=O)(=O)c2ccc(cc2)C(=C)C3CCN(CC3)C4CCNCC4'
p1122
a(lp1123
g1081
aag7
(S'8.47'
p1124
tp1125
Rp1126
a(lp1127
L371236L
aag12
aa(lp1128
L1604712L
aS'NC(=O)C[N+]12CCC(CC1)[C@H](C2)OC(=O)C3(CCCCCC3)C4=CC=CC4'
p1129
a(lp1130
g1081
aag7
(S'9.70'
p1131
tp1132
Rp1133
a(lp1134
L13833268L
aag12
aa(lp1135
L716826L
aS'O=C(N1CCC2(CCN(Cc3ccccc3)CC2)CC1)c4ccsc4'
p1136
a(lp1137
g1081
aag7
(S'6.50'
p1138
tp1139
Rp1140
a(lp1141
L3591690L
aag12
aa(lp1142
L26653L
aS'CCCCCCOc1nsnc1C2=CCCN(C)C2'
p1143
a(lp1144
g1081
aag7
(S'7.89'
p1145
tp1146
Rp1147
a(lp1148
L3430243L
aag12
aa(lp1149
L376873L
aS'[I-].C[C@H]1COC[C@@H](C[N+](C)(C)C)O1'
p1150
a(lp1151
g1081
aag7
(S'5.12'
p1152
tp1153
Rp1154
a(lp1155
L3074988L
aag12
aa(lp1156
L98346L
aS'[Cl-].CN(C)c1ccc(cc1)C(=C2C=CC(=[N+](C)C)C=C2)c3ccc(cc3)N(C)C'
p1157
a(lp1158
g1081
ag1081
aag7
(S'5.70'
p1159
tp1160
Rp1161
a(lp1162
L7651254L
aL7651255L
aag12
aa(lp1163
L114739L
aS'CCCS(=O)(=O)N1CCC(CC1)N2CCC(CC2)C(=C)c3ccc(cc3)S(=O)(=O)c4ccc(OC)cc4'
p1164
a(lp1165
g1081
aag7
(S'8.00'
p1166
tp1167
Rp1168
a(lp1169
L372669L
aag12
aa(lp1170
L65605L
aS'COc1ccc(CCN2CCC(CC2)Nc3nc4ccccc4n3Cc5ccc(F)cc5)cc1'
p1171
a(lp1172
g1081
ag1081
aag7
(S'6.415'
p1173
tp1174
Rp1175
a(lp1176
L7620332L
aL7620333L
aag12
aa(lp1177
L6216L
aS'CN(C)CCCN1c2ccccc2Sc3ccc(Cl)cc13'
p1178
a(lp1179
g1081
ag1081
aag7
(S'7.025'
p1180
tp1181
Rp1182
a(lp1183
L7707751L
aL7707752L
aag12
aa(lp1184
L579658L
aS'[I-].C[N+]1(C)CCC[C@H]1c2oc(cc2)[C@](O)(C3CCCCC3)c4ccccc4'
p1185
a(lp1186
g1081
aag7
(S'6.29'
p1187
tp1188
Rp1189
a(lp1190
L2983689L
aag12
aa(lp1191
L579659L
aS'[I-].C[N+]1(C)CCCC1c2oc(cc2)C(c3ccccc3)c4ccccc4'
p1192
a(lp1193
g1081
aag7
(S'7.63'
p1194
tp1195
Rp1196
a(lp1197
L2983690L
aag12
aa(lp1198
L1604714L
aS'Fc1cccc(NC(=O)C[N+]23CCC(CC2)[C@H](C3)OC(=O)C4(CCCCCC4)C5=CC=CC5)c1'
p1199
a(lp1200
g1081
aag7
(S'9.90'
p1201
tp1202
Rp1203
a(lp1204
L13833266L
aag12
aa(lp1205
L1051375L
aS'NC(=N)N1CCN(CC(=O)N2c3ccccc3C(=C)Nc4cccnc24)CC1'
p1206
a(lp1207
g1081
aag7
(S'6.50'
p1208
tp1209
Rp1210
a(lp1211
L5084357L
aag12
aa(lp1212
L632933L
aS'OC(CCC1CCNCC1)c2ccccc2c3cccc(Cl)c3'
p1213
a(lp1214
g1081
aag7
(S'8.70'
p1215
tp1216
Rp1217
a(lp1218
L3312776L
aag12
aa(lp1219
L632934L
aS'Clc1cccc(c1)c2ccccc2\\C=C\\CC3CCNCC3'
p1220
a(lp1221
g1081
aag7
(S'7.90'
p1222
tp1223
Rp1224
a(lp1225
L3312779L
aag12
aa(lp1226
L579688L
aS'[I-].C[N+]1(C)CCCC1c2oc(cc2)C(C3CCCCC3)c4ccccc4'
p1227
a(lp1228
g1081
aag7
(S'8.05'
p1229
tp1230
Rp1231
a(lp1232
L2983691L
aag12
aa(lp1233
L579694L
aS'CN1CCCC1c2oc(cc2)C(O)(c3ccccc3)c4ccccc4'
p1234
a(lp1235
g1081
aag7
(S'7.02'
p1236
tp1237
Rp1238
a(lp1239
L2983031L
aag12
aa(lp1240
L553072L
aS'Cl.CCCCN1C(=O)C(CC2CCCCC2)NC(=O)C13CCN(Cc4ccc5OCCOc5c4)CC3'
p1241
a(lp1242
g1081
aag7
(S'5.68'
p1243
tp1244
Rp1245
a(lp1246
L1743081L
aag12
aa(lp1247
L1606032L
aS'[Br-].C[N+]1(C)[C@@H]2C[C@@H](C[C@H]1[C@@H]3O[C@H]23)OC(=O)C(O)c4cccs4'
p1248
a(lp1249
g1081
aag7
(S'8.30'
p1250
tp1251
Rp1252
a(lp1253
L13846946L
aag12
aa(lp1254
L579706L
aS'CN1CCCC1c2oc(cc2)C(O)(C3CCCCC3)c4ccccc4'
p1255
a(lp1256
g1081
aag7
(S'8.11'
p1257
tp1258
Rp1259
a(lp1260
L2983032L
aag12
aa(lp1261
L344189L
aS'Nc1c(NC2CC2)nc(nc1N3CCCCCC3)C4CC4'
p1262
a(lp1263
g1081
aag7
(S'7.10'
p1264
tp1265
Rp1266
a(lp1267
L1702695L
aag12
aa(lp1268
L579719L
aS'[I-].C[N+]1(C)CCCC1c2oc(cc2)C(O)(C3CCCCC3)c4ccccc4'
p1269
a(lp1270
g1081
aag7
(S'8.14'
p1271
tp1272
Rp1273
a(lp1274
L2983685L
aag12
aa(lp1275
L579720L
aS'[I-].C[N+]1(C)CCC[C@@H]1c2oc(cc2)[C@@](O)(C3CCCCC3)c4ccccc4'
p1276
a(lp1277
g1081
aag7
(S'8.82'
p1278
tp1279
Rp1280
a(lp1281
L2983686L
aag12
aa(lp1282
L344201L
aS'Cc1c(NC2(C)CC2)nc(nc1N3CCCCCC3)C4CC4'
p1283
a(lp1284
g1081
aag7
(S'8.00'
p1285
tp1286
Rp1287
a(lp1288
L1702690L
aag12
aa(lp1289
L344202L
aS'C[C@H]1C[C@@H]1Nc2nc(nc(N3CCCCCC3)c2C)C4CC4'
p1290
a(lp1291
g1081
aag7
(S'8.10'
p1292
tp1293
Rp1294
a(lp1295
L1702689L
aag12
aa(lp1296
L1559234L
aS'CCN(CC)CCSC(=O)C(O)(c1ccccc1)c2ccccc2'
p1297
a(lp1298
g1081
aag7
(S'8.51'
p1299
tp1300
Rp1301
a(lp1302
L13288590L
aag12
aa(lp1303
L1559235L
aS'CCN(CC)CCOC(=O)C(O)(c1ccccc1)c2c(C)cccc2C'
p1304
a(lp1305
g1081
aag7
(S'6.60'
p1306
tp1307
Rp1308
a(lp1309
L13288589L
aag12
aa(lp1310
L579732L
aS'CN1CCC[C@@H]1c2oc(cc2)[C@@](O)(C3CCCCC3)c4ccccc4'
p1311
a(lp1312
g1081
aag7
(S'8.78'
p1313
tp1314
Rp1315
a(lp1316
L2983678L
aag12
aa(lp1317
L579733L
aS'CN1CCC[C@H]1c2oc(cc2)[C@@](O)(C3CCCCC3)c4ccccc4'
p1318
a(lp1319
g1081
aag7
(S'7.63'
p1320
tp1321
Rp1322
a(lp1323
L2983679L
aag12
aa(lp1324
L1147601L
aS'[Br-].O=C(O[C@H]1C[N+]2(CCOc3ccccc3)CCC1CC2)N(Cc4cccs4)c5ccccc5'
p1325
a(lp1326
g1081
aag7
(S'9.52'
p1327
tp1328
Rp1329
a(lp1330
L6210580L
aag12
aa(lp1331
L443759L
aS'CCCCCCCCCCCC(OC(=O)C(CCCCN(O)C(=O)C)NC(=O)c1coc(n1)c2ccccc2O)C(C)C(=O)NC3CCCCNC3=O'
p1332
a(lp1333
g1081
ag1081
aag7
(S'5.665'
p1334
tp1335
Rp1336
a(lp1337
L2544779L
aL2544785L
aag12
aa(lp1338
L357744L
aS'O[C@@H]1C[C@H](N(C1)C(=O)CC(c2ccc(F)cc2)(c3ccc(F)cc3)c4ccc(F)cc4)C(=O)N5CCC[C@@H]5C(=O)NCC6CCN(CC7CCCC7)CC6'
p1339
a(lp1340
g1081
aag7
(S'9.72'
p1341
tp1342
Rp1343
a(lp1344
L1763994L
aag12
aa(lp1345
L335217L
aS'CO[C@@]1(CN2CCC1CC2)C#CC(O)(c3ccccc3)c4ccccc4'
p1346
a(lp1347
g1081
aag7
(S'9.89'
p1348
tp1349
Rp1350
a(lp1351
L1666528L
aag12
aa(lp1352
L344234L
aS'CC(C)c1nc(NC2CC2)c(C)c(n1)N3CCCCCC3'
p1353
a(lp1354
g1081
aag7
(S'7.60'
p1355
tp1356
Rp1357
a(lp1358
L1702704L
aag12
aa(lp1359
L579756L
aS'CN1CCC[C@@H]1c2oc(cc2)[C@](O)(C3CCCCC3)c4ccccc4'
p1360
a(lp1361
g1081
aag7
(S'6.49'
p1362
tp1363
Rp1364
a(lp1365
L2983680L
aag12
aa(lp1366
L579757L
aS'CN1CCC[C@H]1c2oc(cc2)[C@](O)(C3CCCCC3)c4ccccc4'
p1367
a(lp1368
g1081
aag7
(S'5.78'
p1369
tp1370
Rp1371
a(lp1372
L2983681L
aag12
aa(lp1373
L2223L
aS'CNCCC(Oc1ccc(cc1)C(F)(F)F)c2ccccc2'
p1374
a(lp1375
g1081
ag1081
aag7
(S'5.78'
p1376
tp1377
Rp1378
a(lp1379
L7665731L
aL7665732L
aag12
aa(lp1380
L344241L
aS'Cc1c(NC2CC2)nc(CC3CC3)nc1N4CCCCCC4'
p1381
a(lp1382
g1081
aag7
(S'6.90'
p1383
tp1384
Rp1385
a(lp1386
L1702703L
aag12
aa(lp1387
L344242L
aS'Cc1c(NC2CC2)nc(nc1N3CCc4ccccc4C3)C5CC5'
p1388
a(lp1389
g1081
aag7
(S'6.50'
p1390
tp1391
Rp1392
a(lp1393
L1702710L
aag12
aa(lp1394
L344243L
aS'Cc1c(NC2CC2)nc(Cc3ccccc3)nc1N4CCCCCC4'
p1395
a(lp1396
g1081
aag7
(S'6.30'
p1397
tp1398
Rp1399
a(lp1400
L1702702L
aag12
aa(lp1401
L195273L
aS'[Br-].CCCCCCCCCCCCCCCC[n+]1ccccc1'
p1402
a(lp1403
g1081
ag1081
aag7
(S'7.805'
p1404
tp1405
Rp1406
a(lp1407
L7679632L
aL7679633L
aag12
aa(lp1408
L344251L
aS'COc1c(NC2CC2)nc(nc1N3CCSCC3)C4CC4'
p1409
a(lp1410
g1081
aag7
(S'6.40'
p1411
tp1412
Rp1413
a(lp1414
L1702694L
aag12
aa(lp1415
L344259L
aS'C1CCCN(CC1)c2nc(nc3NCCCc23)C4CC4'
p1416
a(lp1417
g1081
aag7
(S'7.30'
p1418
tp1419
Rp1420
a(lp1421
L1702688L
aag12
aa(lp1422
L633030L
aS'Cc1ccc(cc1Cl)c2ccccc2C(=O)NCC3CCNCC3'
p1423
a(lp1424
g1081
aag7
(S'6.60'
p1425
tp1426
Rp1427
a(lp1428
L3316129L
aag12
aa(lp1429
L344268L
aS'C1CCCN(CC1)c2nc(nc3NCCCCc23)C4CC4'
p1430
a(lp1431
g1081
aag7
(S'8.00'
p1432
tp1433
Rp1434
a(lp1435
L1702687L
aag12
aa(lp1436
L1147597L
aS'[Br-].O=C(O[C@H]1C[N+]2(CCCc3cccs3)CCC1CC2)N(Cc4ccccc4)c5ccccc5'
p1437
a(lp1438
g1081
aag7
(S'9.22'
p1439
tp1440
Rp1441
a(lp1442
L6210576L
aag12
aa(lp1443
L579792L
aS'CN1CCCC1c2oc(cc2)C(c3ccccc3)c4ccccc4'
p1444
a(lp1445
g1081
aag7
(S'7.07'
p1446
tp1447
Rp1448
a(lp1449
L2983682L
aag12
aa(lp1450
L579793L
aS'CN1CCCC1c2oc(cc2)C(C3CCCCC3)c4ccccc4'
p1451
a(lp1452
g1081
aag7
(S'7.47'
p1453
tp1454
Rp1455
a(lp1456
L2983683L
aag12
aa(lp1457
L579794L
aS'[I-].C[N+]1(C)CCC[C@H]1c2oc(cc2)[C@@](O)(C3CCCCC3)c4ccccc4'
p1458
a(lp1459
g1081
aag7
(S'8.03'
p1460
tp1461
Rp1462
a(lp1463
L2983687L
aag12
aa(lp1464
L2261L
aS'CN1CCN(CC1)C2=Nc3cc(Cl)ccc3Nc4ccccc24'
p1465
a(lp1466
g1081
ag1081
aag7
(S'7.44'
p1467
tp1468
Rp1469
a(lp1470
L7706211L
aL7706212L
aag12
aa(lp1471
L2262L
aS'CNCCC=C1c2ccccc2CCc3ccccc13'
p1472
a(lp1473
g1081
ag1081
aag7
(S'7.105'
p1474
tp1475
Rp1476
a(lp1477
L7740131L
aL7740132L
aag12
aa(lp1478
L579802L
aS'[I-].C[N+]1(C)CCC[C@@H]1c2oc(cc2)[C@](O)(C3CCCCC3)c4ccccc4'
p1479
a(lp1480
g1081
aag7
(S'6.81'
p1481
tp1482
Rp1483
a(lp1484
L2983688L
aag12
aa(lp1485
L344287L
aS'Cc1c(NCc2c(F)cccc2F)nc(nc1NC3CC3)C4CC4'
p1486
a(lp1487
g1081
aag7
(S'7.20'
p1488
tp1489
Rp1490
a(lp1491
L1702709L
aag12
aa(lp1492
L344288L
aS'Cc1c(NCc2cccs2)nc(nc1NC3CC3)C4CC4'
p1493
a(lp1494
g1081
aag7
(S'6.90'
p1495
tp1496
Rp1497
a(lp1498
L1702708L
aag12
aa(lp1499
L344289L
aS'Cc1c(NCCc2cccs2)nc(nc1NC3CC3)C4CC4'
p1500
a(lp1501
g1081
aag7
(S'7.10'
p1502
tp1503
Rp1504
a(lp1505
L1702707L
aag12
aa(lp1506
L344295L
aS'Cc1c(NC2CC2)nc(nc1N3CCCCCC3)C4CCC4'
p1507
a(lp1508
g1081
aag7
(S'7.40'
p1509
tp1510
Rp1511
a(lp1512
L1702706L
aag12
aa(lp1513
L344296L
aS'Cc1c(NC2CC2)nc(nc1N3CCCCCC3)C4CCCC4'
p1514
a(lp1515
g1081
aag7
(S'7.10'
p1516
tp1517
Rp1518
a(lp1519
L1702705L
aag12
aa(lp1520
L579819L
aS'[I-].C[N+]1(C)CCCC1c2oc(cc2)C(O)(c3ccccc3)c4ccccc4'
p1521
a(lp1522
g1081
aag7
(S'7.44'
p1523
tp1524
Rp1525
a(lp1526
L2983684L
aag12
aa(lp1527
L1147602L
aS'[Br-].O=C(O[C@H]1C[N+]2(CCCc3cccs3)CCC1CC2)N(Cc4ccsc4)c5ccccc5'
p1528
a(lp1529
g1081
aag7
(S'9.22'
p1530
tp1531
Rp1532
a(lp1533
L6210581L
aag12
aa(lp1534
L633081L
aS'Clc1cccc(c1)c2ccccc2S(=O)(=O)CCC3CCNCC3'
p1535
a(lp1536
g1081
aag7
(S'7.70'
p1537
tp1538
Rp1539
a(lp1540
L3312801L
aag12
aa(lp1541
L633082L
aS'Fc1cccc(c2cc(Cl)ccc2Cl)c1c3onc(n3)C4CCNCC4'
p1542
a(lp1543
g1081
aag7
(S'5.40'
p1544
tp1545
Rp1546
a(lp1547
L3312804L
aag12
aa(lp1548
L633083L
aS'Fc1cccc(c2cc(Cl)ccc2Cl)c1C(=O)NCC3CCNCC3'
p1549
a(lp1550
g1081
aag7
(S'5.90'
p1551
tp1552
Rp1553
a(lp1554
L3312807L
aag12
aa(lp1555
L717052L
aS'CCOc1ccccc1C(=O)N2CCC3(CCN(Cc4ccccc4)CC3)CC2'
p1556
a(lp1557
g1081
aag7
(S'6.10'
p1558
tp1559
Rp1560
a(lp1561
L3591691L
aag12
aa(lp1562
L717053L
aS'Clc1ccc(CN2CCC3(CC2)CN(CCO3)C(=O)c4ccccc4)cc1'
p1563
a(lp1564
g1081
aag7
(S'6.60'
p1565
tp1566
Rp1567
a(lp1568
L3591692L
aag12
aa(lp1569
L1147605L
aS'[Br-].CCCCN(C(=O)O[C@H]1C[N+]2(CCCc3ccccc3)CCC1CC2)c4ccccc4'
p1570
a(lp1571
g1081
aag7
(S'9.10'
p1572
tp1573
Rp1574
a(lp1575
L6210584L
aag12
aa(lp1576
L135426L
aS'O=C(OC1CC2CCCC1N2)C3CCCCC3'
p1577
a(lp1578
g1081
aag7
(S'5.12'
p1579
tp1580
Rp1581
a(lp1582
L183352L
aag12
aa(lp1583
L1147606L
aS'[Br-].CCCCN(C(=O)O[C@H]1C[N+]2(CCCc3cccs3)CCC1CC2)c4ccccc4'
p1584
a(lp1585
g1081
aag7
(S'9.22'
p1586
tp1587
Rp1588
a(lp1589
L6210585L
aag12
aa(lp1590
L633098L
aS'Fc1ccc(Cl)cc1c2ccccc2C(=O)NCC3CCNCC3'
p1591
a(lp1592
g1081
aag7
(S'6.00'
p1593
tp1594
Rp1595
a(lp1596
L3316133L
aag12
aa(lp1597
L661796L
aS'CN1[C@@H]2C[C@H](C[C@H]1[C@@H]3O[C@@H]23)OC(=O)[C@H](CO)c4ccccc4'
p1598
a(lp1599
g1081
aag7
(S'8.19'
p1600
tp1601
Rp1602
a(lp1603
L12627790L
aag12
aa(lp1604
L18726L
aS'CCN(CC)CC1CCCCN1CC(=O)N2c3ccccc3C(=O)Nc4cccnc24'
p1605
a(lp1606
g1081
ag1081
aag7
(S'5.89'
p1607
tp1608
Rp1609
a(lp1610
L5084358L
aL12629832L
aag12
aa(lp1611
L1265516L
aS'C[C@@](N1CCCCC1)(C(=O)O[C@H]2C[N+]3(CCCc4ccc5ncsc5c4)CCC2CC3)c6ccccc6'
p1612
a(lp1613
g1081
aag7
(S'9.40'
p1614
tp1615
Rp1616
a(lp1617
L7947387L
aag12
aa(lp1618
L479533L
aS'FC(F)(F)c1ccc(CN2C(=O)C(=O)c3cccc(Cl)c23)cc1'
p1619
a(lp1620
g1081
aag7
(S'5.65'
p1621
tp1622
Rp1623
a(lp1624
L2623370L
aag12
aa(lp1625
L2355L
aS'CCN(CC)CCCC(C)Nc1c2ccc(Cl)cc2nc3ccc(OC)cc13'
p1626
a(lp1627
g1081
ag1081
aag7
(S'6.24'
p1628
tp1629
Rp1630
a(lp1631
L7746072L
aL7746073L
aag12
aa(lp1632
L555323L
aS'[Br-].CCCCCCC[N+]12CCC(CC1)[C@H](C2)OC(=O)C3(O)c4ccccc4c5ccccc35'
p1633
a(lp1634
g1081
aag7
(S'8.77'
p1635
tp1636
Rp1637
a(lp1638
L2708928L
aag12
aa(lp1639
L555324L
aS'[Br-].OC1(C(=O)O[C@H]2C[N+]3(CCCOc4ccccc4)CCC2CC3)c5ccccc5c6ccccc16'
p1640
a(lp1641
g1081
aag7
(S'9.15'
p1642
tp1643
Rp1644
a(lp1645
L2708930L
aag12
aa(lp1646
L1343805L
aS'C[C@@H]1CCCN1CCc2oc3ccc(cc3c2)C(=O)c4ccc(cc4)[N+](=O)[O-]'
p1647
a(lp1648
g1081
aag7
(S'6.29'
p1649
tp1650
Rp1651
a(lp1652
L10888582L
aag12
aa(lp1653
L633158L
aS'C[C@H]1CNCC[C@@H]1CNC(=O)c2c(F)cccc2c3cccc(Cl)c3'
p1654
a(lp1655
g1081
aag7
(S'7.40'
p1656
tp1657
Rp1658
a(lp1659
L3312812L
aag12
aa(lp1660
L633159L
aS'C[C@H]1CNCC[C@H]1CNC(=O)c2c(F)cccc2c3cccc(Cl)c3'
p1661
a(lp1662
g1081
aag7
(S'5.60'
p1663
tp1664
Rp1665
a(lp1666
L3312815L
aag12
aa(lp1667
L633160L
aS'Fc1cccc(c2cccc(Cl)c2)c1C(=O)NCC3=CCNCC3'
p1668
a(lp1669
g1081
aag7
(S'5.50'
p1670
tp1671
Rp1672
a(lp1673
L3312818L
aag12
aa(lp1674
L1606028L
aS'[Br-].CC(C(=O)O[C@H]1C[C@@H]2[C@H]3O[C@H]3[C@H](C1)[N+]2(C)C)(c4cccs4)c5cccs5'
p1675
a(lp1676
g1081
aag7
(S'10.30'
p1677
tp1678
Rp1679
a(lp1680
L13846942L
aag12
aa(lp1681
L1606030L
aS'[Br-].C[N+]1(C)[C@@H]2C[C@@H](C[C@H]1[C@@H]3O[C@H]23)OC(=O)[C@H](CO)c4ccccc4'
p1682
a(lp1683
g1081
aag7
(S'9.80'
p1684
tp1685
Rp1686
a(lp1687
L13846948L
aag12
aa(lp1688
L47447L
aS'CC(C)(O)c1ccccc1CC[C@@H](SCC2(CC(=O)O)CC2)c3cccc(\\C=C\\c4ccc5ccc(Cl)cc5n4)c3'
p1689
a(lp1690
g1081
ag1081
aag7
(S'5.515'
p1691
tp1692
Rp1693
a(lp1694
L7762867L
aL7762868L
aag12
aa(lp1695
L633176L
aS'CC1CNCCC1CNC(=O)c2ccccc2c3cccc(Cl)c3'
p1696
a(lp1697
g1081
aag7
(S'5.90'
p1698
tp1699
Rp1700
a(lp1701
L3316137L
aag12
aa(lp1702
L1606031L
aS'[Br-].C[N+]1(C)[C@@H]2C[C@@H](C[C@H]1[C@@H]3O[C@H]23)OC(=O)C(O)c4ccccc4'
p1703
a(lp1704
g1081
aag7
(S'8.70'
p1705
tp1706
Rp1707
a(lp1708
L13846947L
aag12
aa(lp1709
L395664L
aS'CN(C)C1(CNCCC2CCCCCC2)COc3ccccc3OC1'
p1710
a(lp1711
g1081
aag7
(S'8.57'
p1712
tp1713
Rp1714
a(lp1715
L1960486L
aag12
aa(lp1716
L1265518L
aS'C[C@@](N1CCCCC1)(C(=O)O[C@H]2C[N+]3(CCCCc4ccccc4)CCC2CC3)c5cccs5'
p1717
a(lp1718
g1081
aag7
(S'9.60'
p1719
tp1720
Rp1721
a(lp1722
L7947385L
aag12
aa(lp1723
L1606033L
aS'[Br-].C[N+]1(C)[C@@H]2C[C@@H](C[C@H]1[C@@H]3O[C@H]23)OC(=O)C(CO)(c4cccs4)c5cccs5'
p1724
a(lp1725
g1081
aag7
(S'9.50'
p1726
tp1727
Rp1728
a(lp1729
L13846944L
aag12
aa(lp1730
L37266L
aS'CN1CCN(CCCN2c3ccccc3Sc4ccc(Cl)cc24)CC1'
p1731
a(lp1732
g1081
ag1081
aag7
(S'6.155'
p1733
tp1734
Rp1735
a(lp1736
L7745697L
aL7745698L
aag12
aa(lp1737
L443761L
aS'CCCCCCCCCCCCCC(OC(=O)C(CCCCN(O)C(=O)C)NC(=O)c1coc(n1)c2ccccc2O)C(C)C(=O)NC3CCCCNC3=O'
p1738
a(lp1739
g1081
ag1081
aag7
(S'5.675'
p1740
tp1741
Rp1742
a(lp1743
L2544781L
aL2544787L
aag12
aa(lp1744
L27368L
aS'CC(CN1c2ccccc2Sc3ccccc13)N(C)C'
p1745
a(lp1746
g1081
ag1081
aag7
(S'8.04'
p1747
tp1748
Rp1749
a(lp1750
L7726532L
aL7726533L
aag12
aa(lp1751
L717171L
aS'Clc1ccc(CN2CCC3(CC2)CN(CCO3)C(=O)c4ccc5occc5c4)cc1'
p1752
a(lp1753
g1081
aag7
(S'7.50'
p1754
tp1755
Rp1756
a(lp1757
L3591693L
aag12
aa(lp1758
L717172L
aS'Cc1oc(cc1)C(=O)N2CCOC3(CCN(Cc4ccc(Cl)cc4)CC3)C2'
p1759
a(lp1760
g1081
aag7
(S'7.30'
p1761
tp1762
Rp1763
a(lp1764
L3591694L
aag12
aa(lp1765
L59765L
aS'C[N+](C)(C)CC#CCOC(=O)Nc1cccc(Cl)c1'
p1766
a(lp1767
g1081
aag7
(S'5.62'
p1768
tp1769
Rp1770
a(lp1771
L2446357L
aag12
aa(lp1772
L293242L
aS'O=C(CCCNC(=O)CC(c1ccccc1)(c2ccccc2)c3ccccc3)NCCC(=O)NCC4CCCN(CC5CCCCC5)C4'
p1773
a(lp1774
g1081
aag7
(S'8.68'
p1775
tp1776
Rp1777
a(lp1778
L1192568L
aag12
aa(lp1779
L135547L
aS'CCC(=O)OC1CC2CCCC1N2C'
p1780
a(lp1781
g1081
aag7
(S'5.13'
p1782
tp1783
Rp1784
a(lp1785
L159815L
aag12
aa(lp1786
L395646L
aS'CN(C)C1(CNCCc2ccccc2)COc3ccccc3OC1'
p1787
a(lp1788
g1081
aag7
(S'7.70'
p1789
tp1790
Rp1791
a(lp1792
L1960408L
aag12
aa(lp1793
L395648L
aS'CN(C)C1(CNCCc2ccc(C)cc2)COc3ccccc3OC1'
p1794
a(lp1795
g1081
aag7
(S'7.74'
p1796
tp1797
Rp1798
a(lp1799
L1960499L
aag12
aa(lp1800
L395649L
aS'CN(C)C1(CNCCc2ccc(Cl)cc2)COc3ccccc3OC1'
p1801
a(lp1802
g1081
aag7
(S'7.70'
p1803
tp1804
Rp1805
a(lp1806
L1960498L
aag12
aa(lp1807
L395651L
aS'CC(C)c1ccc(CCNCC2(COc3ccccc3OC2)N(C)C)cc1'
p1808
a(lp1809
g1081
aag7
(S'7.25'
p1810
tp1811
Rp1812
a(lp1813
L1960497L
aag12
aa(lp1814
L395654L
aS'CN(C)C1(CNCCc2c(Cl)cccc2Cl)COc3ccccc3OC1'
p1815
a(lp1816
g1081
aag7
(S'7.64'
p1817
tp1818
Rp1819
a(lp1820
L1960495L
aag12
aa(lp1821
L395655L
aS'CN(C)C1(CNCCc2ccccc2F)COc3ccccc3OC1'
p1822
a(lp1823
g1081
aag7
(S'7.72'
p1824
tp1825
Rp1826
a(lp1827
L1960494L
aag12
aa(lp1828
L675286L
aS'C[N+]1(C)CCC(C1)OC(=O)C(O)(C2CCCC2)c3ccccc3'
p1829
a(lp1830
g1081
ag1081
aag7
(S'9.75'
p1831
tp1832
Rp1833
a(lp1834
L7947452L
aL13833292L
aag12
aa(lp1835
L1612169L
aS'CN1CCc2c(C1)c3cccc4CCc5ccccc5n2c34'
p1836
a(lp1837
g1081
ag1081
aag7
(S'5.42'
p1838
tp1839
Rp1840
a(lp1841
L13876573L
aL13876684L
aag12
aa(lp1842
L1606027L
aS'[Br-].C[N+]1(C)[C@@H]2C[C@@H](C[C@H]1[C@@H]3O[C@H]23)OC(=O)C(O)(c4ccccc4)c5ccccc5'
p1843
a(lp1844
g1081
aag7
(S'10.20'
p1845
tp1846
Rp1847
a(lp1848
L13846943L
aag12
aa(lp1849
L395660L
aS'CN(C)C1(CNCC2CCCCC2)COc3ccccc3OC1'
p1850
a(lp1851
g1081
aag7
(S'8.31'
p1852
tp1853
Rp1854
a(lp1855
L1960489L
aag12
aa(lp1856
L1606029L
aS'[Br-].COC(C(=O)O[C@H]1C[C@@H]2[C@H]3O[C@H]3[C@H](C1)[N+]2(C)C)(c4cccs4)c5cccs5'
p1857
a(lp1858
g1081
aag7
(S'8.80'
p1859
tp1860
Rp1861
a(lp1862
L13846941L
aag12
aa(lp1863
L395662L
aS'CN(C)C1(CNCCC2CCCC2)COc3ccccc3OC1'
p1864
a(lp1865
g1081
aag7
(S'8.48'
p1866
tp1867
Rp1868
a(lp1869
L1960488L
aag12
aa(lp1870
L395663L
aS'CN(C)C1(CNCCC2CCCCC2)COc3ccccc3OC1'
p1871
a(lp1872
g1081
aag7
(S'8.60'
p1873
tp1874
Rp1875
a(lp1876
L1960487L
aag12
aa(lp1877
L567696L
aS'[Br-].O[C@@](C(=O)O[C@H]1C[N+]2(CCCOc3ccccc3)CCC1CC2)(c4ccccc4)c5cccs5'
p1878
a(lp1879
g1081
aag7
(S'9.32'
p1880
tp1881
Rp1882
a(lp1883
L2708949L
aag12
aa(lp1884
L395665L
aS'CN(C)C1(CNCCC23CC4CC(CC(C4)C2)C3)COc5ccccc5OC1'
p1885
a(lp1886
g1081
aag7
(S'8.82'
p1887
tp1888
Rp1889
a(lp1890
L1960485L
aag12
aa(lp1891
L395666L
aS'CN(C)C1(CNCCC2CCOCC2)COc3ccccc3OC1'
p1892
a(lp1893
g1081
aag7
(S'7.96'
p1894
tp1895
Rp1896
a(lp1897
L1960484L
aag12
aa(lp1898
L395668L
aS'CN(C)C1(CNCC=C2CCOCC2)COc3ccccc3OC1'
p1899
a(lp1900
g1081
aag7
(S'7.85'
p1901
tp1902
Rp1903
a(lp1904
L1960483L
aag12
aa(lp1905
L395669L
aS'CN(C)C1(CNCCC2CCSCC2)COc3ccccc3OC1'
p1906
a(lp1907
g1081
aag7
(S'8.17'
p1908
tp1909
Rp1910
a(lp1911
L1960482L
aag12
aa(lp1912
L395670L
aS'CN(C)C1(CNCCC2=CCSCC2)COc3ccccc3OC1'
p1913
a(lp1914
g1081
aag7
(S'8.24'
p1915
tp1916
Rp1917
a(lp1918
L1960481L
aag12
aa(lp1919
L395672L
aS'CN(C)C1(CNCCC2CCC(O)CC2)COc3ccccc3OC1'
p1920
a(lp1921
g1081
aag7
(S'8.54'
p1922
tp1923
Rp1924
a(lp1925
L1960480L
aag12
aa(lp1926
L364953L
aS'COc1nsnc1OCCOCCOCCOCCOc2nsnc2C3=CCCN(C)C3'
p1927
a(lp1928
g1081
aag7
(S'6.80'
p1929
tp1930
Rp1931
a(lp1932
L1797302L
aag12
aa(lp1933
L395674L
aS'CN(C)C1(CNCCC2CCC(CO)CC2)COc3ccccc3OC1'
p1934
a(lp1935
g1081
aag7
(S'8.68'
p1936
tp1937
Rp1938
a(lp1939
L1960479L
aag12
aa(lp1940
L395675L
aS'CN(C)C1(CNCCC2CCOCC2)COc3ccc(F)cc3OC1'
p1941
a(lp1942
g1081
aag7
(S'8.38'
p1943
tp1944
Rp1945
a(lp1946
L1960478L
aag12
aa(lp1947
L567708L
aS'[Br-].OC1(C(=O)O[C@H]2C[N+]3(CCc4ccccc4)CCC2CC3)c5ccccc5c6ccccc16'
p1948
a(lp1949
g1081
aag7
(S'8.98'
p1950
tp1951
Rp1952
a(lp1953
L2708929L
aag12
aa(lp1954
L567706L
aS'OC(C(=O)O[C@H]1CN2CCC1CC2)(c3ccccc3)c4ccccc4'
p1955
a(lp1956
g1081
aag7
(S'9.05'
p1957
tp1958
Rp1959
a(lp1960
L2708923L
aag12
aa(lp1961
L567710L
aS'[Br-].O=C(O[C@H]1C[N+]2(CCc3ccccc3)CCC1CC2)C4c5ccccc5Oc6ccccc46'
p1962
a(lp1963
g1081
aag7
(S'9.51'
p1964
tp1965
Rp1966
a(lp1967
L2708937L
aag12
aa(lp1968
L633247L
aS'CC[C@H]1CNCC[C@@H]1CNC(=O)c2c(F)cccc2c3cccc(Cl)c3'
p1969
a(lp1970
g1081
aag7
(S'5.00'
p1971
tp1972
Rp1973
a(lp1974
L3312827L
aag12
aa(lp1975
L633248L
aS'F[C@@H]1CNCC[C@@H]1CNC(=O)c2c(F)cccc2c3cccc(Cl)c3'
p1976
a(lp1977
g1081
aag7
(S'5.00'
p1978
tp1979
Rp1980
a(lp1981
L3312830L
aag12
aa(lp1982
L633249L
aS'FC1=C(CNC(=O)c2c(F)c(Cl)ccc2c3cccc(Cl)c3)CCNC1'
p1983
a(lp1984
g1081
aag7
(S'5.00'
p1985
tp1986
Rp1987
a(lp1988
L3312833L
aag12
aa(lp1989
L633250L
aS'Fc1cccc(c2cccc(Cl)c2)c1C(=O)NCC3(F)CCNCC3'
p1990
a(lp1991
g1081
aag7
(S'5.90'
p1992
tp1993
Rp1994
a(lp1995
L3312836L
aag12
aa(lp1996
L567707L
aS'O[C@@](C1CCCC1)(C(=O)O[C@H]2CN3CCC2CC3)c4cccs4'
p1997
a(lp1998
g1081
aag7
(S'9.41'
p1999
tp2000
Rp2001
a(lp2002
L2708926L
aag12
aa(lp2003
L321964L
aS'CC(C)N(CC[C@H](c1ccccc1)c2cc(C)ccc2O)C(C)C'
p2004
a(lp2005
g1081
ag1081
aag7
(S'8.465'
p2006
tp2007
Rp2008
a(lp2009
L1666531L
aL2090900L
aag12
aa(lp2010
L364973L
aS'COc1nsc(OCCOCCOCCOCCOc2nsnc2C3C=CCCN3C)n1'
p2011
a(lp2012
g1081
aag7
(S'6.80'
p2013
tp2014
Rp2015
a(lp2016
L1797303L
aag12
aa(lp2017
L395677L
aS'CN(C)C1(CNCCC2CCOCC2)COc3cc(Cl)c(Cl)cc3OC1'
p2018
a(lp2019
g1081
aag7
(S'9.66'
p2020
tp2021
Rp2022
a(lp2023
L1960477L
aag12
aa(lp2024
L27072L
aS'CN(C)CCC=C1c2ccccc2CCc3ccccc13'
p2025
a(lp2026
g1081
ag1081
aag7
(S'7.925'
p2027
tp2028
Rp2029
a(lp2030
L7639162L
aL7639163L
aag12
aa(lp2031
L86466L
aS'OC(CCCN1CCCCC1)(c2ccccc2)c3ccccc3'
p2032
a(lp2033
g1081
ag1081
aag7
(S'6.945'
p2034
tp2035
Rp2036
a(lp2037
L7685717L
aL7685718L
aag12
aa(lp2038
L371447L
aS'O=C1NC(CN1C2CC3CCC(C2)N3Cc4ccccc4)(c5ccccc5)c6ccccc6'
p2039
a(lp2040
g1081
aag7
(S'8.39'
p2041
tp2042
Rp2043
a(lp2044
L1827020L
aag12
aa(lp2045
L328140L
aS'CCCCCCCCc1ccc(O)cc1'
p2046
a(lp2047
g1081
aag7
(S'5.39'
p2048
tp2049
Rp2050
a(lp2051
L7632938L
aag12
aa(lp2052
L371448L
aS'O=C1NC(CN1C2CCCN(Cc3ccccc3)CC2)(c4ccccc4)c5ccccc5'
p2053
a(lp2054
g1081
aag7
(S'9.02'
p2055
tp2056
Rp2057
a(lp2058
L1827019L
aag12
aa(lp2059
L111060L
aS'CC(C)(C)c1ccc(cc1)C(=O)CCCN2CCC(CC2)OC(c3ccccc3)c4ccccc4'
p2060
a(lp2061
g1081
ag1081
aag7
(S'6.525'
p2062
tp2063
Rp2064
a(lp2065
L7647776L
aL7647777L
aag12
aa(lp2066
L371449L
aS'Cc1cccc(CN2CCC(CC2)N3CC(NC3=O)(c4ccccc4)c5ccccc5)c1'
p2067
a(lp2068
g1081
aag7
(S'8.63'
p2069
tp2070
Rp2071
a(lp2072
L1827041L
aag12
aa(lp2073
L633306L
aS'C[C@H]1CNCC[C@]1(F)CNC(=O)c2c(F)cccc2c3cccc(Cl)c3'
p2074
a(lp2075
g1081
aag7
(S'5.30'
p2076
tp2077
Rp2078
a(lp2079
L3312839L
aag12
aa(lp2080
L486479L
aS'CN1CCC[C@@H]1[C@@H]2C[S+]([O-])[C@@](O2)(C3CCCCC3)c4ccccc4'
p2081
a(lp2082
g1081
ag1081
aag7
(S'7.04'
p2083
tp2084
Rp2085
a(lp2086
L2339248L
aL2354431L
aag12
aa(lp2087
L1385210L
aS'O=C(CCNC(=O)CC(c1ccccc1)(c2ccccc2)c3ccccc3)NCCC(=O)NC[C@H]4CCCN(CC5CCCCC5)C4'
p2088
a(lp2089
g1081
aag7
(S'9.12'
p2090
tp2091
Rp2092
a(lp2093
L1209564L
aag12
aa(lp2094
L486480L
aS'CN1CCC[C@H]1[C@H]2C[S+]([O-])[C@](O2)(C3CCCCC3)c4ccccc4'
p2095
a(lp2096
g1081
ag1081
aag7
(S'7.075'
p2097
tp2098
Rp2099
a(lp2100
L2338229L
aL2354430L
aag12
aa(lp2101
L887889L
aS'[Br-].CC(C)[N+]1(C)[C@@H]2CC[C@H]1C[C@H](C2)OC(=O)C(CO)c3ccccc3'
p2102
a(lp2103
g1081
ag1081
ag1081
aag7
(S'9.54'
p2104
tp2105
Rp2106
a(lp2107
L2709741L
aL7844971L
aL7845087L
aag12
aa(lp2108
L357799L
aS'OC(=O)C(F)(F)F.O=C(CC(c1ccccc1)(c2ccccc2)c3ccccc3)N4CCC[C@H]4C(=O)N5CCC[C@@H]5C(=O)NCCC6CCNCC6'
p2109
a(lp2110
g1081
aag7
(S'7.54'
p2111
tp2112
Rp2113
a(lp2114
L1763926L
aag12
aa(lp2115
L1051118L
aS'CN(C)CCC=C1c2ccccc2COc3ccccc13'
p2116
a(lp2117
g1081
ag1081
aag7
(S'7.49'
p2118
tp2119
Rp2120
a(lp2121
L7690153L
aL7690154L
aag12
aa(lp2122
L6643L
aS'Fc1ccc(cc1)[C@@H]2CCNC[C@H]2COc3ccc4OCOc4c3'
p2123
a(lp2124
g1081
ag1081
aag7
(S'7.085'
p2125
tp2126
Rp2127
a(lp2128
L7721250L
aL7721251L
aag12
aa(lp2129
L299508L
aS'C[C@@H]1CCCN1CCc2oc3ccc(cc3c2)C(=O)c4ccc(F)cc4'
p2130
a(lp2131
g1081
aag7
(S'6.69'
p2132
tp2133
Rp2134
a(lp2135
L10888581L
aag12
aa(lp2136
L1144233L
aS'C[C@H](Cc1cccc(CC(=O)NCCCc2ccc(O)c(c2)[C@H](CCN(C(C)C)C(C)C)c3ccccc3)c1)NC[C@H](O)c4cc(O)cc(O)c4'
p2137
a(lp2138
g1081
aag7
(S'9.40'
p2139
tp2140
Rp2141
a(lp2142
L6185843L
aag12
aa(lp2143
L119288L
aS'C(C(C1CCCCC1)C2CCCCC2)C3CCCCN3'
p2144
a(lp2145
g1081
ag1081
aag7
(S'5.845'
p2146
tp2147
Rp2148
a(lp2149
L7732155L
aL7732156L
aag12
aa(lp2150
L121340L
aS'[I-].C[N+]1(C)CCC(CC1)OC(=O)C(c2ccccc2)c3ccccc3'
p2151
a(lp2152
g1081
ag1081
ag1081
ag1081
ag1081
ag1081
ag1081
ag1081
ag1081
ag1081
ag1081
aag7
(S'9.23'
p2153
tp2154
Rp2155
a(lp2156
L1989738L
aL2573333L
aL2381352L
aL2381375L
aL5084363L
aL5166000L
aL13336191L
aL13340303L
aL13340368L
aL13342022L
aL13342094L
aag12
aa(lp2157
L54702L
aS'CCN(CC)CCOC(=O)C(C)(c1ccccc1)c2ccc(O)cc2'
p2158
a(lp2159
g1081
aag7
(S'7.28'
p2160
tp2161
Rp2162
a(lp2163
L13288579L
aag12
aa(lp2164
L1378840L
aS'[Br-].CC[N+](C)(CC)CCOC(=O)C(O)(c1ccccc1)c2ccccc2'
p2165
a(lp2166
g1081
aag7
(S'8.37'
p2167
tp2168
Rp2169
a(lp2170
L13288583L
aag12
aa(lp2171
L1265524L
aS'C[C@@](N1CCCCC1)(C(=O)O[C@H]2C[N+]3(CCOc4ccncc4)CCC2CC3)c5ccccc5'
p2172
a(lp2173
g1081
aag7
(S'8.30'
p2174
tp2175
Rp2176
a(lp2177
L7947379L
aag12
aa(lp2178
L66311L
aS'C(\\C=C\\c1ccccc1)N2CCN(CC2)C(c3ccccc3)c4ccccc4'
p2179
a(lp2180
g1081
ag1081
aag7
(S'6.455'
p2181
tp2182
Rp2183
a(lp2184
L7707980L
aL7707981L
aag12
aa(lp2185
L27185L
aS'CCCCc1oc2ccccc2c1C(=O)c3cc(I)c(OCCN(CC)CC)c(I)c3'
p2186
a(lp2187
g1081
ag1081
aag7
(S'5.83'
p2188
tp2189
Rp2190
a(lp2191
L7633662L
aL7633663L
aag12
aa(lp2192
L674754L
aS'OC(=O)CCC(=O)O.O=C(O[C@H]1CN2CCC1CC2)N3CCc4ccccc4[C@@H]3c5ccccc5'
p2193
a(lp2194
g1081
aag7
(S'6.88'
p2195
tp2196
Rp2197
a(lp2198
L6210492L
aag12
aa(lp2199
L674357L
aS'CN(C)CCOC(c1ccccc1)c2ccccc2.CN3C(=O)N(C)c4nc(Cl)[nH]c4C3=O'
p2200
a(lp2201
g1081
ag1081
aag7
(S'6.685'
p2202
tp2203
Rp2204
a(lp2205
L7707157L
aL7707158L
aag12
aa(lp2206
L573L
aS'CN1CCN2C(C1)c3ccccc3Cc4ccccc24'
p2207
a(lp2208
g1081
ag1081
aag7
(S'6.19'
p2209
tp2210
Rp2211
a(lp2212
L7751959L
aL7751960L
aag12
aa(lp2213
L135743L
aS'CN1C2CCCC1C(C2)OC(=O)c3ccccc3'
p2214
a(lp2215
g1081
aag7
(S'5.49'
p2216
tp2217
Rp2218
a(lp2219
L172112L
aag12
aa(lp2220
L1559107L
aS'CC(C)N(CCOC(=O)C(O)(c1ccccc1)c2ccccc2)C(C)C'
p2221
a(lp2222
g1081
aag7
(S'7.23'
p2223
tp2224
Rp2225
a(lp2226
L13288586L
aag12
aa(lp2227
L371268L
aS'C[N+]1(CC(=O)c2ccccc2)CCC(C1)N3CC(NC3=O)(c4ccccc4)c5ccccc5'
p2228
a(lp2229
g1081
aag7
(S'8.72'
p2230
tp2231
Rp2232
a(lp2233
L1826491L
aag12
aa(lp2234
L371273L
aS'C[N+]1(CC(=O)Nc2ccccc2)CCC(C1)N3CC(NC3=O)(c4ccccc4)c5ccccc5'
p2235
a(lp2236
g1081
aag7
(S'8.04'
p2237
tp2238
Rp2239
a(lp2240
L1826558L
aag12
aa(lp2241
L371274L
aS'C[N+]1(C[C@H]2O[C@@H]2c3ccccc3)CCC(C1)N4CC(NC4=O)(c5ccccc5)c6ccccc6'
p2242
a(lp2243
g1081
aag7
(S'8.18'
p2244
tp2245
Rp2246
a(lp2247
L1826489L
aag12
aa(lp2248
L223819L
aS'Clc1ccc(CSC(Cn2ccnc2)c3ccc(Cl)cc3Cl)cc1'
p2249
a(lp2250
g1081
ag1081
aag7
(S'5.805'
p2251
tp2252
Rp2253
a(lp2254
L7803468L
aL7803469L
aag12
aa(lp2255
L371280L
aS'O=C1NC(CN1C2CC[N+](CCOc3ccccc3)(CC#N)C2)(c4ccccc4)c5ccccc5'
p2256
a(lp2257
g1081
aag7
(S'6.27'
p2258
tp2259
Rp2260
a(lp2261
L1826488L
aag12
aa(lp2262
L371281L
aS'COCC[N+]1(CCOc2ccccc2)CCC(C1)N3CC(NC3=O)(c4ccccc4)c5ccccc5'
p2263
a(lp2264
g1081
aag7
(S'6.45'
p2265
tp2266
Rp2267
a(lp2268
L1826487L
aag12
aa(lp2269
L358158L
aS'O[C@@H]1C[C@H](N(C1)C(=O)CC(c2ccc(Cl)cc2)(c3ccc(Cl)cc3)c4ccc(Cl)cc4)C(=O)N5CCC[C@@H]5C(=O)NCC6CCNCC6'
p2270
a(lp2271
g1081
aag7
(S'9.41'
p2272
tp2273
Rp2274
a(lp2275
L1764003L
aag12
aa(lp2276
L371287L
aS'C[N+]1(CCOc2ccccc2)CC[C@H](C1)N3CC(NC3=O)(c4ccccc4)c5ccccc5'
p2277
a(lp2278
g1081
aag7
(S'8.98'
p2279
tp2280
Rp2281
a(lp2282
L1826486L
aag12
aa(lp2283
L371288L
aS'C[N+]1(CCOc2ccccc2)CC[C@@H](C1)N3CC(NC3=O)(c4ccccc4)c5ccccc5'
p2284
a(lp2285
g1081
aag7
(S'8.12'
p2286
tp2287
Rp2288
a(lp2289
L1826485L
aag12
aa(lp2290
L371295L
aS'C[N+]1(CCc2ccccc2)CC[C@H](C1)N3CC(NC3=O)(c4ccc(F)cc4)c5ccc(F)cc5'
p2291
a(lp2292
g1081
aag7
(S'9.12'
p2293
tp2294
Rp2295
a(lp2296
L1826484L
aag12
aa(lp2297
L371296L
aS'C[N+]1(CC(=O)c2ccccc2)CC[C@H](C1)N3CC(NC3=O)(c4ccc(F)cc4)c5ccc(F)cc5'
p2298
a(lp2299
g1081
aag7
(S'8.74'
p2300
tp2301
Rp2302
a(lp2303
L1826483L
aag12
aa(lp2304
L1604710L
aS'Cn1ccc(CCC[N+]23CCC(CC2)[C@H](C3)OC(=O)C4(CCCCCC4)C5=CC=CC5)n1'
p2305
a(lp2306
g1081
aag7
(S'9.30'
p2307
tp2308
Rp2309
a(lp2310
L13833270L
aag12
aa(lp2311
L371302L
aS'C[N+]1(CC(=O)c2cccc(F)c2)CC[C@H](C1)N3CC(NC3=O)(c4ccc(F)cc4)c5ccc(F)cc5'
p2312
a(lp2313
g1081
aag7
(S'8.52'
p2314
tp2315
Rp2316
a(lp2317
L1826482L
aag12
aa(lp2318
L371303L
aS'C[N+]1(CC(=O)c2ccsc2)CC[C@H](C1)N3CC(NC3=O)(c4ccc(F)cc4)c5ccc(F)cc5'
p2319
a(lp2320
g1081
aag7
(S'8.79'
p2321
tp2322
Rp2323
a(lp2324
L1826511L
aag12
aa(lp2325
L565867L
aS'[Br-].CC1(C(=O)O[C@H]2C[N+]3(CCCOc4ccccc4)CCC2CC3)c5ccccc5Oc6ccccc16'
p2326
a(lp2327
g1081
aag7
(S'9.62'
p2328
tp2329
Rp2330
a(lp2331
L2708943L
aag12
aa(lp2332
L565868L
aS'[Br-].O[C@](C(=O)O[C@H]1C[N+]2(CCCOc3ccccc3)CCC1CC2)(c4ccccc4)c5cccs5'
p2333
a(lp2334
g1081
aag7
(S'9.60'
p2335
tp2336
Rp2337
a(lp2338
L2708948L
aag12
aa(lp2339
L371309L
aS'C[N+]1(CC(=O)c2cccnc2)CC[C@H](C1)N3CC(NC3=O)(c4ccc(F)cc4)c5ccc(F)cc5'
p2340
a(lp2341
g1081
aag7
(S'7.64'
p2342
tp2343
Rp2344
a(lp2345
L1826510L
aag12
aa(lp2346
L371310L
aS'C[N+]1(CC(=O)c2ccccn2)CC[C@H](C1)N3CC(NC3=O)(c4ccc(F)cc4)c5ccc(F)cc5'
p2347
a(lp2348
g1081
aag7
(S'8.58'
p2349
tp2350
Rp2351
a(lp2352
L1826509L
aag12
aa(lp2353
L1147503L
aS'O=C(O[C@H]1CN2CCC1CC2)N(Cc3ccsc3)c4ccccc4'
p2354
a(lp2355
g1081
aag7
(S'9.00'
p2356
tp2357
Rp2358
a(lp2359
L6210479L
aag12
aa(lp2360
L1147504L
aS'CCCN(C(=O)O[C@H]1CN2CCC1CC2)c3ccccc3'
p2361
a(lp2362
g1081
aag7
(S'7.15'
p2363
tp2364
Rp2365
a(lp2366
L6210480L
aag12
aa(lp2367
L1147505L
aS'CCCCN(C(=O)O[C@H]1CN2CCC1CC2)c3ccccc3'
p2368
a(lp2369
g1081
aag7
(S'8.37'
p2370
tp2371
Rp2372
a(lp2373
L6210481L
aag12
aa(lp2374
L1147506L
aS'CCCCCN(C(=O)O[C@H]1CN2CCC1CC2)c3ccccc3'
p2375
a(lp2376
g1081
aag7
(S'8.77'
p2377
tp2378
Rp2379
a(lp2380
L6210482L
aag12
aa(lp2381
L371315L
aS'C[N+]1(Cc2ccccc2)CCC(CC1)N3CC(NC3=O)(c4ccccc4)c5ccccc5'
p2382
a(lp2383
g1081
aag7
(S'6.21'
p2384
tp2385
Rp2386
a(lp2387
L1826323L
aag12
aa(lp2388
L6772L
aS'CN1CCN(CC(=O)N2c3ccccc3C(=O)Nc4cccnc24)CC1'
p2389
a(lp2390
g1081
ag1081
ag1081
aag7
(S'6.80'
p2391
tp2392
Rp2393
a(lp2394
L2557051L
aL5084354L
aL12629833L
aag12
aa(lp2395
L1147509L
aS'O=C(O[C@H]1CN2CCC1CC2)N(Cc3cccs3)Cc4cccs4'
p2396
a(lp2397
g1081
aag7
(S'8.23'
p2398
tp2399
Rp2400
a(lp2401
L6210485L
aag12
aa(lp2402
L1147510L
aS'CCCCN(Cc1cccs1)C(=O)O[C@H]2CN3CCC2CC3'
p2403
a(lp2404
g1081
aag7
(S'7.75'
p2405
tp2406
Rp2407
a(lp2408
L6210486L
aag12
aa(lp2409
L1147511L
aS'Cc1ccc(cc1)N(Cc2ccccc2)C(=O)O[C@H]3CN4CCC3CC4'
p2410
a(lp2411
g1081
aag7
(S'7.13'
p2412
tp2413
Rp2414
a(lp2415
L6210487L
aag12
aa(lp2416
L565880L
aS'O[C@](C(=O)O[C@H]1CN2CCC1CC2)(c3ccccc3)c4cccs4'
p2417
a(lp2418
g1081
aag7
(S'9.51'
p2419
tp2420
Rp2421
a(lp2422
L2708924L
aag12
aa(lp2423
L371321L
aS'C[N+]1(C)CCC(CC1)N2CC(NC2=O)(c3ccccc3)c4ccccc4'
p2424
a(lp2425
g1081
aag7
(S'6.60'
p2426
tp2427
Rp2428
a(lp2429
L1826508L
aag12
aa(lp2430
L371322L
aS'C[N+]1(Cc2ccccc2)C3CCC1CC(C3)N4CC(NC4=O)(c5ccccc5)c6ccccc6'
p2431
a(lp2432
g1081
aag7
(S'5.60'
p2433
tp2434
Rp2435
a(lp2436
L1826507L
aag12
aa(lp2437
L1147515L
aS'Fc1cccc(c1)N(Cc2cc(F)c(F)c(F)c2)C(=O)O[C@H]3CN4CCC3CC4'
p2438
a(lp2439
g1081
aag7
(S'8.82'
p2440
tp2441
Rp2442
a(lp2443
L6210491L
aag12
aa(lp2444
L565884L
aS'[Br-].OC(C(=O)O[C@H]1C[N+]2(Cc3ccccc3)CCC1CC2)(c4cccs4)c5cccs5'
p2445
a(lp2446
g1081
aag7
(S'6.70'
p2447
tp2448
Rp2449
a(lp2450
L2708933L
aag12
aa(lp2451
L1147517L
aS'[Br-].O=C(O[C@H]1C[N+]2(CCc3ccccc3)CCC1CC2)N(Cc4ccccc4)c5ccccc5'
p2452
a(lp2453
g1081
aag7
(S'7.75'
p2454
tp2455
Rp2456
a(lp2457
L6210574L
aag12
aa(lp2458
L1147518L
aS'[Br-].O=C(O[C@H]1C[N+]2(CCCc3ccccc3)CCC1CC2)N(Cc4ccccc4)c5ccccc5'
p2459
a(lp2460
g1081
aag7
(S'9.52'
p2461
tp2462
Rp2463
a(lp2464
L6210575L
aag12
aa(lp2465
L242303L
aS'Clc1ccc(CO\\N=C(/Cn2ccnc2)\\c3ccc(Cl)cc3Cl)c(Cl)c1'
p2466
a(lp2467
g1081
ag1081
aag7
(S'5.68'
p2468
tp2469
Rp2470
a(lp2471
L7740331L
aL7740332L
aag12
aa(lp2472
L565888L
aS'[Br-].O[C@@](C1CCCC1)(C(=O)O[C@H]2C[N+]3(CCCOc4ccccc4)CCC2CC3)c5cccs5'
p2473
a(lp2474
g1081
aag7
(S'9.74'
p2475
tp2476
Rp2477
a(lp2478
L2708941L
aag12
aa(lp2479
L371330L
aS'C[N+]1(C)C2CCC1CC(C2)N3CC(NC3=O)(c4ccccc4)c5ccccc5'
p2480
a(lp2481
g1081
aag7
(S'6.82'
p2482
tp2483
Rp2484
a(lp2485
L1826506L
aag12
aa(lp2486
L371331L
aS'C[N+]1(Cc2ccccc2)CCC(C1)N3CC(NC3=O)(c4ccccc4)c5ccccc5'
p2487
a(lp2488
g1081
aag7
(S'6.14'
p2489
tp2490
Rp2491
a(lp2492
L1826505L
aag12
aa(lp2493
L135812L
aS'CN1C2CCCC1C(C2)OC(=O)OCC(Cl)(Cl)Cl'
p2494
a(lp2495
g1081
aag7
(S'5.17'
p2496
tp2497
Rp2498
a(lp2499
L181856L
aag12
aa(lp2500
L135813L
aS'CN1C2CCCC1C(C2)OC(=O)C3CCCCC3'
p2501
a(lp2502
g1081
aag7
(S'5.52'
p2503
tp2504
Rp2505
a(lp2506
L148930L
aag12
aa(lp2507
L371338L
aS'C[N+]1(C)CCC(C1)N2CC(NC2=O)(c3ccccc3)c4ccccc4'
p2508
a(lp2509
g1081
aag7
(S'6.51'
p2510
tp2511
Rp2512
a(lp2513
L1826504L
aag12
aa(lp2514
L371339L
aS'C[N+]1(Cc2ccccc2)CC[C@H](C1)N3CC(NC3=O)(c4ccccc4)c5ccccc5'
p2515
a(lp2516
g1081
aag7
(S'6.55'
p2517
tp2518
Rp2519
a(lp2520
L1826503L
aag12
aa(lp2521
L371346L
aS'C[N+]1(Cc2ccccc2)CC[C@@H](C1)N3CC(NC3=O)(c4ccccc4)c5ccccc5'
p2522
a(lp2523
g1081
aag7
(S'5.50'
p2524
tp2525
Rp2526
a(lp2527
L1826502L
aag12
aa(lp2528
L371347L
aS'C[N+](C)(CCN1CC(NC1=O)(c2ccccc2)c3ccccc3)Cc4ccccc4'
p2529
a(lp2530
g1081
aag7
(S'6.29'
p2531
tp2532
Rp2533
a(lp2534
L1826501L
aag12
aa(lp2535
L1178393L
aS'CCN\\C(=N/S(=O)(=O)c1cccc(Cl)c1)\\N2CC3(CCNCC3)C=N2'
p2536
a(lp2537
g1081
aag7
(S'5.00'
p2538
tp2539
Rp2540
a(lp2541
L6379529L
aag12
aa(lp2542
L371353L
aS'C[N+](C)(C)CCN1CC(NC1=O)(c2ccccc2)c3ccccc3'
p2543
a(lp2544
g1081
aag7
(S'6.47'
p2545
tp2546
Rp2547
a(lp2548
L1826500L
aag12
aa(lp2549
L1604719L
aS'O=C(C[N+]12CCC(CC1)[C@H](C2)OC(=O)C3(CCCCCC3)C4=CC=CC4)Nc5nncs5'
p2550
a(lp2551
g1081
aag7
(S'8.10'
p2552
tp2553
Rp2554
a(lp2555
L13833261L
aag12
aa(lp2556
L12957L
aS'CN1CCC(=C2c3ccccc3CC(=O)c4sccc24)CC1'
p2557
a(lp2558
g1081
ag1081
aag7
(S'5.995'
p2559
tp2560
Rp2561
a(lp2562
L7748456L
aL7748457L
aag12
aa(lp2563
L707231L
aS'CCCCN1CCC(COC(=O)c2cc(Cl)c(NC)c3OCCOc23)CC1'
p2564
a(lp2565
g1081
aag7
(S'6.08'
p2566
tp2567
Rp2568
a(lp2569
L3502788L
aag12
aa(lp2570
L371360L
aS'C[N+](C)(C)CCCN1CC(NC1=O)(c2ccccc2)c3ccccc3'
p2571
a(lp2572
g1081
aag7
(S'5.69'
p2573
tp2574
Rp2575
a(lp2576
L1826498L
aag12
aa(lp2577
L371361L
aS'[Br-].C[N+]1(CCc2ccccc2)CCC(C1)N3CC(NC3=O)(c4ccccc4)c5ccccc5'
p2578
a(lp2579
g1081
aag7
(S'9.17'
p2580
tp2581
Rp2582
a(lp2583
L1826497L
aag12
aa(lp2584
L1604721L
aS'O=C(C[N+]12CCC(CC1)[C@H](C2)OC(=O)C3(CCCCCC3)C4=CC=CC4)Nc5occn5'
p2585
a(lp2586
g1081
aag7
(S'7.90'
p2587
tp2588
Rp2589
a(lp2590
L13833259L
aag12
aa(lp2591
L371369L
aS'C[N+]1(CCCc2ccccc2)CCC(C1)N3CC(NC3=O)(c4ccccc4)c5ccccc5'
p2592
a(lp2593
g1081
aag7
(S'9.15'
p2594
tp2595
Rp2596
a(lp2597
L1826496L
aag12
aa(lp2598
L371370L
aS'C[N+]1(CCOc2ccccc2)CCC(C1)N3CC(NC3=O)(c4ccccc4)c5ccccc5'
p2599
a(lp2600
g1081
aag7
(S'8.72'
p2601
tp2602
Rp2603
a(lp2604
L1826495L
aag12
aa(lp2605
L371378L
aS'C[N+]1(CCOCc2ccccc2)CCC(C1)N3CC(NC3=O)(c4ccccc4)c5ccccc5'
p2606
a(lp2607
g1081
aag7
(S'8.17'
p2608
tp2609
Rp2610
a(lp2611
L1826494L
aag12
aa(lp2612
L371379L
aS'C[N+]1(CCCOc2ccccc2)CCC(C1)N3CC(NC3=O)(c4ccccc4)c5ccccc5'
p2613
a(lp2614
g1081
aag7
(S'8.75'
p2615
tp2616
Rp2617
a(lp2618
L1826493L
aag12
aa(lp2619
L371387L
aS'Fc1cccc(CN2CCC(CC2)N3CC(NC3=O)(c4cccs4)c5cccs5)c1'
p2620
a(lp2621
g1081
aag7
(S'8.56'
p2622
tp2623
Rp2624
a(lp2625
L1827030L
aag12
aa(lp2626
L1559230L
aS'[I-].CC[N+](CC)(CC)CCOC(=O)C(c1ccccc1)c2ccccc2'
p2627
a(lp2628
g1081
aag7
(S'9.27'
p2629
tp2630
Rp2631
a(lp2632
L13288577L
aag12
aa(lp2633
L1559231L
aS'[Br-].C[N+](C)(C)CCOC(=O)C(c1ccccc1)c2ccccc2'
p2634
a(lp2635
g1081
aag7
(S'6.42'
p2636
tp2637
Rp2638
a(lp2639
L13288592L
aag12
aa(lp2640
L1559232L
aS'[Br-].CC[N+](C)(CC)CCOC(=O)C(c1ccccc1)c2ccccc2'
p2641
a(lp2642
g1081
aag7
(S'6.57'
p2643
tp2644
Rp2645
a(lp2646
L13288591L
aag12
aa(lp2647
L371394L
aS'O=C1NC(CN1C2CCN(CCc3ccccc3)CC2)(c4ccccc4)c5ccccc5'
p2648
a(lp2649
g1081
aag7
(S'6.93'
p2650
tp2651
Rp2652
a(lp2653
L1827054L
aag12
aa(lp2654
L371395L
aS'O=C1NC(CN1C2CCN(CCCc3ccccc3)CC2)(c4ccccc4)c5ccccc5'
p2655
a(lp2656
g1081
aag7
(S'5.79'
p2657
tp2658
Rp2659
a(lp2660
L1827053L
aag12
aa(lp2661
L1559239L
aS'CC[C@H](C)C(C(=O)OCCCN(CC)CC)c1ccccc1'
p2662
a(lp2663
g1081
aag7
(S'8.22'
p2664
tp2665
Rp2666
a(lp2667
L13288587L
aag12
aa(lp2668
L371400L
aS'O=C1NC(CN1C2CCN(CCOc3ccccc3)CC2)(c4ccccc4)c5ccccc5'
p2669
a(lp2670
g1081
aag7
(S'6.64'
p2671
tp2672
Rp2673
a(lp2674
L1827052L
aag12
aa(lp2675
L371401L
aS'O=C1NC(CN1C2CCN(Cc3cccnc3)CC2)(c4ccccc4)c5ccccc5'
p2676
a(lp2677
g1081
aag7
(S'5.95'
p2678
tp2679
Rp2680
a(lp2681
L1827051L
aag12
aa(lp2682
L371404L
aS'O=C1NC(CN1C2CCN(Cc3cccs3)CC2)(c4ccccc4)c5ccccc5'
p2683
a(lp2684
g1081
aag7
(S'7.87'
p2685
tp2686
Rp2687
a(lp2688
L1827050L
aag12
aa(lp2689
L371405L
aS'O=C1NC(CN1C2CCN(Cc3c[nH]cn3)CC2)(c4ccccc4)c5ccccc5'
p2690
a(lp2691
g1081
aag7
(S'5.98'
p2692
tp2693
Rp2694
a(lp2695
L1827049L
aag12
aa(lp2696
L1147598L
aS'[Br-].O=C(O[C@H]1C[N+]2(CCOc3ccccc3)CCC1CC2)N(Cc4ccccc4)c5ccccc5'
p2697
a(lp2698
g1081
aag7
(S'9.00'
p2699
tp2700
Rp2701
a(lp2702
L6210577L
aag12
aa(lp2703
L1147599L
aS'[Br-].C[N+]12CCC(CC1)[C@H](C2)OC(=O)N(Cc3cccs3)c4ccccc4'
p2704
a(lp2705
g1081
aag7
(S'7.73'
p2706
tp2707
Rp2708
a(lp2709
L6210578L
aag12
aa(lp2710
L1147600L
aS'[Br-].O=C(O[C@H]1C[N+]2(CCCc3cccs3)CCC1CC2)N(Cc4cccs4)c5ccccc5'
p2711
a(lp2712
g1081
aag7
(S'9.30'
p2713
tp2714
Rp2715
a(lp2716
L6210579L
aag12
aa(lp2717
L371409L
aS'Clc1ccccc1CN2CCC(CC2)N3CC(NC3=O)(c4ccccc4)c5ccccc5'
p2718
a(lp2719
g1081
aag7
(S'7.86'
p2720
tp2721
Rp2722
a(lp2723
L1827048L
aag12
aa(lp2724
L371410L
aS'Clc1cccc(CN2CCC(CC2)N3CC(NC3=O)(c4ccccc4)c5ccccc5)c1'
p2725
a(lp2726
g1081
aag7
(S'8.50'
p2727
tp2728
Rp2729
a(lp2730
L1827047L
aag12
aa(lp2731
L1147603L
aS'[Br-].O=C(O[C@H]1C[N+]2(CCOc3ccccc3)CCC1CC2)N(Cc4ccsc4)c5ccccc5'
p2732
a(lp2733
g1081
aag7
(S'9.70'
p2734
tp2735
Rp2736
a(lp2737
L6210582L
aag12
aa(lp2738
L1147604L
aS'[Br-].CCCCN(C(=O)O[C@H]1C[N+]2(CCc3ccccc3)CCC1CC2)c4ccccc4'
p2739
a(lp2740
g1081
aag7
(S'7.72'
p2741
tp2742
Rp2743
a(lp2744
L6210583L
aag12
aa(lp2745
L371413L
aS'O=C1NC(C(=O)N1C2CCN(Cc3ccccc3)CC2)(c4ccccc4)c5ccccc5'
p2746
a(lp2747
g1081
aag7
(S'5.66'
p2748
tp2749
Rp2750
a(lp2751
L1827001L
aag12
aa(lp2752
L371414L
aS'O=C1NC(CN1C2CCN(Cc3ccccc3)CC2)(c4ccccc4)c5ccccc5'
p2753
a(lp2754
g1081
aag7
(S'8.72'
p2755
tp2756
Rp2757
a(lp2758
L1827006L
aag12
aa(lp2759
L1147607L
aS'[Br-].CCCCN(C(=O)O[C@H]1C[N+]2(CCOc3ccccc3)CCC1CC2)c4ccccc4'
p2760
a(lp2761
g1081
aag7
(S'9.10'
p2762
tp2763
Rp2764
a(lp2765
L6210586L
aag12
aa(lp2766
L1147608L
aS'[Br-].Cc1cccc(c1)N(Cc2cc(F)c(F)cc2F)C(=O)O[C@H]3C[N+]4(CCCc5ccccc5)CCC3CC4'
p2767
a(lp2768
g1081
aag7
(S'9.05'
p2769
tp2770
Rp2771
a(lp2772
L6210587L
aag12
aa(lp2773
L1147609L
aS'[Br-].Cc1cccc(c1)N(Cc2cc(F)c(F)cc2F)C(=O)O[C@H]3C[N+]4(CCOc5ccccc5)CCC3CC4'
p2774
a(lp2775
g1081
aag7
(S'8.92'
p2776
tp2777
Rp2778
a(lp2779
L6210588L
aag12
aa(lp2780
L1147610L
aS'[Br-].Fc1cccc(c1)N(Cc2cc(F)c(F)c(F)c2)C(=O)O[C@H]3C[N+]4(CCOc5ccccc5)CCC3CC4'
p2781
a(lp2782
g1081
aag7
(S'9.22'
p2783
tp2784
Rp2785
a(lp2786
L6210589L
aag12
aa(lp2787
L715483L
aS'Clc1ccc(CN2CCC3(CC2)CN(CCO3)C(=O)c4occc4)cc1'
p2788
a(lp2789
g1081
aag7
(S'7.20'
p2790
tp2791
Rp2792
a(lp2793
L3591695L
aag12
aa(lp2794
L715484L
aS'Clc1ccc(CN2CCC3(CC2)CN(CCO3)C(=O)c4cccs4)cc1'
p2795
a(lp2796
g1081
aag7
(S'7.20'
p2797
tp2798
Rp2799
a(lp2800
L3591696L
aag12
aa(lp2801
L1604842L
aS'O=C(C[N+]12CCC(CC1)[C@H](C2)OC(=O)C3(CCCCCC3)C4=CC=CC4)Nc5ccncc5'
p2802
a(lp2803
g1081
aag7
(S'8.60'
p2804
tp2805
Rp2806
a(lp2807
L13833254L
aag12
aa(lp2808
L371427L
aS'Clc1ccc(CN2CCC(CC2)N3CC(NC3=O)(c4ccccc4)c5ccccc5)cc1'
p2809
a(lp2810
g1081
aag7
(S'7.78'
p2811
tp2812
Rp2813
a(lp2814
L1827046L
aag12
aa(lp2815
L371432L
aS'CN1C(=O)N(CC1(c2ccccc2)c3ccccc3)C4CCN(Cc5ccccc5)CC4'
p2816
a(lp2817
g1081
aag7
(S'7.73'
p2818
tp2819
Rp2820
a(lp2821
L1827005L
aag12
aa(lp2822
L371433L
aS'O=C1OC(CN1C2CCN(Cc3ccccc3)CC2)(c4ccccc4)c5ccccc5'
p2823
a(lp2824
g1081
aag7
(S'7.77'
p2825
tp2826
Rp2827
a(lp2828
L1827004L
aag12
aa(lp2829
L371434L
aS'COc1ccccc1CN2CCC(CC2)N3CC(NC3=O)(c4ccccc4)c5ccccc5'
p2830
a(lp2831
g1081
aag7
(S'7.08'
p2832
tp2833
Rp2834
a(lp2835
L1827045L
aag12
aa(lp2836
L371435L
aS'COc1cccc(CN2CCC(CC2)N3CC(NC3=O)(c4ccccc4)c5ccccc5)c1'
p2837
a(lp2838
g1081
aag7
(S'8.06'
p2839
tp2840
Rp2841
a(lp2842
L1827044L
aag12
aa(lp2843
L371439L
aS'O=C1N(Cc2ccccc2)C(CN1C3CCN(Cc4ccccc4)CC3)c5ccccc5'
p2844
a(lp2845
g1081
aag7
(S'7.57'
p2846
tp2847
Rp2848
a(lp2849
L1827003L
aag12
aa(lp2850
L371440L
aS'O=C1NC(CN1C2CCCN(Cc3ccccc3)C2)(c4ccccc4)c5ccccc5'
p2851
a(lp2852
g1081
aag7
(S'5.61'
p2853
tp2854
Rp2855
a(lp2856
L1827021L
aag12
aa(lp2857
L371441L
aS'COc1ccc(CN2CCC(CC2)N3CC(NC3=O)(c4ccccc4)c5ccccc5)cc1'
p2858
a(lp2859
g1081
aag7
(S'7.59'
p2860
tp2861
Rp2862
a(lp2863
L1827043L
aag12
aa(lp2864
L371442L
aS'Oc1cccc(CN2CCC(CC2)N3CC(NC3=O)(c4ccccc4)c5ccccc5)c1'
p2865
a(lp2866
g1081
aag7
(S'8.12'
p2867
tp2868
Rp2869
a(lp2870
L1827042L
aag12
aa(lp2871
L1385206L
aS'O=C(CCNC(=O)CNC(=O)CC(c1ccccc1)(c2ccccc2)c3ccccc3)NC[C@H]4CCCN(CC5CCCCC5)C4'
p2872
a(lp2873
g1081
aag7
(S'9.51'
p2874
tp2875
Rp2876
a(lp2877
L1190149L
aag12
aa(lp2878
L1385207L
aS'O=C(CCCCCNC(=O)CC(c1ccccc1)(c2ccccc2)c3ccccc3)NC[C@H]4CCCN(CC5CCCCC5)C4'
p2879
a(lp2880
g1081
aag7
(S'9.00'
p2881
tp2882
Rp2883
a(lp2884
L1197663L
aag12
aa(lp2885
L1385208L
aS'O=C(CC(c1ccccc1)(c2ccccc2)c3ccccc3)N4CCC[C@H]4C(=O)N5CCC[C@@H]5C(=O)NC[C@H]6CCCN(CC7CCCCC7)C6'
p2886
a(lp2887
g1081
aag7
(S'9.60'
p2888
tp2889
Rp2890
a(lp2891
L1191340L
aag12
aa(lp2892
L1385209L
aS'O=C(CCNC(=O)[C@@H]1CCCN1C(=O)CC(c2ccccc2)(c3ccccc3)c4ccccc4)NC[C@H]5CCCN(CC6CCCCC6)C5'
p2893
a(lp2894
g1081
aag7
(S'9.33'
p2895
tp2896
Rp2897
a(lp2898
L1221431L
aag12
aa(lp2899
L371450L
aS'Nc1cccc(CN2CCC(CC2)N3CC(NC3=O)(c4ccccc4)c5ccccc5)c1'
p2900
a(lp2901
g1081
aag7
(S'8.10'
p2902
tp2903
Rp2904
a(lp2905
L1827040L
aag12
aa(lp2906
L674555L
aS'CCN(Cc1ccncc1)C(=O)C(CO)c2ccccc2'
p2907
a(lp2908
g1081
ag1081
aag7
(S'7.185'
p2909
tp2910
Rp2911
a(lp2912
L7793576L
aL7793577L
aag12
aa(lp2913
L1385212L
aS'O=C(CNC(=O)[C@@H]1CCCN1C(=O)CC(c2ccccc2)(c3ccccc3)c4ccccc4)NC[C@H]5CCCN(CC6CCCCC6)C5'
p2914
a(lp2915
g1081
aag7
(S'8.66'
p2916
tp2917
Rp2918
a(lp2919
L1193792L
aag12
aa(lp2920
L11005L
aS'CN1CCC(=C2c3ccccc3C=Cc4ccccc24)CC1'
p2921
a(lp2922
g1081
ag1081
aag7
(S'7.68'
p2923
tp2924
Rp2925
a(lp2926
L7710839L
aL7710840L
aag12
aa(lp2927
L371454L
aS'O=C1NC(CN1[C@@H]2CCN(Cc3ccccc3)C2)(c4ccccc4)c5ccccc5'
p2928
a(lp2929
g1081
aag7
(S'7.88'
p2930
tp2931
Rp2932
a(lp2933
L1827018L
aag12
aa(lp2934
L371455L
aS'O=C1NC(CN1[C@H]2CCN(Cc3ccccc3)C2)(c4ccccc4)c5ccccc5'
p2935
a(lp2936
g1081
aag7
(S'7.09'
p2937
tp2938
Rp2939
a(lp2940
L1827017L
aag12
aa(lp2941
L371456L
aS'FC(F)(F)Oc1cccc(CN2CCC(CC2)N3CC(NC3=O)(c4ccccc4)c5ccccc5)c1'
p2942
a(lp2943
g1081
aag7
(S'5.69'
p2944
tp2945
Rp2946
a(lp2947
L1827039L
aag12
aa(lp2948
L371457L
aS'O=C1NC(CN1C2CCN(Cc3cccc(c3)C#N)CC2)(c4ccccc4)c5ccccc5'
p2949
a(lp2950
g1081
aag7
(S'6.38'
p2951
tp2952
Rp2953
a(lp2954
L1827038L
aag12
aa(lp2955
L469763L
aS'CN1CCC[C@@H]1CCO[C@](C)(c2ccccc2)c3ccc(Cl)cc3'
p2956
a(lp2957
g1081
ag1081
aag7
(S'7.745'
p2958
tp2959
Rp2960
a(lp2961
L7680288L
aL7680289L
aag12
aa(lp2962
L371460L
aS'Fc1ccc(cc1)C2(CN(C3CCN(Cc4ccccc4)CC3)C(=O)N2)c5ccc(F)cc5'
p2963
a(lp2964
g1081
aag7
(S'8.55'
p2965
tp2966
Rp2967
a(lp2968
L1827062L
aag12
aa(lp2969
L371461L
aS'COc1ccc(cc1)C2(CN(C3CCN(Cc4ccccc4)CC3)C(=O)N2)c5ccc(OC)cc5'
p2970
a(lp2971
g1081
aag7
(S'6.94'
p2972
tp2973
Rp2974
a(lp2975
L1827061L
aag12
aa(lp2976
L568070L
aS'C[C@@H](c1ccccn1)c2c(CCN(C)C)oc3ccccc23'
p2977
a(lp2978
g1081
aag7
(S'7.12'
p2979
tp2980
Rp2981
a(lp2982
L2703859L
aag12
aa(lp2983
L371463L
aS'FC(F)(F)c1cccc(CN2CCC(CC2)N3CC(NC3=O)(c4ccccc4)c5ccccc5)c1'
p2984
a(lp2985
g1081
aag7
(S'7.27'
p2986
tp2987
Rp2988
a(lp2989
L1827037L
aag12
aa(lp2990
L494347L
aS'CC(=O)N1CCCC(C1)(C2CCN(Cc3ccc(Br)cc3)CC2)c4ccccc4'
p2991
a(lp2992
g1081
aag7
(S'5.52'
p2993
tp2994
Rp2995
a(lp2996
L2252074L
aag12
aa(lp2997
L674584L
aS'CC[C@H](C)[C@H]1O[C@]2(CC[C@@H]1C)C[C@@H]3C[C@@H](C\\C=C(/C)\\[C@@H](O[C@H]4C[C@H](OC)[C@@H](O[C@H]5C[C@H](OC)[C@@H](O)[C@H](C)O5)[C@H](C)O4)[C@@H](C)\\C=C\\C=C\\6/CO[C@@H]7[C@H](O)C(=C[C@@H](C(=O)O3)[C@]67O)C)O2.CO[C@H]8C[C@H](O[C@H]9[C@H](C)O[C@H](C[C@@H]9OC)O[C@H]%10[C@@H](C)\\C=C\\C=C\\%11/CO[C@@H]%12[C@H](O)C(=C[C@@H](C(=O)O[C@H]%13C[C@@H](C\\C=C\\%10/C)O[C@@]%14(CC[C@H](C)[C@H](O%14)C(C)C)C%13)[C@]%11%12O)C)O[C@@H](C)[C@@H]8O'
p2998
a(lp2999
g1081
ag1081
aag7
(S'5.555'
p3000
tp3001
Rp3002
a(lp3003
L7757006L
aL7757007L
aag12
aa(lp3004
L371481L
aS'O=C1NC(CN1C2CCN(Cc3ccccc3)CC2)(C4CCCCC4)c5ccccc5'
p3005
a(lp3006
g1081
aag7
(S'8.59'
p3007
tp3008
Rp3009
a(lp3010
L1827060L
aag12
aa(lp3011
L1605561L
aS'O=C(O[C@H]1C[N+]2(Cc3ccccc3)CCC1CC2)C4(CCCCCC4)C5=CC=CC5'
p3012
a(lp3013
g1081
aag7
(S'7.40'
p3014
tp3015
Rp3016
a(lp3017
L13833285L
aag12
aa(lp3018
L371483L
aS'Fc1cccc(CN2CCC(CC2)N3CC(NC3=O)(c4ccccc4)c5ccccc5)c1'
p3019
a(lp3020
g1081
aag7
(S'8.36'
p3021
tp3022
Rp3023
a(lp3024
L1827036L
aag12
aa(lp3025
L371484L
aS'Fc1ccc(cc1)C2(CN(C3CCN(Cc4cccc(Cl)c4)CC3)C(=O)N2)c5ccc(F)cc5'
p3026
a(lp3027
g1081
aag7
(S'8.17'
p3028
tp3029
Rp3030
a(lp3031
L1827035L
aag12
aa(lp3032
L371488L
aS'O=C1NC(CN1C2CCN(Cc3ccccc3)CC2)(c4cccs4)c5cccs5'
p3033
a(lp3034
g1081
aag7
(S'8.57'
p3035
tp3036
Rp3037
a(lp3038
L1827059L
aag12
aa(lp3039
L371489L
aS'O=C1NC(Cc2ccccc2)(Cc3ccccc3)CN1C4CCN(Cc5ccccc5)CC4'
p3040
a(lp3041
g1081
aag7
(S'6.82'
p3042
tp3043
Rp3044
a(lp3045
L1827058L
aag12
aa(lp3046
L371491L
aS'Fc1ccc(cc1)C2(CN(C3CCN(Cc4cccc(F)c4)CC3)C(=O)N2)c5ccc(F)cc5'
p3047
a(lp3048
g1081
aag7
(S'8.32'
p3049
tp3050
Rp3051
a(lp3052
L1827034L
aag12
aa(lp3053
L371497L
aS'CN1CCC(CC1)N2CC(NC2=O)(c3ccccc3)c4ccccc4'
p3054
a(lp3055
g1081
aag7
(S'6.03'
p3056
tp3057
Rp3058
a(lp3059
L1827057L
aag12
aa(lp3060
L371498L
aS'Cc1cccc(CN2CCC(CC2)N3CC(NC3=O)(C4CCCCC4)c5ccccc5)c1'
p3061
a(lp3062
g1081
aag7
(S'8.34'
p3063
tp3064
Rp3065
a(lp3066
L1827033L
aag12
aa(lp3067
L371499L
aS'Clc1cccc(CN2CCC(CC2)N3CC(NC3=O)(C4CCCCC4)c5ccccc5)c1'
p3068
a(lp3069
g1081
aag7
(S'8.18'
p3070
tp3071
Rp3072
a(lp3073
L1827032L
aag12
aa(lp3074
L371504L
aS'O=C1NC(CN1C2CCN(CC2)c3ccccc3)(c4ccccc4)c5ccccc5'
p3075
a(lp3076
g1081
aag7
(S'7.00'
p3077
tp3078
Rp3079
a(lp3080
L1827056L
aag12
aa(lp3081
L371505L
aS'O=C1NC(CN1C2CCN(CC3CCCCC3)CC2)(c4ccccc4)c5ccccc5'
p3082
a(lp3083
g1081
aag7
(S'6.45'
p3084
tp3085
Rp3086
a(lp3087
L1827055L
aag12
aa(lp3088
L92984L
aS'CCN(CC)CCOc1ccc(cc1)\\C(=C(\\Cl)/c2ccccc2)\\c3ccccc3'
p3089
a(lp3090
g1081
ag1081
aag7
(S'6.02'
p3091
tp3092
Rp3093
a(lp3094
L7706090L
aL7706091L
aag12
aa(lp3095
L716596L
aS'Clc1cccc(CN2CCC3(CC2)CCN(CC3)C(=O)c4ccccc4)c1'
p3096
a(lp3097
g1081
aag7
(S'7.00'
p3098
tp3099
Rp3100
a(lp3101
L3591685L
aag12
aa(lp3102
L371515L
aS'Cc1cccc(CN2CCC(CC2)N3CC(NC3=O)(c4cccs4)c5cccs5)c1'
p3103
a(lp3104
g1081
aag7
(S'8.76'
p3105
tp3106
Rp3107
a(lp3108
L1827031L
aag12
aa(lp3109
L1605429L
aS'Clc1ccc(NC(=O)C[N+]23CCC(CC2)[C@H](C3)OC(=O)C4(CCCCCC4)C5=CC=CC5)nn1'
p3110
a(lp3111
g1081
aag7
(S'9.70'
p3112
tp3113
Rp3114
a(lp3115
L13833238L
aag12
aa(lp3116
L396101L
aS'CN1CCCC(CN2c3ccccc3Sc4ccccc24)C1'
p3117
a(lp3118
g1081
ag1081
aag7
(S'7.06'
p3119
tp3120
Rp3121
a(lp3122
L7770701L
aL7770702L
aag12
aa(lp3123
L6968L
aS'CC\\C(=C(/c1ccccc1)\\c2ccc(OCCN(C)C)cc2)\\c3ccccc3'
p3124
a(lp3125
g1081
ag1081
aag7
(S'5.865'
p3126
tp3127
Rp3128
a(lp3129
L7803810L
aL7803811L
aag12
aa(lp3130
L715605L
aS'OCc1oc(cc1)C(=O)N2CCOC3(CCN(Cc4ccc(Cl)cc4)CC3)C2'
p3131
a(lp3132
g1081
aag7
(S'7.00'
p3133
tp3134
Rp3135
a(lp3136
L3591697L
aag12
aa(lp3137
L715606L
aS'Clc1ccc(CN2CCC3(CC2)CN(CCO3)C(=O)c4cocc4)cc1'
p3138
a(lp3139
g1081
aag7
(S'6.90'
p3140
tp3141
Rp3142
a(lp3143
L3591698L
aag12
aa(lp3144
L146267L
aS'Cc1oc(C[N+](C)(C)C)cc1'
p3145
a(lp3146
g1081
aag7
(S'5.21'
p3147
tp3148
Rp3149
a(lp3150
L2446356L
aag12
aa(lp3151
L860L
aS'CC\\C(=C(\\CC)/c1ccc(O)cc1)\\c2ccc(O)cc2'
p3152
a(lp3153
g1081
aag7
(S'5.41'
p3154
tp3155
Rp3156
a(lp3157
L7704781L
aag12
aa(lp3158
L1605434L
aS'O=C(C[N+]12CCC(CC1)[C@H](C2)OC(=O)C3(CCCCCC3)C4=CC=CC4)NCCCNC(=O)c5ccccn5'
p3159
a(lp3160
g1081
aag7
(S'8.20'
p3161
tp3162
Rp3163
a(lp3164
L13833233L
aag12
aa(lp3165
L187230L
aS'CN(CCCCCCCCN(C)CCCCCCN(CC(=O)N1c2ccccc2C(=O)Nc3cccnc13)CC(=O)N4c5ccccc5C(=O)Nc6cccnc46)CCCCCCNCC(=O)N7c8ccccc8C(=O)Nc9cccnc79'
p3166
a(lp3167
g1081
ag1081
aag7
(S'7.115'
p3168
tp3169
Rp3170
a(lp3171
L2557026L
aL5084364L
aag12
aa(lp3172
L482144L
aS'CC[C@@H](C)[C@@H](O)C(=O)OC[C@H]1CCN2CCC[C@@H]12'
p3173
a(lp3174
g1081
aag7
(S'6.90'
p3175
tp3176
Rp3177
a(lp3178
L2555318L
aag12
aa(lp3179
L1250448L
aS'CC(C)(CCC(C(=O)N)(c1ccccc1)c2ccccc2)N3CC[C@H](C3)Oc4cccc(O)c4'
p3180
a(lp3181
g1081
aag7
(S'9.70'
p3182
tp3183
Rp3184
a(lp3185
L7845082L
aag12
aa(lp3186
L334691L
aS'CO[C@@]1(CN2CCC1CC2)C#CC(O)(c3ccc(F)cc3)c4ccc(F)cc4'
p3187
a(lp3188
g1081
aag7
(S'9.00'
p3189
tp3190
Rp3191
a(lp3192
L1666553L
aag12
aa(lp3193
L564074L
aS'[Br-].OC(C(=O)O[C@H]1C[N+]2(CCCOc3ccccc3)CCC1CC2)(c4ccsc4)c5ccsc5'
p3194
a(lp3195
g1081
aag7
(S'9.62'
p3196
tp3197
Rp3198
a(lp3199
L2708946L
aag12
aa(lp3200
L1051499L
aS'[3H]C([3H])([3H])[N+]1(C)[C@@H]2C[C@H](C[C@H]1[C@@H]3O[C@H]23)OC(=O)[C@H](CO)c4ccccc4'
p3201
a(lp3202
g1081
aag7
(S'9.60'
p3203
tp3204
Rp3205
a(lp3206
L5084188L
aag12
aa(lp3207
L342893L
aS'Cc1c(NC2CC2)nc(nc1N3CCC(CO)CC3)C4CC4'
p3208
a(lp3209
g1081
aag7
(S'6.30'
p3210
tp3211
Rp3212
a(lp3213
L1702722L
aag12
aa(lp3214
L342894L
aS'Cc1c(NC2CC2)nc(nc1N3CCC(CC3)C(F)(F)F)C4CC4'
p3215
a(lp3216
g1081
aag7
(S'7.00'
p3217
tp3218
Rp3219
a(lp3220
L1702721L
aag12
aa(lp3221
L342895L
aS'Cc1c(NC2CC2)nc(nc1N3CCC(F)(F)CC3)C4CC4'
p3222
a(lp3223
g1081
aag7
(S'7.30'
p3224
tp3225
Rp3226
a(lp3227
L1702720L
aag12
aa(lp3228
L564081L
aS'O=C(O[C@H]1CN2CCC1CC2)C3c4ccccc4CCc5ccccc35'
p3229
a(lp3230
g1081
aag7
(S'7.03'
p3231
tp3232
Rp3233
a(lp3234
L2708920L
aag12
aa(lp3235
L564083L
aS'OC(C(=O)O[C@H]1CN2CCC1CC2)(c3cccs3)c4cccs4'
p3236
a(lp3237
g1081
aag7
(S'9.64'
p3238
tp3239
Rp3240
a(lp3241
L2708922L
aag12
aa(lp3242
L564086L
aS'[Br-].OC(C(=O)O[C@H]1C[N+]2(CCCOc3ccccc3)CCC1CC2)(c4ccccc4)c5ccccc5'
p3243
a(lp3244
g1081
aag7
(S'9.21'
p3245
tp3246
Rp3247
a(lp3248
L2708940L
aag12
aa(lp3249
L1605439L
aS'O=C(O[C@H]1C[N+]2(Cc3csc(n3)c4ccccc4)CCC1CC2)C5(CCCCCC5)C6=CC=CC6'
p3250
a(lp3251
g1081
aag7
(S'7.60'
p3252
tp3253
Rp3254
a(lp3255
L13833228L
aag12
aa(lp3256
L1051518L
aS'O=C(CCNS(=O)(=O)c1cccc2nsnc12)N3CCN(CC3)c4ccncc4'
p3257
a(lp3258
g1081
aag7
(S'6.10'
p3259
tp3260
Rp3261
a(lp3262
L5084355L
aag12
aa(lp3263
L707462L
aS'CCCCN1CCC(COC(=O)c2ccc(N)c(OC)c2)CC1'
p3264
a(lp3265
g1081
aag7
(S'5.96'
p3266
tp3267
Rp3268
a(lp3269
L3502832L
aag12
aa(lp3270
L357269L
aS'CN1CCC(CNC(=O)[C@H]2CCCN2C(=O)[C@@H]3C[C@@H](O)CN3C(=O)CC(c4ccc(F)cc4)(c5ccc(F)cc5)c6ccc(F)cc6)CC1'
p3271
a(lp3272
g1081
aag7
(S'9.29'
p3273
tp3274
Rp3275
a(lp3276
L1763998L
aag12
aa(lp3277
L357270L
aS'CCN1CCC(CNC(=O)[C@H]2CCCN2C(=O)[C@@H]3C[C@@H](O)CN3C(=O)CC(c4ccc(F)cc4)(c5ccc(F)cc5)c6ccc(F)cc6)CC1'
p3278
a(lp3279
g1081
aag7
(S'9.04'
p3280
tp3281
Rp3282
a(lp3283
L1763997L
aag12
aa(lp3284
L357271L
aS'O[C@@H]1C[C@H](N(C1)C(=O)CC(c2ccc(F)cc2)(c3ccc(F)cc3)c4ccc(F)cc4)C(=O)N5CCC[C@@H]5C(=O)NCC6CCN(CC7CC7)CC6'
p3285
a(lp3286
g1081
aag7
(S'9.77'
p3287
tp3288
Rp3289
a(lp3290
L1763996L
aag12
aa(lp3291
L27546L
aS'CN1CCN(CC1)C(c2ccccc2)c3ccccc3'
p3292
a(lp3293
g1081
ag1081
aag7
(S'6.465'
p3294
tp3295
Rp3296
a(lp3297
L7693486L
aL7693487L
aag12
aa(lp3298
L654235L
aS'CCN1CCC(=C(C1)C(=O)OCCc2ccc(C)cc2)c3ccccc3'
p3299
a(lp3300
g1081
aag7
(S'7.06'
p3301
tp3302
Rp3303
a(lp3304
L12629811L
aag12
aa(lp3305
L553887L
aS'[I-].C[N+](C)(C)C[C@@H]1C[S+]([O-])[C@](O1)(C2CCCCC2)c3ccccc3'
p3306
a(lp3307
g1081
aag7
(S'7.46'
p3308
tp3309
Rp3310
a(lp3311
L2354576L
aag12
aa(lp3312
L394145L
aS'Cc1c(nc(nc1N2CCCCCC2)C3CC3)N4CCCC4'
p3313
a(lp3314
g1081
aag7
(S'8.89'
p3315
tp3316
Rp3317
a(lp3318
L1953895L
aag12
aa(lp3319
L418411L
aS'OC(CCN1CCCCC1)(C2CCCCC2)c3ccccc3'
p3320
a(lp3321
g1081
ag1081
aag7
(S'8.16'
p3322
tp3323
Rp3324
a(lp3325
L7782833L
aL7782834L
aag12
aa(lp3326
L394148L
aS'Cc1c(nc(nc1N2CCCCCC2)C3CC3)N4CCCCC4'
p3327
a(lp3328
g1081
aag7
(S'7.10'
p3329
tp3330
Rp3331
a(lp3332
L1953894L
aag12
aa(lp3333
L394150L
aS'Cc1c(nc(nc1N2CCCCCC2)C3CC3)N4CCCCCC4'
p3334
a(lp3335
g1081
aag7
(S'7.40'
p3336
tp3337
Rp3338
a(lp3339
L1953893L
aag12
aa(lp3340
L633771L
aS'Clc1cccc(c1)c2ccccc2C(=O)NCC3CCNCC3'
p3341
a(lp3342
g1081
aag7
(S'5.40'
p3343
tp3344
Rp3345
a(lp3346
L3316125L
aag12
aa(lp3347
L394157L
aS'CC1CN(C1)c2nc(nc(N3CCCCCC3)c2C)C4CC4'
p3348
a(lp3349
g1081
aag7
(S'7.70'
p3350
tp3351
Rp3352
a(lp3353
L1953892L
aag12
aa(lp3354
L394158L
aS'Cc1c(nc(nc1N2CC(C)(C)C2)C3CC3)N4CCCCCC4'
p3355
a(lp3356
g1081
aag7
(S'7.49'
p3357
tp3358
Rp3359
a(lp3360
L1953891L
aag12
aa(lp3361
L394159L
aS'Cc1c(nc(nc1N2CC(O)C2)C3CC3)N4CCCCCC4'
p3362
a(lp3363
g1081
aag7
(S'6.80'
p3364
tp3365
Rp3366
a(lp3367
L1953890L
aag12
aa(lp3368
L394161L
aS'Cc1c(nc(nc1N2CC(Br)C2)C3CC3)N4CCCCCC4'
p3369
a(lp3370
g1081
aag7
(S'6.70'
p3371
tp3372
Rp3373
a(lp3374
L1953889L
aag12
aa(lp3375
L406451L
aS'[I-].Cc1onc(OCC#CC[N+](C)(C)C)c1'
p3376
a(lp3377
g1081
aag7
(S'5.40'
p3378
tp3379
Rp3380
a(lp3381
L1989747L
aag12
aa(lp3382
L394166L
aS'Cc1c(nc(nc1N2CC(C2)C#N)C3CC3)N4CCCCCC4'
p3383
a(lp3384
g1081
aag7
(S'6.10'
p3385
tp3386
Rp3387
a(lp3388
L1953888L
aag12
aa(lp3389
L394167L
aS'Cc1c(nc(nc1N2CC(F)C2)C3CC3)N4CCCCCC4'
p3390
a(lp3391
g1081
aag7
(S'6.70'
p3392
tp3393
Rp3394
a(lp3395
L1953887L
aag12
aa(lp3396
L406457L
aS'[I-].Cc1onc(OCC#CC[N+]2(C)CCCC2)c1'
p3397
a(lp3398
g1081
aag7
(S'5.13'
p3399
tp3400
Rp3401
a(lp3402
L1989746L
aag12
aa(lp3403
L394170L
aS'COC1CN(C1)c2nc(nc(N3CCCCCC3)c2C)C4CC4'
p3404
a(lp3405
g1081
aag7
(S'7.40'
p3406
tp3407
Rp3408
a(lp3409
L1953885L
aag12
aa(lp3410
L1250463L
aS'CC(C)(CCC(C(=O)N)(c1ccccc1)c2ccccc2)N3CC(C3)Oc4cccc(O)c4F'
p3411
a(lp3412
g1081
aag7
(S'9.79'
p3413
tp3414
Rp3415
a(lp3416
L7845085L
aag12
aa(lp3417
L394173L
aS'C1CCCN(CC1)c2cc(nc(n2)C3CC3)N4CCC4'
p3418
a(lp3419
g1081
aag7
(S'7.10'
p3420
tp3421
Rp3422
a(lp3423
L1953884L
aag12
aa(lp3424
L394174L
aS'CC1CN(C1)c2cc(nc(n2)C3CC3)N4CCCCCC4'
p3425
a(lp3426
g1081
aag7
(S'7.89'
p3427
tp3428
Rp3429
a(lp3430
L1953883L
aag12
aa(lp3431
L406463L
aS'OC(=O)\\C=C\\C(=O)O.C(Oc1cc(on1)c2ccccc2)C#CCN3CCCC3'
p3432
a(lp3433
g1081
aag7
(S'5.40'
p3434
tp3435
Rp3436
a(lp3437
L1989745L
aag12
aa(lp3438
L1594304L
aS'[Br-].C[N+]1(C)[C@@H]2CC[C@H]1C[C@H](C2)C=C(c3cccs3)c4cccs4'
p3439
a(lp3440
g1081
aag7
(S'9.35'
p3441
tp3442
Rp3443
a(lp3444
L6215834L
aag12
aa(lp3445
L1074113L
aS'O=C(Nc1ccccc1c2ccccc2)OC3CCNCC3'
p3446
a(lp3447
g1081
aag7
(S'7.34'
p3448
tp3449
Rp3450
a(lp3451
L5238400L
aag12
aa(lp3452
L406466L
aS'[I-].C[N+]1(CC#CCOc2cc(on2)c3ccccc3)CCCC1'
p3453
a(lp3454
g1081
aag7
(S'5.84'
p3455
tp3456
Rp3457
a(lp3458
L1989744L
aag12
aa(lp3459
L1074115L
aS'CCN1CCC(CC1)OC(=O)Nc2ccccc2c3ccccc3'
p3460
a(lp3461
g1081
aag7
(S'7.26'
p3462
tp3463
Rp3464
a(lp3465
L5238402L
aag12
aa(lp3466
L1074116L
aS'CCCN1CCC(CC1)OC(=O)Nc2ccccc2c3ccccc3'
p3467
a(lp3468
g1081
aag7
(S'7.11'
p3469
tp3470
Rp3471
a(lp3472
L5238403L
aag12
aa(lp3473
L1074117L
aS'CCCCN1CCC(CC1)OC(=O)Nc2ccccc2c3ccccc3'
p3474
a(lp3475
g1081
aag7
(S'7.77'
p3476
tp3477
Rp3478
a(lp3479
L5238404L
aag12
aa(lp3480
L1074118L
aS'CCCCCN1CCC(CC1)OC(=O)Nc2ccccc2c3ccccc3'
p3481
a(lp3482
g1081
aag7
(S'7.85'
p3483
tp3484
Rp3485
a(lp3486
L5238405L
aag12
aa(lp3487
L334791L
aS'CCCCCC(O)(C#CC1(CN2CCC1CC2)OC)c3ccccc3'
p3488
a(lp3489
g1081
aag7
(S'8.60'
p3490
tp3491
Rp3492
a(lp3493
L1666557L
aag12
aa(lp3494
L715720L
aS'Clc1ccc(CN2CCC3(CC2)CN(CCO3)C(=O)c4ncccn4)cc1'
p3495
a(lp3496
g1081
aag7
(S'6.40'
p3497
tp3498
Rp3499
a(lp3500
L3591700L
aag12
aa(lp3501
L1074121L
aS'CCCCCCCCN1CCC(CC1)OC(=O)Nc2ccccc2c3ccccc3'
p3502
a(lp3503
g1081
aag7
(S'8.15'
p3504
tp3505
Rp3506
a(lp3507
L5238408L
aag12
aa(lp3508
L1074122L
aS'CCCCCCCCCN1CCC(CC1)OC(=O)Nc2ccccc2c3ccccc3'
p3509
a(lp3510
g1081
aag7
(S'8.02'
p3511
tp3512
Rp3513
a(lp3514
L5238409L
aag12
aa(lp3515
L1074123L
aS'CCCCCCCCCCN1CCC(CC1)OC(=O)Nc2ccccc2c3ccccc3'
p3516
a(lp3517
g1081
aag7
(S'7.60'
p3518
tp3519
Rp3520
a(lp3521
L5238410L
aag12
aa(lp3522
L469964L
aS'O=C(NCc1cccc(c1)c2cccc(CN3CCNCC3)c2)c4ccc5OCOc5c4'
p3523
a(lp3524
g1081
aag7
(S'7.50'
p3525
tp3526
Rp3527
a(lp3528
L2365103L
aag12
aa(lp3529
L1074125L
aS'NCCN1CCC(CC1)OC(=O)Nc2ccccc2c3ccccc3'
p3530
a(lp3531
g1081
aag7
(S'7.30'
p3532
tp3533
Rp3534
a(lp3535
L5238412L
aag12
aa(lp3536
L406478L
aS'OC(=O)C(=O)O.O=C1CCON1CC#CCN2CCCCC2'
p3537
a(lp3538
g1081
aag7
(S'6.27'
p3539
tp3540
Rp3541
a(lp3542
L1989743L
aag12
aa(lp3543
L1074127L
aS'NCCCCN1CCC(CC1)OC(=O)Nc2ccccc2c3ccccc3'
p3544
a(lp3545
g1081
aag7
(S'7.08'
p3546
tp3547
Rp3548
a(lp3549
L5238414L
aag12
aa(lp3550
L1074128L
aS'NCCCCCN1CCC(CC1)OC(=O)Nc2ccccc2c3ccccc3'
p3551
a(lp3552
g1081
aag7
(S'7.01'
p3553
tp3554
Rp3555
a(lp3556
L5238415L
aag12
aa(lp3557
L1074129L
aS'NCCCCCCN1CCC(CC1)OC(=O)Nc2ccccc2c3ccccc3'
p3558
a(lp3559
g1081
aag7
(S'7.72'
p3560
tp3561
Rp3562
a(lp3563
L5238416L
aag12
aa(lp3564
L1074130L
aS'NCCCCCCCN1CCC(CC1)OC(=O)Nc2ccccc2c3ccccc3'
p3565
a(lp3566
g1081
aag7
(S'9.28'
p3567
tp3568
Rp3569
a(lp3570
L5238417L
aag12
aa(lp3571
L334803L
aS'CCCCC(O)(C#CC1(CN2CCC1CC2)OC)c3ccccc3'
p3572
a(lp3573
g1081
aag7
(S'9.20'
p3574
tp3575
Rp3576
a(lp3577
L1666556L
aag12
aa(lp3578
L1074132L
aS'NCCCCCCCCCN1CCC(CC1)OC(=O)Nc2ccccc2c3ccccc3'
p3579
a(lp3580
g1081
aag7
(S'9.12'
p3581
tp3582
Rp3583
a(lp3584
L5238419L
aag12
aa(lp3585
L1074133L
aS'NCCCCCCCCCCN1CCC(CC1)OC(=O)Nc2ccccc2c3ccccc3'
p3586
a(lp3587
g1081
aag7
(S'8.80'
p3588
tp3589
Rp3590
a(lp3591
L5238420L
aag12
aa(lp3592
L1074134L
aS'NCCCCCCCCCCCN1CCC(CC1)OC(=O)Nc2ccccc2c3ccccc3'
p3593
a(lp3594
g1081
aag7
(S'8.60'
p3595
tp3596
Rp3597
a(lp3598
L5238421L
aag12
aa(lp3599
L1074135L
aS'NCCCCCCCCCCCCN1CCC(CC1)OC(=O)Nc2ccccc2c3ccccc3'
p3600
a(lp3601
g1081
aag7
(S'8.59'
p3602
tp3603
Rp3604
a(lp3605
L5238422L
aag12
aa(lp3606
L1074136L
aS'O[C@@H](CNCCCN1CCC(CC1)OC(=O)Nc2ccccc2c3ccccc3)c4ccc(O)c5NC(=O)C=Cc45'
p3607
a(lp3608
g1081
aag7
(S'7.55'
p3609
tp3610
Rp3611
a(lp3612
L5238423L
aag12
aa(lp3613
L1074137L
aS'O[C@@H](CNCCCCCCCN1CCC(CC1)OC(=O)Nc2ccccc2c3ccccc3)c4ccc(O)c5NC(=O)C=Cc45'
p3614
a(lp3615
g1081
aag7
(S'9.13'
p3616
tp3617
Rp3618
a(lp3619
L5238424L
aag12
aa(lp3620
L1074138L
aS'O[C@@H](CNCCCCCCCCN1CCC(CC1)OC(=O)Nc2ccccc2c3ccccc3)c4ccc(O)c5NC(=O)C=Cc45'
p3621
a(lp3622
g1081
aag7
(S'9.49'
p3623
tp3624
Rp3625
a(lp3626
L5238425L
aag12
aa(lp3627
L1074139L
aS'O[C@@H](CNCCCCCCCCCN1CCC(CC1)OC(=O)Nc2ccccc2c3ccccc3)c4ccc(O)c5NC(=O)C=Cc45'
p3628
a(lp3629
g1081
aag7
(S'11.00'
p3630
tp3631
Rp3632
a(lp3633
L5238426L
aag12
aa(lp3634
L1074140L
aS'O[C@@H](CNCCCCCCCCCN1CCC(CC1)OC(=O)Nc2ccccc2c3ccccc3)c4ccc(O)c(NC=O)c4'
p3635
a(lp3636
g1081
aag7
(S'9.85'
p3637
tp3638
Rp3639
a(lp3640
L5238427L
aag12
aa(lp3641
L334813L
aS'CO[C@@]1(CN2CCC1CC2)C#CC(O)(c3ccc(Cl)cc3)c4ccc(Cl)cc4'
p3642
a(lp3643
g1081
aag7
(S'8.10'
p3644
tp3645
Rp3646
a(lp3647
L1666552L
aag12
aa(lp3648
L406497L
aS'OC(=O)C(=O)O.C(OC1=NOCC1)C#CCN2CCCCC2'
p3649
a(lp3650
g1081
aag7
(S'5.41'
p3651
tp3652
Rp3653
a(lp3654
L1989742L
aag12
aa(lp3655
L1074146L
aS'OC(CNCCCCCCCCCN1CCC(CC1)OC(=O)Nc2ccccc2c3ccccc3)c4ccc(O)c5NC(=O)C=Cc45'
p3656
a(lp3657
g1081
aag7
(S'9.74'
p3658
tp3659
Rp3660
a(lp3661
L5238430L
aag12
aa(lp3662
L406499L
aS'[I-].C[N+]1(CC#CCOC2=NOCC2)CCCCC1'
p3663
a(lp3664
g1081
aag7
(S'5.32'
p3665
tp3666
Rp3667
a(lp3668
L1989741L
aag12
aa(lp3669
L1074148L
aS'OC(CNCCCCCCCCCN1CCC(CC1)NC(=O)Nc2ccccc2c3ccccc3)c4ccc(O)c5NC(=O)C=Cc45'
p3670
a(lp3671
g1081
aag7
(S'8.12'
p3672
tp3673
Rp3674
a(lp3675
L5238432L
aag12
aa(lp3676
L1074149L
aS'OC(CNCCCCCCCCC[N+]12CCC(CC1)[C@H](C2)OC(=O)Nc3ccccc3c4ccccc4)c5ccc(O)c6NC(=O)C=Cc56'
p3677
a(lp3678
g1081
aag7
(S'6.85'
p3679
tp3680
Rp3681
a(lp3682
L5238433L
aag12
aa(lp3683
L1074150L
aS'C[N+]1(CCCCCCCCCNC[C@H](O)c2ccc(O)c3NC(=O)C=Cc23)[C@@H]4C[C@@H](C[C@@H]1[C@H]5O[C@@H]45)OC(=O)C(O)(c6cccs6)c7cccs7'
p3684
a(lp3685
g1081
aag7
(S'8.34'
p3686
tp3687
Rp3688
a(lp3689
L5238434L
aag12
aa(lp3690
L406503L
aS'[I-].C[N+]1(CC#CCOC2=NOCC2)CCc3ccccc13'
p3691
a(lp3692
g1081
aag7
(S'5.26'
p3693
tp3694
Rp3695
a(lp3696
L1989740L
aag12
aa(lp3697
L1584104L
aS'CN(Cc1cccc(F)c1)[C@H]2C3C4CC5C6C4C2C6C(=O)C35'
p3698
a(lp3699
g1081
aag7
(S'5.75'
p3700
tp3701
Rp3702
a(lp3703
L13469908L
aag12
aa(lp3704
L406507L
aS'[I-].C[N+]1(CC#CCOC2=NOCC2)CCc3ccccc3C1'
p3705
a(lp3706
g1081
aag7
(S'6.05'
p3707
tp3708
Rp3709
a(lp3710
L1989739L
aag12
aa(lp3711
L27629L
aS'CN(C)CCOC(c1ccccc1)c2ccccc2'
p3712
a(lp3713
g1081
ag1081
aag7
(S'6.525'
p3714
tp3715
Rp3716
a(lp3717
L7681445L
aL7681446L
aag12
aa(lp3718
L1584111L
aS'C(Cc1ccccc1)N[C@H]2C3C4CC5C6C4CC3C6C25'
p3719
a(lp3720
g1081
aag7
(S'5.67'
p3721
tp3722
Rp3723
a(lp3724
L13469897L
aag12
aa(lp3725
L1584112L
aS'C(Cc1ccccn1)N[C@H]2C3C4CC5C6C4CC3C6C25'
p3726
a(lp3727
g1081
aag7
(S'5.67'
p3728
tp3729
Rp3730
a(lp3731
L13469895L
aag12
aa(lp3732
L1584117L
aS'CN(CCCc1cccc(F)c1)[C@H]2C3C4CC5C6C4C2C6C(=O)C35'
p3733
a(lp3734
g1081
aag7
(S'5.89'
p3735
tp3736
Rp3737
a(lp3738
L13469907L
aag12
aa(lp3739
L334847L
aS'COC1(CN2CCC1CC2)C#CC(O)(Cc3ccccc3)Cc4ccccc4'
p3740
a(lp3741
g1081
aag7
(S'6.20'
p3742
tp3743
Rp3744
a(lp3745
L1666554L
aag12
aa(lp3746
L486405L
aS'CN1CCC[C@@H]1[C@@H]2C[S+]([O-])C(O2)(c3ccccc3)c4ccccc4'
p3747
a(lp3748
g1081
ag1081
aag7
(S'6.42'
p3749
tp3750
Rp3751
a(lp3752
L2338159L
aL2354433L
aag12
aa(lp3753
L486406L
aS'CN1CCC[C@H]1[C@H]2C[S+]([O-])C(O2)(c3ccccc3)c4ccccc4'
p3754
a(lp3755
g1081
ag1081
aag7
(S'6.425'
p3756
tp3757
Rp3758
a(lp3759
L2354432L
aL2354434L
aag12
aa(lp3760
L553991L
aS'[I-].CC(C)OC(=O)c1ccc(NC(=O)N[C@@H](Cc2ccc(O)cc2)C(=O)N[C@H]3CCC[N+](C)(Cc4cccc(O)c4)C3)cc1'
p3761
a(lp3762
g1081
aag7
(S'7.50'
p3763
tp3764
Rp3765
a(lp3766
L2229649L
aag12
aa(lp3767
L1605564L
aS'O=C(O[C@H]1C[N+]2(CCc3ccccc3)CCC1CC2)C4(CCCCCC4)C5=CC=CC5'
p3768
a(lp3769
g1081
aag7
(S'10.10'
p3770
tp3771
Rp3772
a(lp3773
L13833282L
aag12
aa(lp3774
L334861L
aS'COC1(CN2CCC1CC2)C#CC(O)(Cc3ccccc3)c4ccccc4'
p3775
a(lp3776
g1081
aag7
(S'7.40'
p3777
tp3778
Rp3779
a(lp3780
L1666555L
aag12
aa(lp3781
L437267L
aS'CC(C)N(CC[C@H](c1ccccc1)c2cc(CCNC(=O)CCCCCNC(=O)COc3ccc(\\C=C\\C4=[N+]5C(=Cc6ccc(c7cccs7)n6[B-]5(F)F)C=C4)cc3)ccc2O)C(C)C'
p3782
a(lp3783
g1081
aag7
(S'7.99'
p3784
tp3785
Rp3786
a(lp3787
L2090909L
aag12
aa(lp3788
L394260L
aS'Cc1c(nc(nc1N2CCCCCC2)C3CC3)N4CCC4'
p3789
a(lp3790
g1081
aag7
(S'7.80'
p3791
tp3792
Rp3793
a(lp3794
L1954059L
aag12
aa(lp3795
L1267655L
aS'CCCC[N+]12CCC(CC1)[C@H](C2)OC(=O)[C@@](C)(N3CCCCC3)c4ccccc4'
p3796
a(lp3797
g1081
aag7
(S'8.30'
p3798
tp3799
Rp3800
a(lp3801
L7947419L
aag12
aa(lp3802
L1265497L
aS'C[C@@](N1CCCCC1)(C(=O)O[C@H]2C[N+]3(CCc4ccc(Cl)s4)CCC2CC3)c5ccccc5'
p3803
a(lp3804
g1081
aag7
(S'10.30'
p3805
tp3806
Rp3807
a(lp3808
L7947406L
aag12
aa(lp3809
L1605567L
aS'O=C(O[C@H]1C[N+]2(CCc3ccc(cc3)C#N)CCC1CC2)C4(CCCCCC4)C5=CC=CC5'
p3810
a(lp3811
g1081
aag7
(S'8.50'
p3812
tp3813
Rp3814
a(lp3815
L13833279L
aag12
aa(lp3816
L1180711L
aS'Fc1cccc(F)c1n2nc(OC3CCNCC3)c4ccccc24'
p3817
a(lp3818
g1081
aag7
(S'7.31'
p3819
tp3820
Rp3821
a(lp3822
L6376072L
aag12
aa(lp3823
L633009L
aS'Clc1cccc(c1)c2ccccc2CNC(=O)C3CCNCC3'
p3824
a(lp3825
g1081
aag7
(S'5.70'
p3826
tp3827
Rp3828
a(lp3829
L3312787L
aag12
aa(lp3830
L1180712L
aS'Oc1cccc(F)c1n2nc(OC3CCNCC3)c4ccccc24'
p3831
a(lp3832
g1081
aag7
(S'8.00'
p3833
tp3834
Rp3835
a(lp3836
L6376073L
aag12
aa(lp3837
L1180713L
aS'Oc1cccc(F)c1n2nc(OC3CCNCC3)c4CCCCc24'
p3838
a(lp3839
g1081
aag7
(S'8.60'
p3840
tp3841
Rp3842
a(lp3843
L6376074L
aag12
aa(lp3844
L1180714L
aS'O[C@@H](CNCCCCCCCCCN1CCC(CC1)Oc2nn(c3CCCCc23)c4c(O)cccc4F)c5ccc(O)c6NC(=O)C=Cc56'
p3845
a(lp3846
g1081
aag7
(S'8.66'
p3847
tp3848
Rp3849
a(lp3850
L6376075L
aag12
aa(lp3851
L633011L
aS'Clc1cccc(c1)c2ccccc2CC(=O)NC3CCNCC3'
p3852
a(lp3853
g1081
aag7
(S'6.90'
p3854
tp3855
Rp3856
a(lp3857
L3312791L
aag12
aa(lp3858
L554046L
aS'[I-].C[N+]1(C)CCCC1c2occc2'
p3859
a(lp3860
g1081
aag7
(S'5.56'
p3861
tp3862
Rp3863
a(lp3864
L2446364L
aag12
aa(lp3865
L27713L
aS'CNCCCC12CCC(c3ccccc13)c4ccccc24'
p3866
a(lp3867
g1081
ag1081
aag7
(S'6.665'
p3868
tp3869
Rp3870
a(lp3871
L7749127L
aL7749128L
aag12
aa(lp3872
L437319L
aS'[Br-].[Br-].CCCCN(CCCC)c1ccc(\\C=C\\c2cc[n+](CCC[N+](CC)(CC)CC)cc2)cc1'
p3873
a(lp3874
g1081
aag7
(S'7.52'
p3875
tp3876
Rp3877
a(lp3878
L2090911L
aag12
aa(lp3879
L437320L
aS'[Br-].[Br-].CCN(CC)c1ccc(\\C=C\\c2cc[n+](CCC[N+](CC)(CC)CC)cc2)cc1'
p3880
a(lp3881
g1081
aag7
(S'7.62'
p3882
tp3883
Rp3884
a(lp3885
L2090910L
aag12
aa(lp3886
L334924L
aS'CO[C@@]1(CN2CCC1CC2)C#CC(O)(c3ccc(C)cc3)c4ccc(C)cc4'
p3887
a(lp3888
g1081
aag7
(S'7.00'
p3889
tp3890
Rp3891
a(lp3892
L1666551L
aag12
aa(lp3893
L554062L
aS'[I-].C[N+]1(C)CCC[C@@H]1[C@@H]2C[S+]([O-])C(O2)(c3ccccc3)c4ccccc4'
p3894
a(lp3895
g1081
ag1081
aag7
(S'6.48'
p3896
tp3897
Rp3898
a(lp3899
L2338222L
aL2338224L
aag12
aa(lp3900
L554063L
aS'[I-].C[N+]1(C)CCC[C@H]1[C@H]2C[S+]([O-])[C@](O2)(C3CCCCC3)c4ccccc4'
p3901
a(lp3902
g1081
ag1081
aag7
(S'7.975'
p3903
tp3904
Rp3905
a(lp3906
L2338217L
aL2338219L
aag12
aa(lp3907
L554064L
aS'[I-].C[N+]1(C)CCC[C@@H]1[C@@H]2C[S+]([O-])[C@](O2)(C3CCCCC3)c4ccccc4'
p3908
a(lp3909
g1081
ag1081
aag7
(S'7.475'
p3910
tp3911
Rp3912
a(lp3913
L2338214L
aL2338216L
aag12
aa(lp3914
L554065L
aS'[I-].C[N+]1(C)CCC[C@H]1[C@H]2C[S+]([O-])C(O2)(c3ccccc3)c4ccccc4'
p3915
a(lp3916
g1081
ag1081
aag7
(S'6.985'
p3917
tp3918
Rp3919
a(lp3920
L2338221L
aL2338223L
aag12
aa(lp3921
L334933L
aS'CO[C@@]1(CN2CCC1CC2)C#CC(O)(c3cccc(F)c3)c4cccc(F)c4'
p3922
a(lp3923
g1081
aag7
(S'9.10'
p3924
tp3925
Rp3926
a(lp3927
L1666550L
aag12
aa(lp3928
L468054L
aS'CCN(CC)CCCOC(=O)N1c2ccccc2Sc3ccccc13'
p3929
a(lp3930
g1081
aag7
(S'6.77'
p3931
tp3932
Rp3933
a(lp3934
L13369937L
aag12
aa(lp3935
L468055L
aS'O=C(OCCN1CCCC1)N2c3ccccc3Sc4ccccc24'
p3936
a(lp3937
g1081
aag7
(S'7.18'
p3938
tp3939
Rp3940
a(lp3941
L13369921L
aag12
aa(lp3942
L554074L
aS'[I-].C[N+]1(C)CCC[C@@H]1[C@@H]2C[S+]([O-])[C@@](O2)(C3CCCCC3)c4ccccc4'
p3943
a(lp3944
g1081
ag1081
aag7
(S'6.515'
p3945
tp3946
Rp3947
a(lp3948
L2338218L
aL2338220L
aag12
aa(lp3949
L334939L
aS'CO[C@@]1(CN2CCC1CC2)C#CC(O)(c3cccc(C)c3)c4cccc(C)c4'
p3950
a(lp3951
g1081
aag7
(S'8.10'
p3952
tp3953
Rp3954
a(lp3955
L1666549L
aag12
aa(lp3956
L334940L
aS'CO[C@@]1(CN2CCC1CC2)C#CC(O)(c3cccs3)c4cccs4'
p3957
a(lp3958
g1081
aag7
(S'10.30'
p3959
tp3960
Rp3961
a(lp3962
L1666546L
aag12
aa(lp3963
L1604706L
aS'O=C(O[C@H]1C[N+]2(CCCc3ccncc3)CCC1CC2)C4(CCCCCC4)c5cccs5'
p3964
a(lp3965
g1081
aag7
(S'10.30'
p3966
tp3967
Rp3968
a(lp3969
L13833274L
aag12
aa(lp3970
L334947L
aS'CO[C@@]1(CN2CCC1CC2)C#CC(O)(c3ccsc3)c4ccsc4'
p3971
a(lp3972
g1081
aag7
(S'10.10'
p3973
tp3974
Rp3975
a(lp3976
L1666545L
aag12
aa(lp3977
L1604708L
aS'Cc1ccc(CCC[N+]23CCC(CC2)[C@H](C3)OC(=O)C4(CCCCCC4)C5=CC=CC5)cn1'
p3978
a(lp3979
g1081
aag7
(S'9.80'
p3980
tp3981
Rp3982
a(lp3983
L13833272L
aag12
aa(lp3984
L1604709L
aS'Cc1ccc(CCC[N+]23CCC(CC2)[C@H](C3)OC(=O)C4(CCCCCC4)C5=CC=CC5)c(C)n1'
p3985
a(lp3986
g1081
aag7
(S'9.00'
p3987
tp3988
Rp3989
a(lp3990
L13833271L
aag12
aa(lp3991
L554086L
aS'[I-].Cc1oc(cc1)[C@H]2CCC[N+]2(C)C'
p3992
a(lp3993
g1081
aag7
(S'5.11'
p3994
tp3995
Rp3996
a(lp3997
L2446360L
aag12
aa(lp3998
L1604711L
aS'O=C(O[C@H]1C[N+]2(CCCc3oc4ccccc4n3)CCC1CC2)C5(CCCCCC5)C6=CC=CC6'
p3999
a(lp4000
g1081
aag7
(S'10.30'
p4001
tp4002
Rp4003
a(lp4004
L13833269L
aag12
aa(lp4005
L172008L
aS'CCCCc1[nH]c2ccc3OC4N(CCc5cc(OC)ccc45)Cc3c2c1C(=O)OCC'
p4006
a(lp4007
g1081
aag7
(S'6.82'
p4008
tp4009
Rp4010
a(lp4011
L12629829L
aag12
aa(lp4012
L1604713L
aS'O=C(C[N+]12CCC(CC1)[C@H](C2)OC(=O)C3(CCCCCC3)C4=CC=CC4)Nc5ccccc5'
p4013
a(lp4014
g1081
aag7
(S'9.60'
p4015
tp4016
Rp4017
a(lp4018
L13833267L
aag12
aa(lp4019
L334954L
aS'COC1(CN2CCC1CC2)C#CC(O)(C3CCCC3)c4ccccn4'
p4020
a(lp4021
g1081
aag7
(S'8.40'
p4022
tp4023
Rp4024
a(lp4025
L1666543L
aag12
aa(lp4026
L1604715L
aS'O=C(C[N+]12CCC(CC1)[C@H](C2)OC(=O)C3(CCCCCC3)C4=CC=CC4)N5CCOCC5'
p4027
a(lp4028
g1081
aag7
(S'7.00'
p4029
tp4030
Rp4031
a(lp4032
L13833265L
aag12
aa(lp4033
L1604717L
aS'Cc1onc(NC(=O)C[N+]23CCC(CC2)[C@H](C3)OC(=O)C4(CCCCCC4)C5=CC=CC5)c1'
p4034
a(lp4035
g1081
aag7
(S'9.80'
p4036
tp4037
Rp4038
a(lp4039
L13833263L
aag12
aa(lp4040
L1604718L
aS'O=C(C[N+]12CCC(CC1)[C@H](C2)OC(=O)C3(CCCCCC3)C4=CC=CC4)Nc5cc[nH]n5'
p4041
a(lp4042
g1081
aag7
(S'10.00'
p4043
tp4044
Rp4045
a(lp4046
L13833262L
aag12
aa(lp4047
L554095L
aS'[I-].Cc1oc(cc1)C2CCC[N+]2(C)C'
p4048
a(lp4049
g1081
aag7
(S'5.16'
p4050
tp4051
Rp4052
a(lp4053
L2446361L
aag12
aa(lp4054
L1604720L
aS'O=C(C[N+]12CCC(CC1)[C@H](C2)OC(=O)C3(CCCCCC3)C4=CC=CC4)Nc5ncns5'
p4055
a(lp4056
g1081
aag7
(S'9.40'
p4057
tp4058
Rp4059
a(lp4060
L13833260L
aag12
aa(lp4061
L554097L
aS'[I-].Cc1oc(cc1)[C@@H]2CCC[N+]2(C)C'
p4062
a(lp4063
g1081
aag7
(S'5.57'
p4064
tp4065
Rp4066
a(lp4067
L2446359L
aag12
aa(lp4068
L715838L
aS'Clc1ccc(CN2CCC3(CC2)CN(CCO3)C(=O)c4ccon4)cc1'
p4069
a(lp4070
g1081
aag7
(S'6.40'
p4071
tp4072
Rp4073
a(lp4074
L3591701L
aag12
aa(lp4075
L1074119L
aS'CCCCCCN1CCC(CC1)OC(=O)Nc2ccccc2c3ccccc3'
p4076
a(lp4077
g1081
aag7
(S'8.32'
p4078
tp4079
Rp4080
a(lp4081
L5238406L
aag12
aa(lp4082
L291960L
aS'NC(=O)C([C@@H]1CCN(CCc2ccc3OCCc3c2)C1)(c4ccccc4)c5ccccc5'
p4083
a(lp4084
g1081
ag1081
ag1081
ag1081
aag7
(S'9.09'
p4085
tp4086
Rp4087
a(lp4088
L1195096L
aL1666529L
aL5084190L
aL5084361L
aag12
aa(lp4089
L334985L
aS'CO[C@@]1(CN2CCC1CC2)C#CC(O)(c3cccc(c3)C(F)(F)F)c4cccc(c4)C(F)(F)F'
p4090
a(lp4091
g1081
aag7
(S'6.00'
p4092
tp4093
Rp4094
a(lp4095
L1666548L
aag12
aa(lp4096
L1250443L
aS'NC(=O)C(CCCN1CC[C@@H](C1)Oc2ccccc2)(c3ccccc3)c4ccccc4'
p4097
a(lp4098
g1081
aag7
(S'8.72'
p4099
tp4100
Rp4101
a(lp4102
L7844977L
aag12
aa(lp4103
L1250444L
aS'CC(C)(CCC(C(=O)N)(c1ccccc1)c2ccccc2)N3CC[C@@H](C3)Oc4ccccc4'
p4104
a(lp4105
g1081
aag7
(S'8.74'
p4106
tp4107
Rp4108
a(lp4109
L7844976L
aag12
aa(lp4110
L1250445L
aS'CC(C)(CCC(C(=O)N)(c1ccccc1)c2ccccc2)N3CC[C@H](C3)Oc4ccccc4'
p4111
a(lp4112
g1081
aag7
(S'8.19'
p4113
tp4114
Rp4115
a(lp4116
L7844975L
aag12
aa(lp4117
L1250446L
aS'CC(C)(CCC(C(=O)N)(c1ccccc1)c2ccccc2)N3CC(C3)Oc4ccccc4'
p4118
a(lp4119
g1081
aag7
(S'9.96'
p4120
tp4121
Rp4122
a(lp4123
L7844974L
aag12
aa(lp4124
L1250447L
aS'CC(C)(CCC(C(=O)N)(c1ccccc1)c2ccccc2)N3CCC(CC3)Oc4ccccc4'
p4125
a(lp4126
g1081
aag7
(S'8.41'
p4127
tp4128
Rp4129
a(lp4130
L7844973L
aag12
aa(lp4131
L554128L
aS'[I-].C[N+]1(C)CCC[C@H]1[C@H]2C[S+]([O-])[C@@](O2)(C3CCCCC3)c4ccccc4'
p4132
a(lp4133
g1081
ag1081
aag7
(S'6.80'
p4134
tp4135
Rp4136
a(lp4137
L2338213L
aL2338215L
aag12
aa(lp4138
L1250449L
aS'CC(C)(CCC(C(=O)N)(c1ccccc1)c2ccccc2)N3CC[C@@H](C3)Oc4cccc(O)c4'
p4139
a(lp4140
g1081
aag7
(S'9.74'
p4141
tp4142
Rp4143
a(lp4144
L7845083L
aag12
aa(lp4145
L191342L
aS'Clc1ccc2C(=C3CCNCC3)c4ncccc4CCc2c1'
p4146
a(lp4147
g1081
ag1081
aag7
(S'6.685'
p4148
tp4149
Rp4150
a(lp4151
L7700302L
aL7700303L
aag12
aa(lp4152
L1250454L
aS'CC(C)(CCC(C(=O)N)(c1ccccc1)c2ccccc2)N3CC(C3)Oc4cccc(O)c4'
p4153
a(lp4154
g1081
aag7
(S'9.89'
p4155
tp4156
Rp4157
a(lp4158
L7845084L
aag12
aa(lp4159
L364954L
aS'COc1nsnc1OCCOCCOCCOCCOCCOc2nsnc2C3=CCCN(C)C3'
p4160
a(lp4161
g1081
aag7
(S'7.20'
p4162
tp4163
Rp4164
a(lp4165
L1797304L
aag12
aa(lp4166
L674975L
aS'[Br-].C[N+]1(C)[C@H]2C[C@@H](C[C@H]1[C@H]3O[C@@H]23)OC(=O)[C@H](CO)c4ccccc4'
p4167
a(lp4168
g1081
ag1081
aag7
(S'9.285'
p4169
tp4170
Rp4171
a(lp4172
L7751724L
aL7751725L
aag12
aa(lp4173
L674978L
aS'[Br-].C[N+]1(C)CCC(C1)OC(=O)C(O)(C2CCCC2)c3ccccc3'
p4174
a(lp4175
g1081
aag7
(S'9.60'
p4176
tp4177
Rp4178
a(lp4179
L3591683L
aag12
aa(lp4180
L1594534L
aS'[Br-].C[N+]1(C)[C@@H]2CC[C@H]1C[C@@H](CC(CO)(c3ccccc3)c4ccccc4)C2'
p4181
a(lp4182
g1081
aag7
(S'8.60'
p4183
tp4184
Rp4185
a(lp4186
L2701660L
aag12
aa(lp4187
L1051505L
aS'[3H]c1ccc(cc1)C(O)(C(=O)OC2CN3CCC2CC3)c4ccc([3H])cc4'
p4188
a(lp4189
g1081
aag7
(S'10.05'
p4190
tp4191
Rp4192
a(lp4193
L5084189L
aag12
aa(lp4194
L486569L
aS'CN1CCC[C@@H]1[C@@H]2C[S+]([O-])[C@](O2)(C3CCCCC3)c4ccccc4'
p4195
a(lp4196
g1081
ag1081
aag7
(S'7.16'
p4197
tp4198
Rp4199
a(lp4200
L2338226L
aL2338228L
aag12
aa(lp4201
L486570L
aS'CN1CCC[C@H]1[C@H]2C[S+]([O-])[C@@](O2)(C3CCCCC3)c4ccccc4'
p4202
a(lp4203
g1081
ag1081
aag7
(S'6.31'
p4204
tp4205
Rp4206
a(lp4207
L2338225L
aL2338227L
aag12
aa(lp4208
L335020L
aS'CO[C@@]1(CN2CCC1CC2)C#CC(O)C3c4ccccc4C=Cc5ccccc35'
p4209
a(lp4210
g1081
aag7
(S'7.00'
p4211
tp4212
Rp4213
a(lp4214
L1666547L
aag12
aa(lp4215
L1594541L
aS'CN1[C@@H]2CC[C@H]1C[C@@H](CC(C#N)(c3ccccc3)c4ccccc4)C2'
p4216
a(lp4217
g1081
aag7
(S'9.80'
p4218
tp4219
Rp4220
a(lp4221
L2701657L
aag12
aa(lp4222
L715951L
aS'Clc1ccc(CN2CCC3(CC2)CN(CCO3)C(=O)c4cscn4)cc1'
p4223
a(lp4224
g1081
aag7
(S'6.80'
p4225
tp4226
Rp4227
a(lp4228
L3591703L
aag12
aa(lp4229
L715952L
aS'Cc1nc(cs1)C(=O)N2CCOC3(CCN(Cc4ccc(Cl)cc4)CC3)C2'
p4230
a(lp4231
g1081
aag7
(S'8.00'
p4232
tp4233
Rp4234
a(lp4235
L3591704L
aag12
aa(lp4236
L1594549L
aS'[Br-].C[N+]1(C)[C@@H]2CC[C@H]1C[C@@H](CC(O)(c3ccccc3)c4ccccc4)C2'
p4237
a(lp4238
g1081
aag7
(S'8.50'
p4239
tp4240
Rp4241
a(lp4242
L2701656L
aag12
aa(lp4243
L13494L
aS'Clc1ccccc1C(c2ccccc2)(c3ccccc3)n4ccnc4'
p4244
a(lp4245
g1081
ag1081
aag7
(S'5.34'
p4246
tp4247
Rp4248
a(lp4249
L7697620L
aL7697621L
aag12
aa(lp4250
L1594553L
aS'CN1[C@@H]2CC[C@H]1C[C@@H](CC(O)(c3ccccc3)c4ccccc4)C2'
p4251
a(lp4252
g1081
aag7
(S'8.70'
p4253
tp4254
Rp4255
a(lp4256
L2701655L
aag12
aa(lp4257
L1605570L
aS'O=C(O[C@H]1C[N+]2(CCCOc3ccccc3)CCC1CC2)C4(CCCCCC4)C5=CC=CC5'
p4258
a(lp4259
g1081
aag7
(S'10.20'
p4260
tp4261
Rp4262
a(lp4263
L13833276L
aag12
aa(lp4264
L1594570L
aS'CN1[C@@H]2CC[C@H]1C[C@@H](CC(CO)(c3ccccc3)c4ccccc4)C2'
p4265
a(lp4266
g1081
aag7
(S'8.60'
p4267
tp4268
Rp4269
a(lp4270
L2701659L
aag12
aa(lp4271
L1265527L
aS'C[C@@](N1CCCCC1)(C(=O)O[C@H]2C[N+]3(CCCOc4ccc(F)cc4)CCC2CC3)c5cccs5'
p4272
a(lp4273
g1081
aag7
(S'10.10'
p4274
tp4275
Rp4276
a(lp4277
L7947376L
aag12
aa(lp4278
L562386L
aS'[Br-].O=C(O[C@H]1C[N+]2(CCCOc3ccccc3)CCC1CC2)C(c4cccs4)c5cccs5'
p4279
a(lp4280
g1081
aag7
(S'9.43'
p4281
tp4282
Rp4283
a(lp4284
L2708945L
aag12
aa(lp4285
L335060L
aS'COC1(CN2CCC1CC2)C#CC(O)(C3CCC3)c4ccccn4'
p4286
a(lp4287
g1081
aag7
(S'7.70'
p4288
tp4289
Rp4290
a(lp4291
L1666542L
aag12
aa(lp4292
L335067L
aS'COC1(CN2CCC1CC2)C#CC(O)(c3ccccc3)c4ccccn4'
p4293
a(lp4294
g1081
aag7
(S'8.00'
p4295
tp4296
Rp4297
a(lp4298
L1666541L
aag12
aa(lp4299
L335068L
aS'COC1(CN2CCC1CC2)C#CC(O)(c3ccccc3)c4cccnc4'
p4300
a(lp4301
g1081
aag7
(S'9.40'
p4302
tp4303
Rp4304
a(lp4305
L1666540L
aag12
aa(lp4306
L562399L
aS'OC1(C(=O)O[C@H]2CN3CCC2CC3)c4ccccc4c5ccccc15'
p4307
a(lp4308
g1081
aag7
(S'9.04'
p4309
tp4310
Rp4311
a(lp4312
L2708921L
aag12
aa(lp4313
L1348833L
aS'[I-].C[N+](C)(C)C[C@@H]1COC[C@@H](O1)c2ccccc2'
p4314
a(lp4315
g1081
aag7
(S'5.01'
p4316
tp4317
Rp4318
a(lp4319
L10927305L
aag12
aa(lp4320
L562402L
aS'[Br-].OC(C(=O)O[C@H]1C[N+]2(CCc3ccccc3)CCC1CC2)(c4cccs4)c5cccs5'
p4321
a(lp4322
g1081
aag7
(S'9.70'
p4323
tp4324
Rp4325
a(lp4326
L2708934L
aag12
aa(lp4327
L1348835L
aS'[I-].C[N+](C)(C)CC1COCC(O1)(c2ccccc2)c3ccccc3'
p4328
a(lp4329
g1081
aag7
(S'8.44'
p4330
tp4331
Rp4332
a(lp4333
L10927303L
aag12
aa(lp4334
L562404L
aS'[Br-].OC(C(=O)O[C@H]1C[N+]2(CCCOc3ccccc3)CCC1CC2)(c4cccs4)c5cccs5'
p4335
a(lp4336
g1081
ag1081
aag7
(S'9.835'
p4337
tp4338
Rp4339
a(lp4340
L2708936L
aL3591684L
aag12
aa(lp4341
L1348837L
aS'[I-].C[N+](C)(C)C[C@@H]1COCC(O1)(c2ccccc2)c3ccccc3'
p4342
a(lp4343
g1081
aag7
(S'7.21'
p4344
tp4345
Rp4346
a(lp4347
L10927301L
aag12
aa(lp4348
L1348838L
aS'[I-].C[N+](C)(C)C[C@@H]1COC[C@@H](O1)C(c2ccccc2)c3ccccc3'
p4349
a(lp4350
g1081
aag7
(S'5.05'
p4351
tp4352
Rp4353
a(lp4354
L10927300L
aag12
aa(lp4355
L562407L
aS'[Br-].OC1(C(=O)O[C@H]2C[N+]3(CCCOc4ccccc4)CCC2CC3)c5ccccc5Oc6ccccc16'
p4356
a(lp4357
g1081
aag7
(S'8.98'
p4358
tp4359
Rp4360
a(lp4361
L2708939L
aag12
aa(lp4362
L1604840L
aS'O=C(C[N+]12CCC(CC1)[C@@H](C2)OC(=O)C3(CCCCCC3)C4=CC=CC4)Nc5ccccn5'
p4363
a(lp4364
g1081
aag7
(S'7.50'
p4365
tp4366
Rp4367
a(lp4368
L13833256L
aag12
aa(lp4369
L1604841L
aS'O=C(C[N+]12CCC(CC1)[C@H](C2)OC(=O)C3(CCCCCC3)C4=CC=CC4)Nc5cccnc5'
p4370
a(lp4371
g1081
aag7
(S'9.70'
p4372
tp4373
Rp4374
a(lp4375
L13833255L
aag12
aa(lp4376
L586555L
aS'CCCCCCCCN[C@H](C)[C@@H](O)c1ccc(SC(C)C)cc1'
p4377
a(lp4378
g1081
ag1081
aag7
(S'5.675'
p4379
tp4380
Rp4381
a(lp4382
L7812328L
aL7812329L
aag12
aa(lp4383
L1604843L
aS'O=C(C[N+]12CCC(CC1)[C@H](C2)OC(=O)C3(CCCCCC3)C4=CC=CC4)Nc5cncnc5'
p4384
a(lp4385
g1081
aag7
(S'9.20'
p4386
tp4387
Rp4388
a(lp4389
L13833253L
aag12
aa(lp4390
L1604844L
aS'O=C(C[N+]12CCC(CC1)[C@H](C2)OC(=O)C3(CCCCCC3)C4=CC=CC4)Nc5ccncn5'
p4391
a(lp4392
g1081
aag7
(S'9.80'
p4393
tp4394
Rp4395
a(lp4396
L13833252L
aag12
aa(lp4397
L1604845L
aS'O=C(C[N+]12CCC(CC1)[C@H](C2)OC(=O)C3(CCCCCC3)C4=CC=CC4)Nc5cccnn5'
p4398
a(lp4399
g1081
aag7
(S'9.80'
p4400
tp4401
Rp4402
a(lp4403
L13833251L
aag12
aa(lp4404
L1265533L
aS'C[C@@](N1CCCCC1)(C(=O)O[C@H]2C[N+]3(CC(=O)Nc4ccccc4)CCC2CC3)c5cccs5'
p4405
a(lp4406
g1081
aag7
(S'9.70'
p4407
tp4408
Rp4409
a(lp4410
L7947370L
aag12
aa(lp4411
L1604848L
aS'Cc1ccc(NC(=O)C[N+]23CCC(CC2)[C@H](C3)OC(=O)C4(CCCCCC4)C5=CC=CC5)nc1'
p4412
a(lp4413
g1081
aag7
(S'9.30'
p4414
tp4415
Rp4416
a(lp4417
L13833248L
aag12
aa(lp4418
L1604849L
aS'Fc1ccc(NC(=O)C[N+]23CCC(CC2)[C@H](C3)OC(=O)C4(CCCCCC4)C5=CC=CC5)nc1'
p4419
a(lp4420
g1081
aag7
(S'9.20'
p4421
tp4422
Rp4423
a(lp4424
L13833247L
aag12
aa(lp4425
L1604850L
aS'Cc1ccnc(NC(=O)C[N+]23CCC(CC2)[C@H](C3)OC(=O)C4(CCCCCC4)C5=CC=CC5)c1'
p4426
a(lp4427
g1081
aag7
(S'9.10'
p4428
tp4429
Rp4430
a(lp4431
L13833246L
aag12
aa(lp4432
L1604851L
aS'FC(F)(F)c1cccc(NC(=O)C[N+]23CCC(CC2)[C@H](C3)OC(=O)C4(CCCCCC4)C5=CC=CC5)n1'
p4433
a(lp4434
g1081
aag7
(S'8.60'
p4435
tp4436
Rp4437
a(lp4438
L13833245L
aag12
aa(lp4439
L1604852L
aS'FC(F)(F)c1ccc(NC(=O)C[N+]23CCC(CC2)[C@H](C3)OC(=O)C4(CCCCCC4)C5=CC=CC5)cn1'
p4440
a(lp4441
g1081
aag7
(S'9.60'
p4442
tp4443
Rp4444
a(lp4445
L13833244L
aag12
aa(lp4446
L31989L
aS'CCN(CC)CCOC(=O)C(C)(c1ccccc1)c2ccccc2'
p4447
a(lp4448
g1081
aag7
(S'5.11'
p4449
tp4450
Rp4451
a(lp4452
L13288575L
aag12
aa(lp4453
L1604854L
aS'Cc1nccc(NC(=O)C[N+]23CCC(CC2)[C@H](C3)OC(=O)C4(CCCCCC4)C5=CC=CC5)n1'
p4454
a(lp4455
g1081
aag7
(S'9.40'
p4456
tp4457
Rp4458
a(lp4459
L13833242L
aag12
aa(lp4460
L1604855L
aS'Cc1cc(NC(=O)C[N+]23CCC(CC2)[C@H](C3)OC(=O)C4(CCCCCC4)C5=CC=CC5)ncn1'
p4461
a(lp4462
g1081
aag7
(S'9.00'
p4463
tp4464
Rp4465
a(lp4466
L13833241L
aag12
aa(lp4467
L1604856L
aS'Cc1ccc(NC(=O)C[N+]23CCC(CC2)[C@H](C3)OC(=O)C4(CCCCCC4)C5=CC=CC5)nn1'
p4468
a(lp4469
g1081
aag7
(S'9.10'
p4470
tp4471
Rp4472
a(lp4473
L13833240L
aag12
aa(lp4474
L1074124L
aS'CCCCCCCCCCCN1CCC(CC1)OC(=O)Nc2ccccc2c3ccccc3'
p4475
a(lp4476
g1081
aag7
(S'7.32'
p4477
tp4478
Rp4479
a(lp4480
L5238411L
aag12
aa(lp4481
L1605428L
aS'FC(F)(F)c1ccc(NC(=O)C[N+]23CCC(CC2)[C@H](C3)OC(=O)C4(CCCCCC4)C5=CC=CC5)nn1'
p4482
a(lp4483
g1081
aag7
(S'8.60'
p4484
tp4485
Rp4486
a(lp4487
L13833239L
aag12
aa(lp4488
L335122L
aS'CO[C@@]1(CN2CCC1CC2)C#C[C@@](O)(c3ccccc3)c4cccnc4'
p4489
a(lp4490
g1081
aag7
(S'9.60'
p4491
tp4492
Rp4493
a(lp4494
L1666539L
aag12
aa(lp4495
L335128L
aS'CO[C@@]1(CN2CCC1CC2)C#C[C@](O)(c3ccccc3)c4cccnc4'
p4496
a(lp4497
g1081
aag7
(S'7.89'
p4498
tp4499
Rp4500
a(lp4501
L1666538L
aag12
aa(lp4502
L335129L
aS'COC1(CN2CCC1CC2)C#CC(O)(c3ccccc3)c4ccncc4'
p4503
a(lp4504
g1081
aag7
(S'8.89'
p4505
tp4506
Rp4507
a(lp4508
L1666537L
aag12
aa(lp4509
L716061L
aS'Cc1nc(cs1)C(=O)N2CCOC3(CCN(Cc4cccc(Cl)c4)CC3)C2'
p4510
a(lp4511
g1081
aag7
(S'8.90'
p4512
tp4513
Rp4514
a(lp4515
L3591705L
aag12
aa(lp4516
L716062L
aS'Cc1nc(cs1)C(=O)N2CCOC3(CCN(Cc4ccccc4Cl)CC3)C2'
p4517
a(lp4518
g1081
aag7
(S'8.10'
p4519
tp4520
Rp4521
a(lp4522
L3591706L
aag12
aa(lp4523
L335135L
aS'CO[C@@]1(CN2CCC1CC2)C#CC(O)(c3cccnc3)c4cccnc4'
p4524
a(lp4525
g1081
aag7
(S'7.30'
p4526
tp4527
Rp4528
a(lp4529
L1666536L
aag12
aa(lp4530
L27937L
aS'C[C@H]1CCC[C@H](\\C=C\\[C@@H]2[C@H]3CCCC[C@@H]3C[C@H]4[C@@H]2[C@H](C)OC4=O)N1C'
p4531
a(lp4532
g1081
aag7
(S'7.20'
p4533
tp4534
Rp4535
a(lp4536
L5084360L
aag12
aa(lp4537
L118069L
aS'[Cl-].C[N+](C)(C)CC#CCOC(=O)Nc1cccc(Cl)c1'
p4538
a(lp4539
g1081
aag7
(S'5.62'
p4540
tp4541
Rp4542
a(lp4543
L3075008L
aag12
aa(lp4544
L343351L
aS'Cc1c(NC2CC2)nc(nc1N3CCC(O)CC3)C4CC4'
p4545
a(lp4546
g1081
aag7
(S'6.30'
p4547
tp4548
Rp4549
a(lp4550
L1702731L
aag12
aa(lp4551
L343358L
aS'Cc1c(NC2CC2)nc(nc1N3CCC(=O)CC3)C4CC4'
p4552
a(lp4553
g1081
aag7
(S'5.49'
p4554
tp4555
Rp4556
a(lp4557
L1702730L
aag12
aa(lp4558
L343359L
aS'Cc1c(NC2CC2)nc(nc1N3CCCCC3)C4CC4'
p4559
a(lp4560
g1081
aag7
(S'7.89'
p4561
tp4562
Rp4563
a(lp4564
L1702729L
aag12
aa(lp4565
L427328L
aS'[Br-].C[N+]1(C)[C@@H]2C[C@@H](C[C@@H]1[C@H]3O[C@@H]23)OC(=O)C(O)(c4cccs4)c5cccs5'
p4566
a(lp4567
g1081
ag1081
ag1081
ag1081
ag1081
ag1081
aag7
(S'10.385'
p4568
tp4569
Rp4570
a(lp4571
L2709740L
aL3591682L
aL5238429L
aL7844972L
aL13846945L
aL13846949L
aag12
aa(lp4572
L114912L
aS'CCOC(=O)N1CCC(CC1)N2CCC(CC2)C(=C)c3ccc(cc3)S(=O)(=O)c4ccc(OC)cc4'
p4573
a(lp4574
g1081
aag7
(S'8.43'
p4575
tp4576
Rp4577
a(lp4578
L349954L
aag12
aa(lp4579
L1144231L
aS'CC(C)N(CC[C@H](c1ccccc1)c2cc(CCCNC(=O)Cc3cccc(CC(C)(C)NC[C@H](O)c4ccc(O)c(CO)c4)c3)ccc2O)C(C)C'
p4580
a(lp4581
g1081
aag7
(S'10.04'
p4582
tp4583
Rp4584
a(lp4585
L6185841L
aag12
aa(lp4586
L675154L
aS'CN1[C@@H]2CC[C@H]1C[C@H](C2)OC(c3ccccc3)c4ccccc4'
p4587
a(lp4588
g1081
ag1081
aag7
(S'9.23'
p4589
tp4590
Rp4591
a(lp4592
L7617941L
aL7617942L
aag12
aa(lp4593
L675158L
aS'C[C@H]1C[C@H]2[C@@H]3CCC4=CC(=O)C=C[C@]4(C)[C@@]3(F)[C@@H](O)C[C@]2(C)[C@@]1(O)C(=O)COP(=O)(O)O'
p4594
a(lp4595
g1081
ag1081
aag7
(S'5.53'
p4596
tp4597
Rp4598
a(lp4599
L7621027L
aL7621028L
aag12
aa(lp4600
L1348836L
aS'[I-].C[N+](C)(C)C[C@H]1COCC(O1)(c2ccccc2)c3ccccc3'
p4601
a(lp4602
g1081
aag7
(S'8.83'
p4603
tp4604
Rp4605
a(lp4606
L10927302L
aag12
aa(lp4607
L1511397L
aS'CN1CCC(=C(C1)C(=O)OCCc2ccc3OCCc3c2)c4ccccc4F'
p4608
a(lp4609
g1081
aag7
(S'5.31'
p4610
tp4611
Rp4612
a(lp4613
L12627783L
aag12
aa(lp4614
L1604838L
aS'CC(C)(C)c1onc(NC(=O)C[N+]23CCC(CC2)[C@H](C3)OC(=O)C4(CCCCCC4)C5=CC=CC5)c1'
p4615
a(lp4616
g1081
aag7
(S'8.00'
p4617
tp4618
Rp4619
a(lp4620
L13833258L
aag12
aa(lp4621
L1604839L
aS'O=C(C[N+]12CCC(CC1)[C@H](C2)OC(=O)C3(CCCCCC3)C4=CC=CC4)Nc5ccccn5'
p4622
a(lp4623
g1081
aag7
(S'9.80'
p4624
tp4625
Rp4626
a(lp4627
L13833257L
aag12
aa(lp4628
L443757L
aS'CCCCCCCCCC(OC(=O)C(CCCCN(O)C(=O)C)NC(=O)c1coc(n1)c2ccccc2O)C(C)C(=O)NC3CCCCN(O)C3=O'
p4629
a(lp4630
g1081
ag1081
aag7
(S'5.565'
p4631
tp4632
Rp4633
a(lp4634
L2544777L
aL2544783L
aag12
aa(lp4635
L443758L
aS'CCCCCCCCCCCC(OC(=O)C(CCCCN(O)C(=O)C)NC(=O)c1coc(n1)c2ccccc2O)C(C)C(=O)NC3CCCCN(O)C3=O'
p4636
a(lp4637
g1081
ag1081
aag7
(S'6.545'
p4638
tp4639
Rp4640
a(lp4641
L2544778L
aL2544784L
aag12
aa(lp4642
L357743L
aS'O[C@@H]1C[C@H](N(C1)C(=O)CC(c2ccc(F)cc2)(c3ccc(F)cc3)c4ccc(F)cc4)C(=O)N5CCC[C@@H]5C(=O)NCC6CCN(CC7CCC7)CC6'
p4643
a(lp4644
g1081
aag7
(S'9.28'
p4645
tp4646
Rp4647
a(lp4648
L1763995L
aag12
aa(lp4649
L443760L
aS'CCCCCCCCCCCCCC(OC(=O)C(CCCCN(O)C(=O)C)NC(=O)c1coc(n1)c2ccccc2O)C(C)C(=O)NC3CCCCN(O)C3=O'
p4650
a(lp4651
g1081
ag1081
aag7
(S'6.30'
p4652
tp4653
Rp4654
a(lp4655
L2544780L
aL2544786L
aag12
aa(lp4656
L357745L
aS'CC(C)NC(=O)[C@H]1CCCN1C(=O)[C@@H]2C[C@@H](O)CN2C(=O)CC(c3ccc(F)cc3)(c4ccc(F)cc4)c5ccc(F)cc5'
p4657
a(lp4658
g1081
aag7
(S'8.62'
p4659
tp4660
Rp4661
a(lp4662
L1763993L
aag12
aa(lp4663
L443762L
aS'CCCCCCCCCCCCCCCC(OC(=O)C(CCCCN(O)C(=O)C)NC(=O)c1coc(n1)c2ccccc2O)C(C)C(=O)NC3CCCCN(O)C3=O'
p4664
a(lp4665
g1081
ag1081
aag7
(S'5.54'
p4666
tp4667
Rp4668
a(lp4669
L2544782L
aL2544788L
aag12
aa(lp4670
L357747L
aS'O[C@@H]1C[C@H](N(C1)C(=O)CC(c2ccc(F)cc2)(c3ccc(F)cc3)c4ccc(F)cc4)C(=O)N5CCC[C@@H]5C(=O)NCC6CCN(CC6)C7CCCC7'
p4671
a(lp4672
g1081
aag7
(S'9.29'
p4673
tp4674
Rp4675
a(lp4676
L1763992L
aag12
aa(lp4677
L1348984L
aS'CN(C)CC1COCC(O1)(c2ccccc2)c3ccccc3.OC(=O)C(=O)O'
p4678
a(lp4679
g1081
aag7
(S'8.66'
p4680
tp4681
Rp4682
a(lp4683
L10927298L
aag12
aa(lp4684
L1348985L
aS'CN(C)C[C@H]1COCC(O1)(c2ccccc2)c3ccccc3.OC(=O)C(=O)O'
p4685
a(lp4686
g1081
aag7
(S'8.82'
p4687
tp4688
Rp4689
a(lp4690
L10927297L
aag12
aa(lp4691
L1348986L
aS'CN(C)C[C@@H]1COCC(O1)(c2ccccc2)c3ccccc3.OC(=O)C(=O)O'
p4692
a(lp4693
g1081
aag7
(S'7.14'
p4694
tp4695
Rp4696
a(lp4697
L10927296L
aag12
aa(lp4698
L335228L
aS'CO[C@]1(CN2CCC1CC2)C#CC(O)(c3ccccc3)c4ccccc4'
p4699
a(lp4700
g1081
aag7
(S'7.20'
p4701
tp4702
Rp4703
a(lp4704
L1666563L
aag12
aa(lp4705
L335229L
aS'CO[C@@]1(CN2CCC1CC2)C#CC(O)(C3CCCCC3)c4ccccc4'
p4706
a(lp4707
g1081
aag7
(S'9.70'
p4708
tp4709
Rp4710
a(lp4711
L1666562L
aag12
aa(lp4712
L343422L
aS'Cc1c(NC2CC2)nc(nc1N3CCSCC3)C4CC4'
p4713
a(lp4714
g1081
aag7
(S'7.10'
p4715
tp4716
Rp4717
a(lp4718
L1702686L
aag12
aa(lp4719
L357760L
aS'NCC1CCN(CC1)C(=O)[C@H]2CCCN2C(=O)[C@@H]3CCCN3C(=O)CC(c4ccccc4)(c5ccccc5)c6ccccc6.OC(=O)C(F)(F)F'
p4720
a(lp4721
g1081
aag7
(S'6.82'
p4722
tp4723
Rp4724
a(lp4725
L1763923L
aag12
aa(lp4726
L357761L
aS'OC(=O)C(F)(F)F.O=C(CC(c1ccccc1)(c2ccccc2)c3ccccc3)N4CCC[C@H]4C(=O)N5CCC[C@@H]5C(=O)NCC6CCNCC6'
p4727
a(lp4728
g1081
aag7
(S'7.31'
p4729
tp4730
Rp4731
a(lp4732
L1763924L
aag12
aa(lp4733
L357763L
aS'OC(=O)C(F)(F)F.O=C(CC(c1ccccc1)(c2ccccc2)c3ccccc3)N4CCC[C@H]4C(=O)N5CCC[C@@H]5C(=O)NC[C@@H]6CCCNC6'
p4734
a(lp4735
g1081
aag7
(S'7.64'
p4736
tp4737
Rp4738
a(lp4739
L1763925L
aag12
aa(lp4740
L716167L
aS'CCc1nc(cs1)C(=O)N2CCOC3(CCN(Cc4ccc(Cl)cc4)CC3)C2'
p4741
a(lp4742
g1081
aag7
(S'7.80'
p4743
tp4744
Rp4745
a(lp4746
L3591707L
aag12
aa(lp4747
L34197L
aS'CN1CCN(CC1)C2=Nc3ccccc3Nc4sc(C)cc24'
p4748
a(lp4749
g1081
ag1081
aag7
(S'6.745'
p4750
tp4751
Rp4752
a(lp4753
L7735922L
aL7735923L
aag12
aa(lp4754
L1559108L
aS'CCN(CC)CCOC(=O)c1ccccc1Sc2ccc(Cl)cc2'
p4755
a(lp4756
g1081
aag7
(S'6.96'
p4757
tp4758
Rp4759
a(lp4760
L13288585L
aag12
aa(lp4761
L1604847L
aS'Fc1cccnc1NC(=O)C[N+]23CCC(CC2)[C@H](C3)OC(=O)C4(CCCCCC4)C5=CC=CC5'
p4762
a(lp4763
g1081
aag7
(S'9.60'
p4764
tp4765
Rp4766
a(lp4767
L13833249L
aag12
aa(lp4768
L654234L
aS'CCN1CCC(=C(C1)C(=O)OC)c2ccccc2'
p4769
a(lp4770
g1081
aag7
(S'5.26'
p4771
tp4772
Rp4773
a(lp4774
L12629812L
aag12
aa(lp4775
L343460L
aS'CC1CCN(CC1)c2nc(nc(NC3CC3)c2C)C4CC4'
p4776
a(lp4777
g1081
aag7
(S'7.80'
p4778
tp4779
Rp4780
a(lp4781
L1702728L
aag12
aa(lp4782
L155045L
aS'Clc1ccc2Oc3ccccc3N=C(N4CCNCC4)c2c1'
p4783
a(lp4784
g1081
ag1081
aag7
(S'6.085'
p4785
tp4786
Rp4787
a(lp4788
L7624173L
aL7624174L
aag12
aa(lp4789
L335271L
aS'CO[C@@]1(CN2CCC1CC2)C#C[C@](O)(C3CCCCC3)c4ccccc4'
p4790
a(lp4791
g1081
aag7
(S'8.49'
p4792
tp4793
Rp4794
a(lp4795
L1666560L
aag12
aa(lp4796
L1144232L
aS'CC(C)N(CC[C@H](c1ccccc1)c2cc(CCCNC(=O)Cc3cccc(CC(C)(C)NC[C@H](O)c4ccc(O)c(NS(=O)(=O)C)c4)c3)ccc2O)C(C)C'
p4797
a(lp4798
g1081
aag7
(S'9.56'
p4799
tp4800
Rp4801
a(lp4802
L6185842L
aag12
aa(lp4803
L357801L
aS'NC1CCCC(C1)NC(=O)[C@H]2CCCN2C(=O)[C@@H]3CCCN3C(=O)CC(c4ccccc4)(c5ccccc5)c6ccccc6.OC(=O)C(F)(F)F'
p4804
a(lp4805
g1081
aag7
(S'6.77'
p4806
tp4807
Rp4808
a(lp4809
L1763927L
aag12
aa(lp4810
L335278L
aS'COC1(CN2CCC1CC2)C#CC(O)(C3CCCC3)c4ccccc4'
p4811
a(lp4812
g1081
aag7
(S'9.60'
p4813
tp4814
Rp4815
a(lp4816
L1666559L
aag12
aa(lp4817
L335279L
aS'COC1(CN2CCC1CC2)C#CC(O)(C3CCC3)c4ccccc4'
p4818
a(lp4819
g1081
aag7
(S'9.00'
p4820
tp4821
Rp4822
a(lp4823
L1666558L
aag12
aa(lp4824
L499120L
aS'[Br-].OC(c1ccccc1)(c2ccccc2)C34CC[N+](CCOCc5ccccc5)(CC3)CC4'
p4825
a(lp4826
g1081
aag7
(S'10.22'
p4827
tp4828
Rp4829
a(lp4830
L2421828L
aag12
aa(lp4831
L357809L
aS'N[C@H]1CCCC[C@@H]1NC(=O)[C@H]2CCCN2C(=O)[C@@H]3CCCN3C(=O)CC(c4ccccc4)(c5ccccc5)c6ccccc6.OC(=O)C(F)(F)F'
p4832
a(lp4833
g1081
aag7
(S'7.32'
p4834
tp4835
Rp4836
a(lp4837
L1763928L
aag12
aa(lp4838
L1559113L
aS'CCN(CC)CCOC(=O)C(O)(C1CCCCC1)c2cccs2'
p4839
a(lp4840
g1081
aag7
(S'8.18'
p4841
tp4842
Rp4843
a(lp4844
L13288582L
aag12
aa(lp4845
L1559114L
aS'CN1CCC(CC1)OC(=O)C(CO)c2cccc(c2)C(F)(F)F'
p4846
a(lp4847
g1081
aag7
(S'7.95'
p4848
tp4849
Rp4850
a(lp4851
L13288581L
aag12
aa(lp4852
L1604853L
aS'Cc1ccc(NC(=O)C[N+]23CCC(CC2)[C@H](C3)OC(=O)C4(CCCCCC4)C5=CC=CC5)cn1'
p4853
a(lp4854
g1081
aag7
(S'9.10'
p4855
tp4856
Rp4857
a(lp4858
L13833243L
aag12
aa(lp4859
L1559115L
aS'CCN(CC)CCOC(=O)C(c1ccccc1)C2(O)CCCCC2'
p4860
a(lp4861
g1081
aag7
(S'8.08'
p4862
tp4863
Rp4864
a(lp4865
L13288580L
aag12
aa(lp4866
L560592L
aS'O=C(O[C@H]1CN2CCC1CC2)C3c4ccccc4Oc5ccccc35'
p4867
a(lp4868
g1081
aag7
(S'9.12'
p4869
tp4870
Rp4871
a(lp4872
L2708919L
aag12
aa(lp4873
L368083L
aS'[Cl-].CC(C)(C)CC(C)(C)c1ccc(OCCOCC[N+](C)(C)Cc2ccccc2)cc1'
p4874
a(lp4875
g1081
ag1081
aag7
(S'6.755'
p4876
tp4877
Rp4878
a(lp4879
L7600801L
aL7600802L
aag12
aa(lp4880
L560596L
aS'O[C@](C1CCCC1)(C(=O)O[C@H]2CN3CCC2CC3)c4cccs4'
p4881
a(lp4882
g1081
aag7
(S'9.15'
p4883
tp4884
Rp4885
a(lp4886
L2708927L
aag12
aa(lp4887
L62934L
aS'Clc1ccc2Nc3ccccc3C(=Nc2c1)N4CCNCC4'
p4888
a(lp4889
g1081
aag7
(S'7.05'
p4890
tp4891
Rp4892
a(lp4893
L3430245L
aag12
aa(lp4894
L560599L
aS'[Br-].CCCCCCC[N+]12CCC(CC1)[C@H](C2)OC(=O)C(O)(c3cccs3)c4cccs4'
p4895
a(lp4896
g1081
aag7
(S'9.41'
p4897
tp4898
Rp4899
a(lp4900
L2708932L
aag12
aa(lp4901
L1383332L
aS'CCN(CC)CCOC(=O)C(N1CCCCC1)c2ccccc2'
p4902
a(lp4903
g1081
aag7
(S'6.73'
p4904
tp4905
Rp4906
a(lp4907
L13288584L
aag12
aa(lp4908
L560602L
aS'[Br-].OC(C(=O)O[C@H]1C[N+]2(CCCCc3ccccc3)CCC1CC2)(c4cccs4)c5cccs5'
p4909
a(lp4910
g1081
aag7
(S'9.35'
p4911
tp4912
Rp4913
a(lp4914
L2708935L
aag12
aa(lp4915
L560603L
aS'[Br-].O[C@](C1CCCC1)(C(=O)O[C@H]2C[N+]3(CCCOc4ccccc4)CCC2CC3)c5cccs5'
p4916
a(lp4917
g1081
aag7
(S'8.79'
p4918
tp4919
Rp4920
a(lp4921
L2708942L
aag12
aa(lp4922
L1074131L
aS'NCCCCCCCCN1CCC(CC1)OC(=O)Nc2ccccc2c3ccccc3'
p4923
a(lp4924
g1081
aag7
(S'8.74'
p4925
tp4926
Rp4927
a(lp4928
L5238418L
aag12
aa(lp4929
L675304L
aS'CN(C)CC[C@@H](c1ccc(Cl)cc1)c2ccccn2'
p4930
a(lp4931
g1081
ag1081
aag7
(S'5.925'
p4932
tp4933
Rp4934
a(lp4935
L7678875L
aL7678876L
aag12
aa(lp4936
L1144297L
aS'CC(C)N(CC[C@H](c1ccccc1)c2cc(CCNC[C@H](O)c3ccc(O)c(NS(=O)(=O)C)c3)ccc2O)C(C)C'
p4937
a(lp4938
g1081
aag7
(S'8.21'
p4939
tp4940
Rp4941
a(lp4942
L6185844L
aag12
aa(lp4943
L1144298L
aS'CC(C)N(CC[C@H](c1ccccc1)c2cc(CCCNC(=O)CCCCCCCCCCNC[C@H](O)c3ccc(O)c(NS(=O)(=O)C)c3)ccc2O)C(C)C'
p4944
a(lp4945
g1081
aag7
(S'8.84'
p4946
tp4947
Rp4948
a(lp4949
L6185845L
aag12
aa(lp4950
L1144299L
aS'CC(C)N(CC[C@H](c1ccccc1)c2cc(CCCCOc3ccc(CCNC[C@H](O)c4ccc(O)c(NS(=O)(=O)C)c4)cc3)ccc2O)C(C)C'
p4951
a(lp4952
g1081
aag7
(S'9.20'
p4953
tp4954
Rp4955
a(lp4956
L6185846L
aag12
aa(lp4957
L1144300L
aS'CC(C)N(CC[C@H](c1ccccc1)c2cc(CCCCOc3ccc(CCNC[C@H](O)c4ccc(O)c(CO)c4)cc3)ccc2O)C(C)C'
p4958
a(lp4959
g1081
aag7
(S'9.12'
p4960
tp4961
Rp4962
a(lp4963
L6185847L
aag12
aa(lp4964
L1144301L
aS'CC(C)N(CC[C@H](c1ccccc1)c2cc(CCCCOc3ccc(CCNC[C@H](O)c4ccc(O)c(O)c4)cc3)ccc2O)C(C)C'
p4965
a(lp4966
g1081
aag7
(S'8.33'
p4967
tp4968
Rp4969
a(lp4970
L6185848L
aag12
aa(lp4971
L1144302L
aS'CC(C)N(CC[C@H](c1ccccc1)c2cc(CCCCOCCCCCCNC[C@H](O)c3ccc(O)c(NS(=O)(=O)C)c3)ccc2O)C(C)C'
p4972
a(lp4973
g1081
aag7
(S'9.00'
p4974
tp4975
Rp4976
a(lp4977
L6185849L
aag12
aa(lp4978
L1144303L
aS'CC(C)N(CC[C@H](c1ccccc1)c2cc(CCCCOc3ccc(CCNC[C@H](O)c4ccc(O)c5NC(=O)C=Cc45)cc3)ccc2O)C(C)C'
p4979
a(lp4980
g1081
aag7
(S'9.52'
p4981
tp4982
Rp4983
a(lp4984
L6185850L
aag12
aa(lp4985
L716275L
aS'CC(C)c1nc(cs1)C(=O)N2CCOC3(CCN(Cc4ccc(Cl)cc4)CC3)C2'
p4986
a(lp4987
g1081
aag7
(S'7.80'
p4988
tp4989
Rp4990
a(lp4991
L3591709L
aag12
aa(lp4992
L716276L
aS'CC(C)c1nc(cs1)C(=O)N2CCOC3(CCN(Cc4ccccc4)CC3)C2'
p4993
a(lp4994
g1081
aag7
(S'8.40'
p4995
tp4996
Rp4997
a(lp4998
L3591710L
aag12
aa(lp4999
L1529L
aS'CC1(COc2ccc(CC3SC(=O)NC3=O)cc2)CCCCC1'
p5000
a(lp5001
g1081
aag7
(S'5.50'
p5002
tp5003
Rp5004
a(lp5005
L7686428L
aag12
aa(lp5006
L8917L
aS'Clc1ccc(COC(Cn2ccnc2)c3ccc(Cl)cc3Cl)c(Cl)c1'
p5007
a(lp5008
g1081
ag1081
aag7
(S'5.84'
p5009
tp5010
Rp5011
a(lp5012
L7756231L
aL7756232L
aag12
aa(lp5013
L351785L
aS'CN[C@@H]1CCN(C1)c2ccc(cn2)N3N=Cc4cc(sc4C3=O)c5ccc(cc5)C(F)(F)F'
p5014
a(lp5015
g1081
aag7
(S'6.80'
p5016
tp5017
Rp5018
a(lp5019
L1746737L
aag12
aa(lp5020
L357934L
aS'O=C(CC(c1ccccc1)(c2ccccc2)c3ccccc3)N4CCC[C@H]4C(=O)N5CCC[C@@H]5C(=O)NC[C@H]6CCCNC6'
p5021
a(lp5022
g1081
aag7
(S'7.00'
p5023
tp5024
Rp5025
a(lp5026
L1763922L
aag12
aa(lp5027
L1147513L
aS'Fc1cccc(CN(C(=O)O[C@H]2CN3CCC2CC3)c4cccc(F)c4)c1'
p5028
a(lp5029
g1081
aag7
(S'8.62'
p5030
tp5031
Rp5032
a(lp5033
L6210489L
aag12
aa(lp5034
L1605559L
aS'O=C(O[C@H]1CN2CCC1CC2)C3(CCCCCC3)c4cccs4'
p5035
a(lp5036
g1081
aag7
(S'10.10'
p5037
tp5038
Rp5039
a(lp5040
L13833287L
aag12
aa(lp5041
L1605560L
aS'C[N+]12CCC(CC1)[C@H](C2)OC(=O)C3(CCCCCC3)C4=CC=CC4'
p5042
a(lp5043
g1081
aag7
(S'8.60'
p5044
tp5045
Rp5046
a(lp5047
L13833286L
aag12
aa(lp5048
L343637L
aS'CCC1CCN(CC1)c2nc(nc(NC3CC3)c2C)C4CC4'
p5049
a(lp5050
g1081
aag7
(S'7.30'
p5051
tp5052
Rp5053
a(lp5054
L1702727L
aag12
aa(lp5055
L394169L
aS'Cc1c(nc(nc1N2CC(=O)C2)C3CC3)N4CCCCCC4'
p5056
a(lp5057
g1081
aag7
(S'6.20'
p5058
tp5059
Rp5060
a(lp5061
L1953886L
aag12
aa(lp5062
L1584102L
aS'C(N[C@H]1C2C3CC4C5C3CC2C5C14)C67C8C9C%10C(C6C8%10)C79'
p5063
a(lp5064
g1081
aag7
(S'6.33'
p5065
tp5066
Rp5067
a(lp5068
L13469893L
aag12
aa(lp5069
L343642L
aS'Cc1c(NC2CC2)nc(nc1N3CCC=CC3)C4CC4'
p5070
a(lp5071
g1081
aag7
(S'7.49'
p5072
tp5073
Rp5074
a(lp5075
L1702726L
aag12
aa(lp5076
L343643L
aS'Cc1c(NC2CC2)nc(nc1N3CCC(C)(C)CC3)C4CC4'
p5077
a(lp5078
g1081
aag7
(S'7.60'
p5079
tp5080
Rp5081
a(lp5082
L1702725L
aag12
aa(lp5083
L343644L
aS'Cc1c(NC2CC2)nc(nc1N3CCC4(CCCC4)CC3)C5CC5'
p5084
a(lp5085
g1081
aag7
(S'6.80'
p5086
tp5087
Rp5088
a(lp5089
L1702724L
aag12
aa(lp5090
L1605562L
aS'Fc1ccc(C[N+]23CCC(CC2)[C@H](C3)OC(=O)C4(CCCCCC4)C5=CC=CC5)cc1F'
p5091
a(lp5092
g1081
aag7
(S'7.40'
p5093
tp5094
Rp5095
a(lp5096
L13833284L
aag12
aa(lp5097
L9826L
aS'Cc1cccc(C(=O)N2CCC(CC2)N3CCC(Cc4ccc(cc4)S(=O)(=O)c5cccc(Cl)c5)CC3)c1N'
p5098
a(lp5099
g1081
aag7
(S'6.15'
p5100
tp5101
Rp5102
a(lp5103
L12629831L
aag12
aa(lp5104
L1605563L
aS'COc1cccc(C[N+]23CCC(CC2)[C@H](C3)OC(=O)C4(CCCCCC4)C5=CC=CC5)c1'
p5105
a(lp5106
g1081
aag7
(S'8.50'
p5107
tp5108
Rp5109
a(lp5110
L13833283L
aag12
aa(lp5111
L343652L
aS'Cc1c(NC2CC2)nc(nc1N3CCC(Cc4ccccc4)CC3)C5CC5'
p5112
a(lp5113
g1081
aag7
(S'6.10'
p5114
tp5115
Rp5116
a(lp5117
L1702723L
aag12
aa(lp5118
L1147514L
aS'Cc1cccc(c1)N(Cc2cc(F)c(F)cc2F)C(=O)O[C@H]3CN4CCC3CC4'
p5119
a(lp5120
g1081
aag7
(S'8.85'
p5121
tp5122
Rp5123
a(lp5124
L6210490L
aag12
aa(lp5125
L716393L
aS'CC(C)c1nc(cs1)C(=O)N2CCOC3(CCN(Cc4ccccc4Cl)CC3)C2'
p5126
a(lp5127
g1081
aag7
(S'7.70'
p5128
tp5129
Rp5130
a(lp5131
L3591711L
aag12
aa(lp5132
L716394L
aS'CC(C)c1nc(cs1)C(=O)N2CCOC3(CCN(Cc4cccc(Cl)c4)CC3)C2'
p5133
a(lp5134
g1081
aag7
(S'8.30'
p5135
tp5136
Rp5137
a(lp5138
L3591712L
aag12
aa(lp5139
L1605565L
aS'Cc1ccc(CC[N+]23CCC(CC2)[C@H](C3)OC(=O)C4(CCCCCC4)C5=CC=CC5)s1'
p5140
a(lp5141
g1081
aag7
(S'10.20'
p5142
tp5143
Rp5144
a(lp5145
L13833281L
aag12
aa(lp5146
L370289L
aS'C[N+]1(C)[C@@H]2C[C@H](C[C@H]1[C@@H]3O[C@H]23)OC(=O)[C@H](CO)c4ccccc4'
p5147
a(lp5148
g1081
aag7
(S'9.87'
p5149
tp5150
Rp5151
a(lp5152
L2983692L
aag12
aa(lp5153
L335476L
aS'COC1(CN2CCC1CC2)C#CC(O)(c3ccccc3)c4ccc(F)nc4'
p5154
a(lp5155
g1081
aag7
(S'9.49'
p5156
tp5157
Rp5158
a(lp5159
L1666535L
aag12
aa(lp5160
L1379957L
aS'[Br-].CCC(C)C(C(=O)OCC[N+](C)(CC)CC)c1ccccc1'
p5161
a(lp5162
g1081
ag1081
aag7
(S'7.92'
p5163
tp5164
Rp5165
a(lp5166
L7783066L
aL7783067L
aag12
aa(lp5167
L1584103L
aS'CN(Cc1ccccc1)[C@H]2C3C4CC5C6C4C2C6C(=O)C35'
p5168
a(lp5169
g1081
aag7
(S'5.98'
p5170
tp5171
Rp5172
a(lp5173
L13469909L
aag12
aa(lp5174
L394175L
aS'FC1CN(C1)c2cc(nc(n2)C3CC3)N4CCCCCC4'
p5175
a(lp5176
g1081
aag7
(S'6.30'
p5177
tp5178
Rp5179
a(lp5180
L1953882L
aag12
aa(lp5181
L1605568L
aS'O=C(O[C@H]1C[N+]2(CCOc3ccccc3)CCC1CC2)C4(CCCCCC4)C5=CC=CC5'
p5182
a(lp5183
g1081
aag7
(S'9.80'
p5184
tp5185
Rp5186
a(lp5187
L13833278L
aag12
aa(lp5188
L372354L
aS'CC(C)C[C@H](NC(=O)CNC(=O)C(C)(C)NC(=O)[C@@H](NC(=O)C(C)(C)NC(=O)[C@H](CCC(=O)N)NC(=O)[C@H](C)NC(=O)C(C)(C)NC(=O)[C@H](C)NC(=O)C(C)(C)NC(=O)[C@@H]1CCCN1C(=O)C(C)(C)NC(=O)C)C(C)C)C(=O)NC(C)(C)C(=O)N2CCC[C@H]2C(=O)N[C@@H](C(C)C)C(=O)NC(C)(C)C(=O)NC(C)(C)C(=O)N[C@@H](CCC(=O)O)C(=O)N[C@@H](CCC(=O)N)C(=O)N[C@H](CO)Cc3ccccc3'
p5189
a(lp5190
g1081
aag7
(S'6.21'
p5191
tp5192
Rp5193
a(lp5194
L1826499L
aag12
aa(lp5195
L1147499L
aS'O=C(O[C@H]1CN2CCC1CC2)N(c3ccccc3)c4ccccc4'
p5196
a(lp5197
g1081
aag7
(S'6.10'
p5198
tp5199
Rp5200
a(lp5201
L6210475L
aag12
aa(lp5202
L1605569L
aS'O=C(O[C@H]1C[N+]2(CCOCc3ccccc3)CCC1CC2)C4(CCCCCC4)C5=CC=CC5'
p5203
a(lp5204
g1081
aag7
(S'9.90'
p5205
tp5206
Rp5207
a(lp5208
L13833277L
aag12
aa(lp5209
L1147500L
aS'O=C(O[C@H]1CN2CCC1CC2)N(Cc3ccccc3)c4ccccc4'
p5210
a(lp5211
g1081
aag7
(S'8.92'
p5212
tp5213
Rp5214
a(lp5215
L6210476L
aag12
aa(lp5216
L52874L
aS'Clc1ccc(COC(Cn2ccnc2)c3ccc(Cl)cc3Cl)cc1'
p5217
a(lp5218
g1081
ag1081
aag7
(S'6.085'
p5219
tp5220
Rp5221
a(lp5222
L7652034L
aL7652035L
aag12
aa(lp5223
L1074114L
aS'CN1CCC(CC1)OC(=O)Nc2ccccc2c3ccccc3'
p5224
a(lp5225
g1081
aag7
(S'7.66'
p5226
tp5227
Rp5228
a(lp5229
L5238401L
aag12
aa(lp5230
L1147501L
aS'O=C(O[C@H]1CN2CCC1CC2)N(CCc3ccccc3)c4ccccc4'
p5231
a(lp5232
g1081
aag7
(S'8.44'
p5233
tp5234
Rp5235
a(lp5236
L6210477L
aag12
aa(lp5237
L1147502L
aS'O=C(O[C@H]1CN2CCC1CC2)N(Cc3cccs3)c4ccccc4'
p5238
a(lp5239
g1081
aag7
(S'9.22'
p5240
tp5241
Rp5242
a(lp5243
L6210478L
aag12
aa(lp5244
L358046L
aS'O[C@@H]1C[C@H](N(C1)C(=O)CC(c2ccc(Cl)cc2)(c3ccc(Cl)cc3)c4ccc(Cl)cc4)C(=O)N5CCC[C@@H]5C(=O)NC[C@@H]6CCCNC6'
p5245
a(lp5246
g1081
aag7
(S'8.80'
p5247
tp5248
Rp5249
a(lp5250
L1764001L
aag12
aa(lp5251
L358047L
aS'O[C@@H]1C[C@H](N(C1)C(=O)CC(c2ccc(F)cc2)(c3ccc(F)cc3)c4ccc(F)cc4)C(=O)N5CCC[C@@H]5C(=O)NCC6CCNCC6'
p5252
a(lp5253
g1081
aag7
(S'9.52'
p5254
tp5255
Rp5256
a(lp5257
L1764006L
aag12
aa(lp5258
L358048L
aS'O[C@@H]1C[C@H](N(C1)C(=O)CC(c2ccc(F)cc2)(c3ccc(F)cc3)c4ccc(F)cc4)C(=O)N5CCC[C@@H]5C(=O)NCCC6CCNCC6'
p5259
a(lp5260
g1081
aag7
(S'9.32'
p5261
tp5262
Rp5263
a(lp5264
L1764000L
aag12
aa(lp5265
L358049L
aS'O[C@@H]1C[C@H](N(C1)C(=O)CC(c2ccc(F)cc2)(c3ccc(F)cc3)c4ccc(F)cc4)C(=O)N5CCC[C@@H]5C(=O)NC[C@@H]6CCCNC6'
p5266
a(lp5267
g1081
aag7
(S'9.41'
p5268
tp5269
Rp5270
a(lp5271
L1763999L
aag12
aa(lp5272
L335528L
aS'COC1(CN2CCC1CC2)C#CC(O)(c3ccccc3)c4cccnn4'
p5273
a(lp5274
g1081
aag7
(S'8.10'
p5275
tp5276
Rp5277
a(lp5278
L1666533L
aag12
aa(lp5279
L335529L
aS'COC1(CN2CCC1CC2)C#CC(O)(c3ccccc3)c4cncnc4'
p5280
a(lp5281
g1081
aag7
(S'9.00'
p5282
tp5283
Rp5284
a(lp5285
L1666532L
aag12
aa(lp5286
L715719L
aS'Clc1ccc(CN2CCC3(CC2)CN(CCO3)C(=O)c4cnsn4)cc1'
p5287
a(lp5288
g1081
aag7
(S'6.70'
p5289
tp5290
Rp5291
a(lp5292
L3591699L
aag12
aa(lp5293
L558766L
aS'[Br-].CC(C(=O)O[C@H]1C[N+]2(CCCOc3ccccc3)CCC1CC2)(c4cccs4)c5cccs5'
p5294
a(lp5295
g1081
aag7
(S'9.23'
p5296
tp5297
Rp5298
a(lp5299
L2708947L
aag12
aa(lp5300
L1074120L
aS'CCCCCCCN1CCC(CC1)OC(=O)Nc2ccccc2c3ccccc3'
p5301
a(lp5302
g1081
aag7
(S'8.29'
p5303
tp5304
Rp5305
a(lp5306
L5238407L
aag12
aa(lp5307
L1147507L
aS'CC(C)N(C(=O)O[C@H]1CN2CCC1CC2)c3ccccc3'
p5308
a(lp5309
g1081
aag7
(S'6.18'
p5310
tp5311
Rp5312
a(lp5313
L6210483L
aag12
aa(lp5314
L1147508L
aS'O=C(O[C@H]1CN2CCC1CC2)N(Cc3ccccc3)Cc4cccs4'
p5315
a(lp5316
g1081
aag7
(S'7.65'
p5317
tp5318
Rp5319
a(lp5320
L6210484L
aag12
aa(lp5321
L292542L
aS'O=C(CCCNC(=O)CNC(=O)CC(c1ccccc1)(c2ccccc2)c3ccccc3)NCC4CCCN(CC5CCCCC5)C4'
p5322
a(lp5323
g1081
aag7
(S'8.48'
p5324
tp5325
Rp5326
a(lp5327
L1200340L
aag12
aa(lp5328
L229058L
aS'CCN(CC)CC#CCOC(=O)C(O)(C1CCCCC1)c2ccccc2'
p5329
a(lp5330
g1081
ag1081
ag1081
ag1081
ag1081
aag7
(S'8.89'
p5331
tp5332
Rp5333
a(lp5334
L1666530L
aL1960490L
aL7744645L
aL7744646L
aL10927294L
aag12
aa(lp5335
L716489L
aS'CC(C)c1nc(cs1)C(=O)N2CCOC3(CCN(Cc4ccccc4C)CC3)C2'
p5336
a(lp5337
g1081
aag7
(S'6.40'
p5338
tp5339
Rp5340
a(lp5341
L3591713L
aag12
aa(lp5342
L702157L
aS'O=C(Cc1ccccc1)NC2CCN(CCCN3C(=O)COc4ccccc34)CC2'
p5343
a(lp5344
g1081
aag7
(S'5.15'
p5345
tp5346
Rp5347
a(lp5348
L3430242L
aag12
aa(lp5349
L1147512L
aS'Fc1ccc(cc1)N(Cc2ccccc2)C(=O)O[C@H]3CN4CCC3CC4'
p5350
a(lp5351
g1081
aag7
(S'7.82'
p5352
tp5353
Rp5354
a(lp5355
L6210488L
aag12
aa(lp5356
L1074126L
aS'NCCCN1CCC(CC1)OC(=O)Nc2ccccc2c3ccccc3'
p5357
a(lp5358
g1081
aag7
(S'7.17'
p5359
tp5360
Rp5361
a(lp5362
L5238413L
aag12
aa(lp5363
L565881L
aS'O[C@@](C(=O)O[C@H]1CN2CCC1CC2)(c3ccccc3)c4cccs4'
p5364
a(lp5365
g1081
aag7
(S'9.38'
p5366
tp5367
Rp5368
a(lp5369
L2708925L
aag12
aa(lp5370
L1337051L
aS'CN(C)[C@@H]1CCCC[C@H]1N(C)CC(=O)N2c3ccccc3NC(=O)c4ccccc24.OC(=O)C(=O)O.OC(=O)C(=O)O'
p5371
a(lp5372
g1081
aag7
(S'7.35'
p5373
tp5374
Rp5375
a(lp5376
L2557050L
aag12
aa(lp5377
L1337052L
aS'CN(C)[C@H]1CCCC[C@@H]1N(C)CC(=O)N2c3ccccc3NC(=O)c4ccccc24.OC(=O)C(=O)O.OC(=O)C(=O)O'
p5378
a(lp5379
g1081
aag7
(S'7.40'
p5380
tp5381
Rp5382
a(lp5383
L2557049L
aag12
aa(lp5384
L1337053L
aS'CN(C)[C@@H]1CCCC[C@@H]1N(C)CC(=O)N2c3ccccc3NC(=O)c4ccccc24.OC(=O)C(=O)O.OC(=O)C(=O)O'
p5385
a(lp5386
g1081
aag7
(S'7.31'
p5387
tp5388
Rp5389
a(lp5390
L2557048L
aag12
aa(lp5391
L1337054L
aS'CN(C)[C@H]1CCCC[C@H]1N(C)CC(=O)N2c3ccccc3NC(=O)c4ccccc24.OC(=O)C(=O)O.OC(=O)C(=O)O'
p5392
a(lp5393
g1081
aag7
(S'7.39'
p5394
tp5395
Rp5396
a(lp5397
L2557047L
aag12
aa(lp5398
L134881L
aS'O=C(OC1CC2CCCC1N2)c3ccccc3'
p5399
a(lp5400
g1081
aag7
(S'5.89'
p5401
tp5402
Rp5403
a(lp5404
L158638L
aag12
aa(lp5405
L1524815L
aS'Clc1cc(Cl)cc(c1)N2CCNCC2'
p5406
a(lp5407
g1081
aag7
(S'5.10'
p5408
tp5409
Rp5410
a(lp5411
L12679351L
aag12
aa(lp5412
L1248997L
aS'[Br-].CC[N+]1(CCOC(=O)C(O)(c2ccccc2)c3ccccc3)CCCCC1'
p5413
a(lp5414
g1081
ag1081
aag7
(S'7.14'
p5415
tp5416
Rp5417
a(lp5418
L7745310L
aL7745311L
aag12
aa(lp5419
L702184L
aS'CCCCC1CCN(CCCC(=O)c2ccccc2C)CC1'
p5420
a(lp5421
g1081
aag7
(S'5.55'
p5422
tp5423
Rp5424
a(lp5425
L3430244L
aag12
aa(lp5426
L1147516L
aS'Cl.O=C(Nc1ccccc1c2ccccc2)OC34CCN(CC3)CC4'
p5427
a(lp5428
g1081
aag7
(S'8.22'
p5429
tp5430
Rp5431
a(lp5432
L6210493L
aag12
aa(lp5433
L478956L
aS'Brc1ccc(CN2C(=O)C(=O)c3ccccc23)cc1'
p5434
a(lp5435
g1081
aag7
(S'5.20'
p5436
tp5437
Rp5438
a(lp5439
L2623376L
aag12
aa(lp5440
L358126L
aS'O[C@@H]1C[C@H](N(C1)C(=O)CC(c2ccccc2)(c3ccccc3)c4ccccc4)C(=O)N5CCC[C@@H]5C(=O)NCC6CCNCC6'
p5441
a(lp5442
g1081
aag7
(S'8.38'
p5443
tp5444
Rp5445
a(lp5446
L1763991L
aag12
aa(lp5447
L445395L
aS'CN1[C@@H]2CC[C@H]1C[C@H](C2)OC(=O)C(CO)c3ccccc3'
p5448
a(lp5449
g1081
ag1081
ag1081
ag1081
ag1081
aag7
(S'9.05'
p5450
tp5451
Rp5452
a(lp5453
L1193801L
aL3430422L
aL7613028L
aL7613029L
aL13288588L
aag12
aa(lp5454
L1591028L
aS'CN1[C@@H]2CC[C@H]1CC(C2)OC(=O)[C@H](CO)c3ccccc3'
p5455
a(lp5456
g1081
ag1081
aag7
(S'9.57'
p5457
tp5458
Rp5459
a(lp5460
L13876475L
aL13876509L
aag12
aa(lp5461
L654293L
aS'CCN1CCC(=C(C1)C(=O)OCCc2ccc(OC)cc2)c3ccccc3'
p5462
a(lp5463
g1081
aag7
(S'5.86'
p5464
tp5465
Rp5466
a(lp5467
L12627789L
aag12
aa(lp5468
L343813L
aS'CN(Cc1ccccc1)c2nc(nc(NC3CC3)c2C)C4CC4'
p5469
a(lp5470
g1081
aag7
(S'6.60'
p5471
tp5472
Rp5473
a(lp5474
L1702711L
aag12
aa(lp5475
L343814L
aS'C1CCCN(CC1)c2cc(NC3CC3)nc(n2)C4CC4'
p5476
a(lp5477
g1081
aag7
(S'7.20'
p5478
tp5479
Rp5480
a(lp5481
L1702699L
aag12
aa(lp5482
L343815L
aS'Fc1c(NC2CC2)nc(nc1N3CCCCCC3)C4CC4'
p5483
a(lp5484
g1081
aag7
(S'6.60'
p5485
tp5486
Rp5487
a(lp5488
L1702698L
aag12
aa(lp5489
L358156L
aS'O[C@@H]1C[C@H](N(C1)C(=O)CC(c2ccccc2)(c3ccccc3)c4ccccc4)C(=O)N5CCC[C@@H]5C(=O)NCCC6CCNCC6'
p5490
a(lp5491
g1081
aag7
(S'8.55'
p5492
tp5493
Rp5494
a(lp5495
L1764005L
aag12
aa(lp5496
L358157L
aS'O[C@@H]1C[C@H](N(C1)C(=O)CC(c2ccccc2)(c3ccccc3)c4ccccc4)C(=O)N5CCC[C@@H]5C(=O)NC[C@@H]6CCCNC6'
p5497
a(lp5498
g1081
aag7
(S'8.43'
p5499
tp5500
Rp5501
a(lp5502
L1764004L
aag12
aa(lp5503
L343822L
aS'Brc1c(NC2CC2)nc(nc1N3CCCCCC3)C4CC4'
p5504
a(lp5505
g1081
aag7
(S'6.50'
p5506
tp5507
Rp5508
a(lp5509
L1702697L
aag12
aa(lp5510
L358159L
aS'O[C@@H]1C[C@H](N(C1)C(=O)CC(c2ccc(Cl)cc2)(c3ccc(Cl)cc3)c4ccc(Cl)cc4)C(=O)N5CCC[C@@H]5C(=O)NCCC6CCNCC6'
p5511
a(lp5512
g1081
aag7
(S'8.92'
p5513
tp5514
Rp5515
a(lp5516
L1764002L
aag12
aa(lp5517
L343832L
aS'Cc1c(NC2CCC2)nc(nc1N3CCCCCC3)C4CC4'
p5518
a(lp5519
g1081
aag7
(S'8.10'
p5520
tp5521
Rp5522
a(lp5523
L1702691L
aag12
aa(lp5524
L343844L
aS'Cc1c(NC2CC2)nc(nc1N3CCC(=C)CC3)C4CC4'
p5525
a(lp5526
g1081
aag7
(S'7.10'
p5527
tp5528
Rp5529
a(lp5530
L1702719L
aag12
aa(lp5531
L343845L
aS'Cc1c(NC2CC2)nc(nc1N3CCCC3)C4CC4'
p5532
a(lp5533
g1081
aag7
(S'7.00'
p5534
tp5535
Rp5536
a(lp5537
L1702718L
aag12
aa(lp5538
L343850L
aS'Cc1c(NC2CC2)nc(nc1N3CCCCCC3)C4CC4'
p5539
a(lp5540
g1081
aag7
(S'8.49'
p5541
tp5542
Rp5543
a(lp5544
L1702717L
aag12
aa(lp5545
L343851L
aS'Cc1c(NC2CC2)nc(nc1N3CCCCCCC3)C4CC4'
p5546
a(lp5547
g1081
aag7
(S'7.80'
p5548
tp5549
Rp5550
a(lp5551
L1702716L
aag12
aa(lp5552
L343852L
aS'Cc1c(NC2CC2)nc(nc1NC3CCCCC3)C4CC4'
p5553
a(lp5554
g1081
aag7
(S'6.50'
p5555
tp5556
Rp5557
a(lp5558
L1702715L
aag12
aa(lp5559
L1074141L
aS'OCc1cc(ccc1O)[C@@H](O)CNCCCCCCCCCN2CCC(CC2)OC(=O)Nc3ccccc3c4ccccc4'
p5560
a(lp5561
g1081
aag7
(S'9.85'
p5562
tp5563
Rp5564
a(lp5565
L5238428L
aag12
aa(lp5566
L343860L
aS'C[C@@H]1C[C@H]1c2nc(NC3CC3)c(C)c(n2)N4CCCCCC4'
p5567
a(lp5568
g1081
aag7
(S'7.49'
p5569
tp5570
Rp5571
a(lp5572
L1702701L
aag12
aa(lp5573
L716597L
aS'Cc1cccc(CN2CCC3(CC2)CCN(CC3)C(=O)c4ccccc4)c1'
p5574
a(lp5575
g1081
aag7
(S'7.00'
p5576
tp5577
Rp5578
a(lp5579
L3591686L
aag12
aa(lp5580
L1605430L
aS'Cc1cnc(NC(=O)C[N+]23CCC(CC2)[C@H](C3)OC(=O)C4(CCCCCC4)C5=CC=CC5)cn1'
p5581
a(lp5582
g1081
aag7
(S'9.10'
p5583
tp5584
Rp5585
a(lp5586
L13833237L
aag12
aa(lp5587
L1605431L
aS'Cc1cncc(NC(=O)C[N+]23CCC(CC2)[C@H](C3)OC(=O)C4(CCCCCC4)C5=CC=CC5)n1'
p5588
a(lp5589
g1081
aag7
(S'9.20'
p5590
tp5591
Rp5592
a(lp5593
L13833236L
aag12
aa(lp5594
L1605432L
aS'Clc1cncc(NC(=O)C[N+]23CCC(CC2)[C@H](C3)OC(=O)C4(CCCCCC4)C5=CC=CC5)n1'
p5595
a(lp5596
g1081
aag7
(S'10.00'
p5597
tp5598
Rp5599
a(lp5600
L13833235L
aag12
aa(lp5601
L1605433L
aS'O=C(C[N+]12CCC(CC1)[C@H](C2)OC(=O)C3(CCCCCC3)C4=CC=CC4)NCCNC(=O)c5cnccn5'
p5602
a(lp5603
g1081
aag7
(S'8.50'
p5604
tp5605
Rp5606
a(lp5607
L13833234L
aag12
aa(lp5608
L343866L
aS'C[C@@H]1C[C@H]1c2nc(NC3CC3)cc(n2)N4CCCCCC4'
p5609
a(lp5610
g1081
aag7
(S'6.40'
p5611
tp5612
Rp5613
a(lp5614
L1702700L
aag12
aa(lp5615
L1605435L
aS'O=C(O[C@H]1C[N+]2(Cc3oc4ccccc4n3)CCC1CC2)C5(CCCCCC5)C6=CC=CC6'
p5616
a(lp5617
g1081
aag7
(S'10.00'
p5618
tp5619
Rp5620
a(lp5621
L13833232L
aag12
aa(lp5622
L1605436L
aS'O=C(O[C@H]1C[N+]2(Cc3onc(n3)c4ccccc4)CCC1CC2)C5(CCCCCC5)C6=CC=CC6'
p5623
a(lp5624
g1081
aag7
(S'9.80'
p5625
tp5626
Rp5627
a(lp5628
L13833231L
aag12
aa(lp5629
L1605437L
aS'O=C(O[C@H]1C[N+]2(Cc3onc(c3)c4ccccc4)CCC1CC2)C5(CCCCCC5)C6=CC=CC6'
p5630
a(lp5631
g1081
aag7
(S'9.60'
p5632
tp5633
Rp5634
a(lp5635
L13833230L
aag12
aa(lp5636
L1605438L
aS'O=C(O[C@H]1C[N+]2(Cc3ccn(n3)c4ccccc4)CCC1CC2)C5(CCCCCC5)C6=CC=CC6'
p5637
a(lp5638
g1081
aag7
(S'9.40'
p5639
tp5640
Rp5641
a(lp5642
L13833229L
aag12
aa(lp5643
L343871L
aS'CCc1c(NC2CC2)nc(nc1N3CCSCC3)C4CC4'
p5644
a(lp5645
g1081
aag7
(S'7.00'
p5646
tp5647
Rp5648
a(lp5649
L1702692L
aag12
aa(lp5650
L1605440L
aS'O=C(O[C@H]1C[N+]2(Cc3cc(on3)c4ccccc4)CCC1CC2)C5(CCCCCC5)C6=CC=CC6'
p5651
a(lp5652
g1081
aag7
(S'10.10'
p5653
tp5654
Rp5655
a(lp5656
L13833227L
aag12
aa(lp5657
L1605441L
aS'O=C(O[C@H]1C[N+]2(Cc3oc(nn3)c4ccccc4)CCC1CC2)C5(CCCCCC5)C6=CC=CC6'
p5658
a(lp5659
g1081
aag7
(S'9.50'
p5660
tp5661
Rp5662
a(lp5663
L13833226L
aag12
aa(lp5664
L1605442L
aS'CC(C1CCCC1)(C(=O)OC2CC[N+](C)(C)CC2)c3ccccc3'
p5665
a(lp5666
g1081
aag7
(S'10.50'
p5667
tp5668
Rp5669
a(lp5670
L13833290L
aag12
aa(lp5671
L1605443L
aS'C[N+]1(C)CCC(CC1)OC(=O)C2(CCCCCC2)c3ccccc3'
p5672
a(lp5673
g1081
aag7
(S'9.60'
p5674
tp5675
Rp5676
a(lp5677
L13833289L
aag12
aa(lp5678
L1605444L
aS'O=C(O[C@H]1CN2CCC1CC2)C3(CCCCCC3)c4ccccc4'
p5679
a(lp5680
g1081
aag7
(S'10.20'
p5681
tp5682
Rp5683
a(lp5684
L13833288L
aag12
aa(lp5685
L1265500L
aS'C[C@@](N1CCCCC1)(C(=O)O[C@H]2C[N+]3(CCc4cccnc4)CCC2CC3)c5ccccc5'
p5686
a(lp5687
g1081
aag7
(S'8.50'
p5688
tp5689
Rp5690
a(lp5691
L7947403L
aag12
aa(lp5692
L1376073L
aS'[Br-].C[N+]1(C)[C@@H]2CC[C@H]1C[C@@H](CC(C#N)(c3ccccc3)c4ccccc4)C2'
p5693
a(lp5694
g1081
ag1081
aag7
(S'10.21'
p5695
tp5696
Rp5697
a(lp5698
L2701658L
aL6215843L
aag12
aa(lp5699
L743246L
aS'Br.CN1[C@@H]2CC[C@H]1C[C@H](C2)OC(=O)C(O)c3ccccc3'
p5700
a(lp5701
g1081
ag1081
aag7
(S'7.46'
p5702
tp5703
Rp5704
a(lp5705
L7660085L
aL7660086L
aag12
aa(lp5706
L5970L
aS'CSc1ccc2Sc3ccccc3N(CCC4CCCCN4C)c2c1'
p5707
a(lp5708
g1081
ag1081
aag7
(S'7.385'
p5709
tp5710
Rp5711
a(lp5712
L7802047L
aL7802048L
aag12
aa(lp5713
L1074147L
aS'NC(=O)C([C@@H]1CCN(CCCCCCCCCNCC(O)c2ccc(O)c3NC(=O)C=Cc23)C1)(c4ccccc4)c5ccccc5'
p5714
a(lp5715
g1081
aag7
(S'7.49'
p5716
tp5717
Rp5718
a(lp5719
L5238431L
aag12
aa(lp5720
L1265493L
aS'C[C@@](N1CCCCC1)(C(=O)O[C@H]2C[N+]3(CCc4ccc(F)cc4)CCC2CC3)c5ccccc5'
p5721
a(lp5722
g1081
aag7
(S'9.80'
p5723
tp5724
Rp5725
a(lp5726
L7947410L
aag12
aa(lp5727
L1265496L
aS'C[C@@](N1CCCCC1)(C(=O)O[C@H]2C[N+]3(CCc4cccc(Br)c4)CCC2CC3)c5ccccc5'
p5728
a(lp5729
g1081
aag7
(S'10.20'
p5730
tp5731
Rp5732
a(lp5733
L7947407L
aag12
aa(lp5734
L996L
aS'CN(C)CCCN1c2ccccc2CCc3ccc(Cl)cc13'
p5735
a(lp5736
g1081
ag1081
aag7
(S'7.105'
p5737
tp5738
Rp5739
a(lp5740
L7710458L
aL7710459L
aag12
aa(lp5741
L1265499L
aS'C[C@@](N1CCCCC1)(C(=O)O[C@H]2C[N+]3(CCc4ccc5ccccc5c4)CCC2CC3)c6ccccc6'
p5742
a(lp5743
g1081
aag7
(S'9.70'
p5744
tp5745
Rp5746
a(lp5747
L7947404L
aag12
aa(lp5748
L343900L
aS'[O-][N+](=O)c1c(NC2CC2)nc(nc1N3CCCCCC3)C4CC4'
p5749
a(lp5750
g1081
aag7
(S'5.60'
p5751
tp5752
Rp5753
a(lp5754
L1702696L
aag12
aa(lp5755
L1265501L
aS'C[C@@](N1CCCCC1)(C(=O)O[C@H]2C[N+]3(CCC4=CC5CCOC5C=C4)CCC2CC3)c6ccccc6'
p5756
a(lp5757
g1081
aag7
(S'9.80'
p5758
tp5759
Rp5760
a(lp5761
L7947402L
aag12
aa(lp5762
L1265502L
aS'C[C@@](N1CCCCC1)(C(=O)O[C@H]2C[N+]3(CCc4oc5ccccc5c4)CCC2CC3)c6ccccc6'
p5763
a(lp5764
g1081
aag7
(S'8.20'
p5765
tp5766
Rp5767
a(lp5768
L7947401L
aag12
aa(lp5769
L1265503L
aS'C[C@@](N1CCCCC1)(C(=O)O[C@H]2C[N+]3(CCc4c[nH]c5ccccc45)CCC2CC3)c6ccccc6'
p5770
a(lp5771
g1081
aag7
(S'8.80'
p5772
tp5773
Rp5774
a(lp5775
L7947400L
aag12
aa(lp5776
L1265504L
aS'C[C@@](N1CCCCC1)(C(=O)O[C@H]2C[N+]3(CCC4CCCCC4)CCC2CC3)c5cccs5'
p5777
a(lp5778
g1081
aag7
(S'9.70'
p5779
tp5780
Rp5781
a(lp5782
L7947399L
aag12
aa(lp5783
L1265507L
aS'C[C@@](N1CCCCC1)(C(=O)O[C@H]2C[N+]3(CCCc4ccncc4)CCC2CC3)c5ccccc5'
p5784
a(lp5785
g1081
aag7
(S'10.10'
p5786
tp5787
Rp5788
a(lp5789
L7947396L
aag12
aa(lp5790
L1265508L
aS'C[C@@](N1CCCCC1)(C(=O)O[C@H]2C[N+]3(CCCc4ccncc4)CCC2CC3)c5cccs5'
p5791
a(lp5792
g1081
aag7
(S'9.80'
p5793
tp5794
Rp5795
a(lp5796
L7947395L
aag12
aa(lp5797
L1265509L
aS'Cc1cc(CCC[N+]23CCC(CC2)[C@H](C3)OC(=O)[C@@](C)(N4CCCCC4)c5ccccc5)ccn1'
p5798
a(lp5799
g1081
aag7
(S'9.90'
p5800
tp5801
Rp5802
a(lp5803
L7947394L
aag12
aa(lp5804
L1265510L
aS'Cc1cc(CCC[N+]23CCC(CC2)[C@H](C3)OC(=O)[C@@](C)(N4CCCCC4)c5ccccc5)cc(C)n1'
p5805
a(lp5806
g1081
aag7
(S'8.60'
p5807
tp5808
Rp5809
a(lp5810
L7947393L
aag12
aa(lp5811
L1265511L
aS'C[C@@](N1CCCCC1)(C(=O)O[C@H]2C[N+]3(CCCc4cccnc4)CCC2CC3)c5ccccc5'
p5812
a(lp5813
g1081
aag7
(S'9.50'
p5814
tp5815
Rp5816
a(lp5817
L7947392L
aag12
aa(lp5818
L1265512L
aS'Cc1ccc(CCC[N+]23CCC(CC2)[C@H](C3)OC(=O)[C@@](C)(N4CCCCC4)c5ccccc5)cn1'
p5819
a(lp5820
g1081
aag7
(S'8.90'
p5821
tp5822
Rp5823
a(lp5824
L7947391L
aag12
aa(lp5825
L1265513L
aS'C[C@@](N1CCCCC1)(C(=O)O[C@H]2C[N+]3(CCCc4cncnc4)CCC2CC3)c5ccccc5'
p5826
a(lp5827
g1081
aag7
(S'8.50'
p5828
tp5829
Rp5830
a(lp5831
L7947390L
aag12
aa(lp5832
L1265514L
aS'C[C@@](N1CCCCC1)(C(=O)O[C@H]2C[N+]3(CCCc4oc5ccccc5n4)CCC2CC3)c6ccccc6'
p5833
a(lp5834
g1081
aag7
(S'9.50'
p5835
tp5836
Rp5837
a(lp5838
L7947389L
aag12
aa(lp5839
L1265515L
aS'C[C@@](N1CCCCC1)(C(=O)O[C@H]2C[N+]3(CCCc4cc5ccccc5s4)CCC2CC3)c6ccccc6'
p5840
a(lp5841
g1081
aag7
(S'10.20'
p5842
tp5843
Rp5844
a(lp5845
L7947388L
aag12
aa(lp5846
L38764L
aS'Fc1ccc(cc1)C(N2CCN(C\\C=C\\c3ccccc3)CC2)c4ccc(F)cc4'
p5847
a(lp5848
g1081
ag1081
aag7
(S'6.165'
p5849
tp5850
Rp5851
a(lp5852
L7665614L
aL7665615L
aag12
aa(lp5853
L1265517L
aS'C[C@@](N1CCCCC1)(C(=O)O[C@H]2C[N+]3(CCCCc4ccccc4)CCC2CC3)c5ccccc5'
p5854
a(lp5855
g1081
aag7
(S'9.70'
p5856
tp5857
Rp5858
a(lp5859
L7947386L
aag12
aa(lp5860
L3950L
aS'O=C1CCON1CC#CCN2CCCC2'
p5861
a(lp5862
g1081
aag7
(S'6.41'
p5863
tp5864
Rp5865
a(lp5866
L1989749L
aag12
aa(lp5867
L1265519L
aS'C[C@@](N1CCCCC1)(C(=O)O[C@H]2C[N+]3(CCOc4ccccc4)CCC2CC3)c5ccccc5'
p5868
a(lp5869
g1081
aag7
(S'9.20'
p5870
tp5871
Rp5872
a(lp5873
L7947384L
aag12
aa(lp5874
L1265520L
aS'C[C@@](N1CCCCC1)(C(=O)O[C@H]2C[N+]3(CCOc4ccc(F)cc4)CCC2CC3)c5ccccc5'
p5875
a(lp5876
g1081
aag7
(S'8.50'
p5877
tp5878
Rp5879
a(lp5880
L7947383L
aag12
aa(lp5881
L1265521L
aS'C[C@@](N1CCCCC1)(C(=O)O[C@H]2C[N+]3(CCOc4ccc(Cl)cc4)CCC2CC3)c5ccccc5'
p5882
a(lp5883
g1081
aag7
(S'8.90'
p5884
tp5885
Rp5886
a(lp5887
L7947382L
aag12
aa(lp5888
L1265522L
aS'Cc1ccc(OCC[N+]23CCC(CC2)[C@H](C3)OC(=O)[C@@](C)(N4CCCCC4)c5ccccc5)cc1'
p5889
a(lp5890
g1081
aag7
(S'9.50'
p5891
tp5892
Rp5893
a(lp5894
L7947381L
aag12
aa(lp5895
L1265523L
aS'Cc1cccc(OCC[N+]23CCC(CC2)[C@H](C3)OC(=O)[C@@](C)(N4CCCCC4)c5ccccc5)c1'
p5896
a(lp5897
g1081
aag7
(S'9.00'
p5898
tp5899
Rp5900
a(lp5901
L7947380L
aag12
aa(lp5902
L405364L
aS'C[C@]12Cc3cnoc3C=C1CC[C@@H]4[C@@H]2CC[C@@]5(C)[C@H]4CC[C@@]5(O)C#C'
p5903
a(lp5904
g1081
aag7
(S'5.42'
p5905
tp5906
Rp5907
a(lp5908
L7708920L
aag12
aa(lp5909
L1265525L
aS'C[C@@](N1CCCCC1)(C(=O)O[C@H]2C[N+]3(CCCOc4ccccc4)CCC2CC3)c5cccs5'
p5910
a(lp5911
g1081
aag7
(S'10.20'
p5912
tp5913
Rp5914
a(lp5915
L7947378L
aag12
aa(lp5916
L1265526L
aS'C[C@@](N1CCCCC1)(C(=O)O[C@H]2C[N+]3(CCCOc4ccc(F)cc4)CCC2CC3)c5ccccc5'
p5917
a(lp5918
g1081
aag7
(S'9.20'
p5919
tp5920
Rp5921
a(lp5922
L7947377L
aag12
aa(lp5923
L259959L
aS'CC(C)N1CCN(CC1)c2ccc(OC[C@H]3CO[C@@](Cn4cncn4)(O3)c5ccc(Cl)cc5Cl)cc2'
p5924
a(lp5925
g1081
aag7
(S'5.51'
p5926
tp5927
Rp5928
a(lp5929
L7814764L
aag12
aa(lp5930
L1265528L
aS'C[C@@](N1CCCCC1)(C(=O)O[C@H]2C[N+]3(CCOCc4ccccc4)CCC2CC3)c5ccccc5'
p5931
a(lp5932
g1081
aag7
(S'9.10'
p5933
tp5934
Rp5935
a(lp5936
L7947375L
aag12
aa(lp5937
L1265529L
aS'C[C@@](N1CCCCC1)(C(=O)O[C@H]2C[N+]3(CCOCCc4ccccc4)CCC2CC3)c5ccccc5'
p5938
a(lp5939
g1081
aag7
(S'9.30'
p5940
tp5941
Rp5942
a(lp5943
L7947374L
aag12
aa(lp5944
L1265530L
aS'C[C@@](N1CCCCC1)(C(=O)O[C@H]2C[N+]3(CC(=O)N)CCC2CC3)c4ccccc4'
p5945
a(lp5946
g1081
aag7
(S'9.70'
p5947
tp5948
Rp5949
a(lp5950
L7947373L
aag12
aa(lp5951
L1265531L
aS'C[C@@](N1CCCCC1)(C(=O)O[C@H]2C[N+]3(CC(=O)N)CCC2CC3)c4cccs4'
p5952
a(lp5953
g1081
aag7
(S'9.90'
p5954
tp5955
Rp5956
a(lp5957
L7947372L
aag12
aa(lp5958
L1265532L
aS'C[C@@](N1CCCCC1)(C(=O)O[C@H]2C[N+]3(CC(=O)Nc4ccccc4)CCC2CC3)c5ccccc5'
p5959
a(lp5960
g1081
aag7
(S'9.70'
p5961
tp5962
Rp5963
a(lp5964
L7947371L
aag12
aa(lp5965
L1265642L
aS'C[C@@](N1CCCCC1)(C(=O)O[C@H]2C[N+]3(CC(=O)Nc4ccon4)CCC2CC3)c5ccccc5'
p5966
a(lp5967
g1081
aag7
(S'9.80'
p5968
tp5969
Rp5970
a(lp5971
L7947363L
aag12
aa(lp5972
L1265534L
aS'C[C@@](N1CCCCC1)(C(=O)O[C@H]2C[N+]3(CC(=O)Nc4cccc(F)c4)CCC2CC3)c5ccccc5'
p5973
a(lp5974
g1081
aag7
(S'9.70'
p5975
tp5976
Rp5977
a(lp5978
L7947369L
aag12
aa(lp5979
L1265535L
aS'C[C@@](N1CCCCC1)(C(=O)O[C@H]2C[N+]3(CC(=O)Nc4cccc(F)c4)CCC2CC3)c5cccs5'
p5980
a(lp5981
g1081
aag7
(S'10.00'
p5982
tp5983
Rp5984
a(lp5985
L7947368L
aag12
aa(lp5986
L1265536L
aS'C[C@@](N1CCCCC1)(C(=O)O[C@H]2C[N+]3(CC(=O)Nc4ccccn4)CCC2CC3)c5ccccc5'
p5987
a(lp5988
g1081
aag7
(S'9.90'
p5989
tp5990
Rp5991
a(lp5992
L7947367L
aag12
aa(lp5993
L343937L
aS'Cc1c(NC2CC2)nc(nc1NC3CCCCCC3)C4CC4'
p5994
a(lp5995
g1081
aag7
(S'6.40'
p5996
tp5997
Rp5998
a(lp5999
L1702714L
aag12
aa(lp6000
L343938L
aS'Cc1c(NC2CC2)nc(nc1N3CC4CCC(C4)C3)C5CC5'
p6001
a(lp6002
g1081
aag7
(S'8.20'
p6003
tp6004
Rp6005
a(lp6006
L1702713L
aag12
aa(lp6007
L343939L
aS'Cc1c(NCc2ccccc2)nc(nc1NC3CC3)C4CC4'
p6008
a(lp6009
g1081
aag7
(S'6.70'
p6010
tp6011
Rp6012
a(lp6013
L1702712L
aag12
aa(lp6014
L165774L
aS'CCN(CC)CCOC(=O)C1(CCCCC1)C2CCCCC2'
p6015
a(lp6016
g1081
ag1081
aag7
(S'8.695'
p6017
tp6018
Rp6019
a(lp6020
L7691877L
aL7691878L
aag12
aa(lp6021
L1511407L
aS'CN1CCC(=C(C1)C(=O)OCCc2ccc3OCCc3c2)c4ccccc4'
p6022
a(lp6023
g1081
aag7
(S'5.55'
p6024
tp6025
Rp6026
a(lp6027
L12627786L
aag12
aa(lp6028
L716709L
aS'O=C(N1CCC2(CCN(Cc3ccccc3)CC2)CC1)c4ccccc4'
p6029
a(lp6030
g1081
aag7
(S'6.90'
p6031
tp6032
Rp6033
a(lp6034
L3591687L
aag12
aa(lp6035
L665510L
aS'CCN(CC)CCOC(=O)C(CC)(c1ccccc1)c2ccccc2'
p6036
a(lp6037
g1081
aag7
(S'6.61'
p6038
tp6039
Rp6040
a(lp6041
L13288576L
aag12
aa(lp6042
L1267636L
aS'C[C@@](N1CCCCC1)(C(=O)O[C@H]2C[N+]3(CCc4ccccc4F)CCC2CC3)c5cccs5'
p6043
a(lp6044
g1081
aag7
(S'9.80'
p6045
tp6046
Rp6047
a(lp6048
L7947413L
aag12
aa(lp6049
L1267637L
aS'[Br-].CC(C1CCCC1)(C(=O)O[C@@H]2CC[N+](C)(C)C2)c3ccccc3'
p6050
a(lp6051
g1081
aag7
(S'8.80'
p6052
tp6053
Rp6054
a(lp6055
L7947451L
aag12
aa(lp6056
L1267638L
aS'[Br-].C[C@@](C1CCCC1)(C(=O)OC2CC[N+](C)(C)CC2)c3ccccc3'
p6057
a(lp6058
g1081
aag7
(S'10.50'
p6059
tp6060
Rp6061
a(lp6062
L7947450L
aag12
aa(lp6063
L1267639L
aS'CC(N1CCCC1)(C(=O)OC2CC[N+](C)(C)CC2)c3ccccc3'
p6064
a(lp6065
g1081
aag7
(S'8.50'
p6066
tp6067
Rp6068
a(lp6069
L7947436L
aag12
aa(lp6070
L1267640L
aS'CC(N1CCCCC1)(C(=O)OC2CC[N+](C)(C)CC2)c3ccccc3'
p6071
a(lp6072
g1081
aag7
(S'9.60'
p6073
tp6074
Rp6075
a(lp6076
L7947435L
aag12
aa(lp6077
L1267641L
aS'CC(N1C=CC=CC=C1)(C(=O)OC2CC[N+](C)(C)CC2)c3ccccc3'
p6078
a(lp6079
g1081
aag7
(S'9.10'
p6080
tp6081
Rp6082
a(lp6083
L7947434L
aag12
aa(lp6084
L1267642L
aS'CC(N1CCSCC1)(C(=O)OC2CC[N+](C)(C)CC2)c3ccccc3'
p6085
a(lp6086
g1081
aag7
(S'9.10'
p6087
tp6088
Rp6089
a(lp6090
L7947433L
aag12
aa(lp6091
L1267643L
aS'CC(N1CCC(F)(F)CC1)(C(=O)OC2CC[N+](C)(C)CC2)c3ccccc3'
p6092
a(lp6093
g1081
aag7
(S'8.90'
p6094
tp6095
Rp6096
a(lp6097
L7947432L
aag12
aa(lp6098
L1267644L
aS'CC1CCN(CC1)C(C)(C(=O)OC2CC[N+](C)(C)CC2)c3ccccc3'
p6099
a(lp6100
g1081
aag7
(S'9.00'
p6101
tp6102
Rp6103
a(lp6104
L7947431L
aag12
aa(lp6105
L1267645L
aS'CN(C)C(C)(C(=O)OC1CC[N+](C)(C)CC1)c2ccccc2'
p6106
a(lp6107
g1081
aag7
(S'8.00'
p6108
tp6109
Rp6110
a(lp6111
L7947430L
aag12
aa(lp6112
L1267646L
aS'CCCN(CCC)C(C)(C(=O)OC1CC[N+](C)(C)CC1)c2ccccc2'
p6113
a(lp6114
g1081
aag7
(S'6.80'
p6115
tp6116
Rp6117
a(lp6118
L7947428L
aag12
aa(lp6119
L1267647L
aS'CC(N1CCCCC1)(C(=O)OC2CC[N+](C)(C)CC2)c3cccs3'
p6120
a(lp6121
g1081
aag7
(S'10.00'
p6122
tp6123
Rp6124
a(lp6125
L7947429L
aag12
aa(lp6126
L1267648L
aS'CC(N1CCCCC1)(C(=O)OC2CC[N+](C)(C)CC2)c3ccc(Cl)cc3'
p6127
a(lp6128
g1081
aag7
(S'8.60'
p6129
tp6130
Rp6131
a(lp6132
L7947426L
aag12
aa(lp6133
L1267649L
aS'CN1CCC(CC1)OC(=O)C(C)(N2CCCC2)c3ccccc3'
p6134
a(lp6135
g1081
aag7
(S'8.30'
p6136
tp6137
Rp6138
a(lp6139
L7947427L
aag12
aa(lp6140
L1267650L
aS'CC(N1CCCC1)(C(=O)O[C@H]2CN3CCC2CC3)c4ccccc4'
p6141
a(lp6142
g1081
aag7
(S'8.30'
p6143
tp6144
Rp6145
a(lp6146
L7947425L
aag12
aa(lp6147
L1267651L
aS'C[C@@](N1CCCCC1)(C(=O)O[C@H]2C[N+]3(CCCOc4ccccc4)CCC2CC3)c5ccccc5'
p6148
a(lp6149
g1081
aag7
(S'10.30'
p6150
tp6151
Rp6152
a(lp6153
L7947423L
aag12
aa(lp6154
L1267652L
aS'C[C@](N1CCCCC1)(C(=O)O[C@H]2C[N+]3(CCCOc4ccccc4)CCC2CC3)c5ccccc5'
p6155
a(lp6156
g1081
aag7
(S'8.50'
p6157
tp6158
Rp6159
a(lp6160
L7947422L
aag12
aa(lp6161
L1267653L
aS'CC(C)[N+]12CCC(CC1)[C@H](C2)OC(=O)[C@@](C)(N3CCCCC3)c4ccccc4'
p6162
a(lp6163
g1081
aag7
(S'9.00'
p6164
tp6165
Rp6166
a(lp6167
L7947421L
aag12
aa(lp6168
L1267654L
aS'CCC(CC)[N+]12CCC(CC1)[C@H](C2)OC(=O)[C@@](C)(N3CCCCC3)c4ccccc4'
p6169
a(lp6170
g1081
aag7
(S'6.60'
p6171
tp6172
Rp6173
a(lp6174
L7947420L
aag12
aa(lp6175
L335521L
aS'COC1(CN2CCC1CC2)C#CC(O)(c3ccccc3)c4cccnc4F'
p6176
a(lp6177
g1081
aag7
(S'9.10'
p6178
tp6179
Rp6180
a(lp6181
L1666534L
aag12
aa(lp6182
L1267656L
aS'C[C@@](N1CCCCC1)(C(=O)O[C@H]2C[N+]3(CCCC#N)CCC2CC3)c4ccccc4'
p6183
a(lp6184
g1081
aag7
(S'8.10'
p6185
tp6186
Rp6187
a(lp6188
L7947418L
aag12
aa(lp6189
L1267657L
aS'CC(=CCC[N+]12CCC(CC1)[C@H](C2)OC(=O)[C@@](C)(N3CCCCC3)c4ccccc4)C'
p6190
a(lp6191
g1081
aag7
(S'9.20'
p6192
tp6193
Rp6194
a(lp6195
L7947417L
aag12
aa(lp6196
L1267660L
aS'C[C@@](N1CCCCC1)(C(=O)O[C@H]2C[N+]3(CCc4ccccc4F)CCC2CC3)c5ccccc5'
p6197
a(lp6198
g1081
aag7
(S'9.90'
p6199
tp6200
Rp6201
a(lp6202
L7947414L
aag12
aa(lp6203
L77779L
aS'CN(C)CCOC(c1ccccc1)c2ccccc2C'
p6204
a(lp6205
g1081
ag1081
aag7
(S'7.095'
p6206
tp6207
Rp6208
a(lp6209
L7714670L
aL7714671L
aag12
aa(lp6210
L468965L
aS'C[C@H]1CN(Cc2cccc(c2)c3cc(CNC(=O)c4cccc(CC5CCNCC5)c4)ccc3F)CCN1'
p6211
a(lp6212
g1081
aag7
(S'10.50'
p6213
tp6214
Rp6215
a(lp6216
L2365069L
aag12
aa(lp6217
L1265639L
aS'C[C@@](N1CCCCC1)(C(=O)O[C@H]2C[N+]3(CC(=O)Nc4ccncn4)CCC2CC3)c5ccccc5'
p6218
a(lp6219
g1081
aag7
(S'8.90'
p6220
tp6221
Rp6222
a(lp6223
L7947366L
aag12
aa(lp6224
L1265640L
aS'C[C@@](N1CCCCC1)(C(=O)O[C@H]2C[N+]3(CC(=O)Nc4cccnn4)CCC2CC3)c5ccccc5'
p6225
a(lp6226
g1081
aag7
(S'9.00'
p6227
tp6228
Rp6229
a(lp6230
L7947365L
aag12
aa(lp6231
L1265641L
aS'C[C@@](N1CCCCC1)(C(=O)O[C@H]2C[N+]3(CC(=O)Nc4cnccn4)CCC2CC3)c5ccccc5'
p6232
a(lp6233
g1081
aag7
(S'9.70'
p6234
tp6235
Rp6236
a(lp6237
L7947364L
aag12
aa(lp6238
L36842L
aS'OCCN1CCN(CCCN2c3ccccc3Sc4ccc(cc24)C(F)(F)F)CC1'
p6239
a(lp6240
g1081
ag1081
aag7
(S'5.665'
p6241
tp6242
Rp6243
a(lp6244
L7669996L
aL7669997L
aag12
aa(lp6245
L557035L
aS'[Br-].CC1(C(=O)O[C@H]2C[N+]3(CCCOc4ccccc4)CCC2CC3)c5ccccc5c6ccccc16'
p6246
a(lp6247
g1081
aag7
(S'9.02'
p6248
tp6249
Rp6250
a(lp6251
L2708944L
aag12
aa(lp6252
L1265644L
aS'C[C@@](N1CCCCC1)(C(=O)O[C@H]2C[N+]3(CC(=O)Nc4cncc(Cl)n4)CCC2CC3)c5cccs5'
p6253
a(lp6254
g1081
aag7
(S'10.00'
p6255
tp6256
Rp6257
a(lp6258
L7947361L
aag12
aa(lp6259
L1265645L
aS'Cc1ccc2nc(C[N+]34CCC(CC3)[C@H](C4)OC(=O)[C@@](C)(N5CCCCC5)c6ccccc6)oc2c1'
p6260
a(lp6261
g1081
aag7
(S'9.80'
p6262
tp6263
Rp6264
a(lp6265
L7947360L
aag12
aa(lp6266
L1265646L
aS'C[C@@](N1CCCCC1)(C(=O)O[C@H]2C[N+]3(Cc4cc(on4)c5ccccc5)CCC2CC3)c6ccccc6'
p6267
a(lp6268
g1081
aag7
(S'9.70'
p6269
tp6270
Rp6271
a(lp6272
L7947359L
aag12
aa(lp6273
L1265647L
aS'C[C@@](N1CCCCC1)(C(=O)O[C@H]2C[N+]3(Cc4onc(n4)c5ccccc5)CCC2CC3)c6ccccc6'
p6274
a(lp6275
g1081
aag7
(S'9.50'
p6276
tp6277
Rp6278
a(lp6279
L7947358L
aag12
aa(lp6280
L1265648L
aS'C[C@@](N1CCCCC1)(C(=O)O[C@H]2C[N+]3(Cc4onc(c4)c5ccccc5)CCC2CC3)c6cccs6'
p6281
a(lp6282
g1081
aag7
(S'9.40'
p6283
tp6284
Rp6285
a(lp6286
L7947357L
aag12
aa(lp6287
L1265649L
aS'C[C@@](N1CCCCC1)(C(=O)O[C@H]2C[N+]3(Cc4noc(n4)c5ccccc5)CCC2CC3)c6cccs6'
p6288
a(lp6289
g1081
aag7
(S'9.60'
p6290
tp6291
Rp6292
a(lp6293
L7947356L
aag12
aa(lp6294
L499055L
aS'[Br-].OC(c1ccccc1)(c2ccccc2)C34CC[N+](CCCOc5ccccc5)(CC3)CC4'
p6295
a(lp6296
g1081
aag7
(S'9.89'
p6297
tp6298
Rp6299
a(lp6300
L2421749L
aag12
aa(lp6301
L1595386L
aS'OC(CCN1CCCCC1)([C@H]2C[C@H]3C[C@@H]2C=C3)c4ccccc4'
p6302
a(lp6303
g1081
aag7
(S'8.23'
p6304
tp6305
Rp6306
a(lp6307
L13288578L
aag12
aa(lp6308
L557052L
aS'[Br-].C[N+]12CCC(CC1)[C@H](C2)OC(=O)C(O)(c3cccs3)c4cccs4'
p6309
a(lp6310
g1081
aag7
(S'9.22'
p6311
tp6312
Rp6313
a(lp6314
L2708931L
aag12
aa(lp6315
L557055L
aS'[Br-].OC1(C(=O)O[C@H]2C[N+]3(CCc4ccccc4)CCC2CC3)c5ccccc5Oc6ccccc16'
p6316
a(lp6317
g1081
aag7
(S'9.55'
p6318
tp6319
Rp6320
a(lp6321
L2708938L
aag12
aasS'1.10.600.10.FF9697'
p6322
(lp6323
(lp6324
L1366016L
aS'CC(C)NC(=O)c1ccnc(NC(P(=O)(O)O)P(=O)(O)O)c1'
p6325
a(lp6326
S'P14324'
p6327
aag7
(S'6.00'
p6328
tp6329
Rp6330
a(lp6331
L11013283L
aag12
aa(lp6332
L329222L
aS'Nc1ccccc1CC(O)(P(=O)(O)O)P(=O)(O)O'
p6333
a(lp6334
g6327
ag6327
ag6327
ag6327
aag7
(S'7.43'
p6335
tp6336
Rp6337
a(lp6338
L2155020L
aL2155021L
aL2155064L
aL2155065L
aag12
aa(lp6339
L404492L
aS'OP(=O)(O)C(F)(Cc1cccnc1)P(=O)(O)O'
p6340
a(lp6341
g6327
aag7
(S'7.79'
p6342
tp6343
Rp6344
a(lp6345
L2004203L
aag12
aa(lp6346
L404496L
aS'OP(=O)(O)C(Cl)(Cc1cccnc1)P(=O)(O)O'
p6347
a(lp6348
g6327
aag7
(S'7.02'
p6349
tp6350
Rp6351
a(lp6352
L2004210L
aag12
aa(lp6353
L404497L
aS'OP(=O)(O)C(Br)(Cc1cccnc1)P(=O)(O)O'
p6354
a(lp6355
g6327
aag7
(S'6.47'
p6356
tp6357
Rp6358
a(lp6359
L2004209L
aag12
aa(lp6360
L70674L
aS'NCCCC(O)(P(=O)(O)O)P(=O)(O)O'
p6361
a(lp6362
g6327
ag6327
ag6327
ag6327
aag7
(S'6.50'
p6363
tp6364
Rp6365
a(lp6366
L2155050L
aL2155051L
aL2155094L
aL2155095L
aag12
aa(lp6367
L428597L
aS'CC1CCCN=C1NC(P(=O)(O)O)P(=O)(O)O'
p6368
a(lp6369
g6327
ag6327
ag6327
ag6327
aag7
(S'7.525'
p6370
tp6371
Rp6372
a(lp6373
L2155008L
aL2155009L
aL2155054L
aL2155055L
aag12
aa(lp6374
L1529695L
aS'OP(=O)(O)C(Nc1ncnc2sc(cc12)c3ccc4ccccc4c3)P(=O)(O)O'
p6375
a(lp6376
g6327
ag6327
ag6327
aag7
(S'6.60'
p6377
tp6378
Rp6379
a(lp6380
L12725074L
aL13828727L
aL13828739L
aag12
aa(lp6381
L160317L
aS'Cc1cccnc1NC(P(=O)(C)O)P(=O)(O)O'
p6382
a(lp6383
g6327
ag6327
ag6327
ag6327
aag7
(S'6.855'
p6384
tp6385
Rp6386
a(lp6387
L2155006L
aL2155007L
aL2155052L
aL2155053L
aag12
aa(lp6388
L402787L
aS'CCCCC[S+](C)CC(P(=O)(O)O)P(=O)(O)[O-]'
p6389
a(lp6390
g6327
ag6327
aag7
(S'5.985'
p6391
tp6392
Rp6393
a(lp6394
L2002738L
aL2002755L
aag12
aa(lp6395
L84059L
aS'NCCCCCC(O)(P(=O)(O)O)P(=O)(O)O'
p6396
a(lp6397
g6327
ag6327
ag6327
ag6327
aag7
(S'6.395'
p6398
tp6399
Rp6400
a(lp6401
L2155048L
aL2155049L
aL2155092L
aL2155093L
aag12
aa(lp6402
L161378L
aS'OC(C1CCc2ccncc12)(P(=O)(O)O)P(=O)(O)O'
p6403
a(lp6404
g6327
aag7
(S'6.20'
p6405
tp6406
Rp6407
a(lp6408
L2168186L
aag12
aa(lp6409
L84097L
aS'NCCCCC(O)(P(=O)(O)O)P(=O)(O)O'
p6410
a(lp6411
g6327
ag6327
ag6327
ag6327
aag7
(S'6.62'
p6412
tp6413
Rp6414
a(lp6415
L2155038L
aL2155039L
aL2155082L
aL2155083L
aag12
aa(lp6416
L161417L
aS'OP(=O)(O)C(Cc1ccccn1)P(=O)(O)O'
p6417
a(lp6418
g6327
ag6327
ag6327
ag6327
aag7
(S'7.465'
p6419
tp6420
Rp6421
a(lp6422
L2155022L
aL2155023L
aL2155066L
aL2155067L
aag12
aa(lp6423
L84122L
aS'OP(=O)(O)C(Nc1cccc(c1)c2ccccc2)P(=O)(O)O'
p6424
a(lp6425
g6327
aag7
(S'5.07'
p6426
tp6427
Rp6428
a(lp6429
L2251712L
aag12
aa(lp6430
L84123L
aS'OP(=O)(O)C(NC1CCCCCC1)P(=O)(O)O'
p6431
a(lp6432
g6327
aag7
(S'7.52'
p6433
tp6434
Rp6435
a(lp6436
L12049465L
aag12
aa(lp6437
L428702L
aS'OC(CC1CCCCN1)(P(=O)(O)O)P(=O)(O)O'
p6438
a(lp6439
g6327
ag6327
ag6327
ag6327
aag7
(S'7.36'
p6440
tp6441
Rp6442
a(lp6443
L2155028L
aL2155029L
aL2155072L
aL2155073L
aag12
aa(lp6444
L428703L
aS'OP(=O)(O)C(CC1CCCCN1)P(=O)(O)O'
p6445
a(lp6446
g6327
ag6327
ag6327
ag6327
aag7
(S'7.285'
p6447
tp6448
Rp6449
a(lp6450
L2155026L
aL2155027L
aL2155070L
aL2155071L
aag12
aa(lp6451
L84166L
aS'OP(=O)(O)C(NC1CCCCC1)P(=O)(O)O'
p6452
a(lp6453
g6327
ag6327
ag6327
ag6327
aag7
(S'7.205'
p6454
tp6455
Rp6456
a(lp6457
L2155046L
aL2155047L
aL2155090L
aL2155091L
aag12
aa(lp6458
L513232L
aS'OP(=O)(O)C(Cn1ccnc1)P(=O)(O)O'
p6459
a(lp6460
g6327
aag7
(S'8.04'
p6461
tp6462
Rp6463
a(lp6464
L2472298L
aag12
aa(lp6465
L513233L
aS'OP(=O)(O)C(Cn1cccn1)P(=O)(O)O'
p6466
a(lp6467
g6327
aag7
(S'5.51'
p6468
tp6469
Rp6470
a(lp6471
L2472297L
aag12
aa(lp6472
L513234L
aS'OP(=O)(O)C(Cn1cnc2ccccc12)P(=O)(O)O'
p6473
a(lp6474
g6327
aag7
(S'7.79'
p6475
tp6476
Rp6477
a(lp6478
L2472296L
aag12
aa(lp6479
L513235L
aS'OP(=O)(O)C(CSc1ncc[nH]1)P(=O)(O)O'
p6480
a(lp6481
g6327
aag7
(S'7.55'
p6482
tp6483
Rp6484
a(lp6485
L2472295L
aag12
aa(lp6486
L513236L
aS'OP(=O)(O)C(Cn1cnc2cncnc12)P(=O)(O)O'
p6487
a(lp6488
g6327
aag7
(S'6.41'
p6489
tp6490
Rp6491
a(lp6492
L2472294L
aag12
aa(lp6493
L161497L
aS'OP(=O)(O)C(Cc1cccnc1)P(=O)(O)O'
p6494
a(lp6495
g6327
ag6327
ag6327
ag6327
ag6327
aag7
(S'7.47'
p6496
tp6497
Rp6498
a(lp6499
L2004208L
aL2155032L
aL2155033L
aL2155076L
aL2155077L
aag12
aa(lp6500
L1528042L
aS'Cn1cc[n+](CC(O)(P(=O)(O)O)P(=O)(O)[O-])c1'
p6501
a(lp6502
g6327
ag6327
aag7
(S'6.96'
p6503
tp6504
Rp6505
a(lp6506
L12694420L
aL12694361L
aag12
aa(lp6507
L1528043L
aS'CCn1cc[n+](CC(O)(P(=O)(O)O)P(=O)(O)[O-])c1'
p6508
a(lp6509
g6327
ag6327
aag7
(S'7.115'
p6510
tp6511
Rp6512
a(lp6513
L12694419L
aL12694362L
aag12
aa(lp6514
L1528044L
aS'CCCn1cc[n+](CC(O)(P(=O)(O)O)P(=O)(O)[O-])c1'
p6515
a(lp6516
g6327
ag6327
aag7
(S'7.135'
p6517
tp6518
Rp6519
a(lp6520
L12694418L
aL12694363L
aag12
aa(lp6521
L1528045L
aS'CCCCn1cc[n+](CC(O)(P(=O)(O)O)P(=O)(O)[O-])c1'
p6522
a(lp6523
g6327
ag6327
aag7
(S'7.52'
p6524
tp6525
Rp6526
a(lp6527
L12694456L
aL12694364L
aag12
aa(lp6528
L1528046L
aS'CCCCCn1cc[n+](CC(O)(P(=O)(O)O)P(=O)(O)[O-])c1'
p6529
a(lp6530
g6327
ag6327
aag7
(S'7.115'
p6531
tp6532
Rp6533
a(lp6534
L12694416L
aL12694365L
aag12
aa(lp6535
L1528047L
aS'CCCCCCn1cc[n+](CC(O)(P(=O)(O)O)P(=O)(O)[O-])c1'
p6536
a(lp6537
g6327
ag6327
aag7
(S'7.14'
p6538
tp6539
Rp6540
a(lp6541
L12694415L
aL12694366L
aag12
aa(lp6542
L1528048L
aS'CCCCCCCn1cc[n+](CC(O)(P(=O)(O)O)P(=O)(O)[O-])c1'
p6543
a(lp6544
g6327
ag6327
aag7
(S'7.18'
p6545
tp6546
Rp6547
a(lp6548
L12694414L
aL12694367L
aag12
aa(lp6549
L1528049L
aS'CCCCCCCCn1cc[n+](CC(O)(P(=O)(O)O)P(=O)(O)[O-])c1'
p6550
a(lp6551
g6327
ag6327
aag7
(S'7.22'
p6552
tp6553
Rp6554
a(lp6555
L12694413L
aL12694368L
aag12
aa(lp6556
L1528050L
aS'CCCCCCCCCn1cc[n+](CC(O)(P(=O)(O)O)P(=O)(O)[O-])c1'
p6557
a(lp6558
g6327
ag6327
aag7
(S'7.01'
p6559
tp6560
Rp6561
a(lp6562
L12694412L
aL12694369L
aag12
aa(lp6563
L1528051L
aS'CCCCCCCCCCn1cc[n+](CC(O)(P(=O)(O)O)P(=O)(O)[O-])c1'
p6564
a(lp6565
g6327
ag6327
aag7
(S'6.78'
p6566
tp6567
Rp6568
a(lp6569
L12694411L
aL12694370L
aag12
aa(lp6570
L1528052L
aS'CCCCCCCCCCCn1cc[n+](CC(O)(P(=O)(O)O)P(=O)(O)[O-])c1'
p6571
a(lp6572
g6327
ag6327
aag7
(S'6.585'
p6573
tp6574
Rp6575
a(lp6576
L12694410L
aL12694371L
aag12
aa(lp6577
L1528053L
aS'CCCCCCCCCCCCn1cc[n+](CC(O)(P(=O)(O)O)P(=O)(O)[O-])c1'
p6578
a(lp6579
g6327
ag6327
aag7
(S'6.355'
p6580
tp6581
Rp6582
a(lp6583
L12694409L
aL12694372L
aag12
aa(lp6584
L1528054L
aS'CCCCCCCCCCCCCn1cc[n+](CC(O)(P(=O)(O)O)P(=O)(O)[O-])c1'
p6585
a(lp6586
g6327
ag6327
aag7
(S'5.475'
p6587
tp6588
Rp6589
a(lp6590
L12694408L
aL12694373L
aag12
aa(lp6591
L1528055L
aS'CCCCCCCCCCCCCCn1cc[n+](CC(O)(P(=O)(O)O)P(=O)(O)[O-])c1'
p6592
a(lp6593
g6327
aag7
(S'5.49'
p6594
tp6595
Rp6596
a(lp6597
L12694407L
aag12
aa(lp6598
L1528056L
aS'CCCCCCCCCCCCCCCn1cc[n+](CC(O)(P(=O)(O)O)P(=O)(O)[O-])c1'
p6599
a(lp6600
g6327
aag7
(S'5.15'
p6601
tp6602
Rp6603
a(lp6604
L12694406L
aag12
aa(lp6605
L1528057L
aS'OP(=O)(O)C(C[n+]1cc[nH]c1)P(=O)(O)[O-]'
p6606
a(lp6607
g6327
ag6327
aag7
(S'6.825'
p6608
tp6609
Rp6610
a(lp6611
L12694405L
aL12694376L
aag12
aa(lp6612
L1528058L
aS'Cn1cc[n+](CC(P(=O)(O)O)P(=O)(O)[O-])c1'
p6613
a(lp6614
g6327
ag6327
aag7
(S'6.76'
p6615
tp6616
Rp6617
a(lp6618
L12694404L
aL12694377L
aag12
aa(lp6619
L1528059L
aS'CCn1cc[n+](CC(P(=O)(O)O)P(=O)(O)[O-])c1'
p6620
a(lp6621
g6327
ag6327
aag7
(S'6.935'
p6622
tp6623
Rp6624
a(lp6625
L12694403L
aL12694378L
aag12
aa(lp6626
L1528060L
aS'CCCn1cc[n+](CC(P(=O)(O)O)P(=O)(O)[O-])c1'
p6627
a(lp6628
g6327
ag6327
aag7
(S'7.015'
p6629
tp6630
Rp6631
a(lp6632
L12694402L
aL12694379L
aag12
aa(lp6633
L1528061L
aS'CCCCn1cc[n+](CC(P(=O)(O)O)P(=O)(O)[O-])c1'
p6634
a(lp6635
g6327
ag6327
aag7
(S'6.995'
p6636
tp6637
Rp6638
a(lp6639
L12694401L
aL12694380L
aag12
aa(lp6640
L1528062L
aS'CCCCCn1cc[n+](CC(P(=O)(O)O)P(=O)(O)[O-])c1'
p6641
a(lp6642
g6327
ag6327
aag7
(S'6.83'
p6643
tp6644
Rp6645
a(lp6646
L12694400L
aL12694381L
aag12
aa(lp6647
L1528063L
aS'CCCCCCn1cc[n+](CC(P(=O)(O)O)P(=O)(O)[O-])c1'
p6648
a(lp6649
g6327
ag6327
aag7
(S'6.96'
p6650
tp6651
Rp6652
a(lp6653
L12694399L
aL12694382L
aag12
aa(lp6654
L1528064L
aS'CCCCCCCn1cc[n+](CC(P(=O)(O)O)P(=O)(O)[O-])c1'
p6655
a(lp6656
g6327
ag6327
aag7
(S'7.065'
p6657
tp6658
Rp6659
a(lp6660
L12694398L
aL12694383L
aag12
aa(lp6661
L1528065L
aS'CCCCCCCCn1cc[n+](CC(P(=O)(O)O)P(=O)(O)[O-])c1'
p6662
a(lp6663
g6327
ag6327
aag7
(S'7.10'
p6664
tp6665
Rp6666
a(lp6667
L12694397L
aL12694384L
aag12
aa(lp6668
L1528066L
aS'CCCCCCCCCn1cc[n+](CC(P(=O)(O)O)P(=O)(O)[O-])c1'
p6669
a(lp6670
g6327
ag6327
aag7
(S'7.185'
p6671
tp6672
Rp6673
a(lp6674
L12694396L
aL12694385L
aag12
aa(lp6675
L1528067L
aS'CCCCCCCCCCn1cc[n+](CC(P(=O)(O)O)P(=O)(O)[O-])c1'
p6676
a(lp6677
g6327
ag6327
aag7
(S'6.98'
p6678
tp6679
Rp6680
a(lp6681
L12694395L
aL12694386L
aag12
aa(lp6682
L1528068L
aS'CCCCCCCCCCCn1cc[n+](CC(P(=O)(O)O)P(=O)(O)[O-])c1'
p6683
a(lp6684
g6327
ag6327
aag7
(S'6.70'
p6685
tp6686
Rp6687
a(lp6688
L12694394L
aL12694387L
aag12
aa(lp6689
L1528069L
aS'CCCCCCCCCCCCn1cc[n+](CC(P(=O)(O)O)P(=O)(O)[O-])c1'
p6690
a(lp6691
g6327
ag6327
aag7
(S'6.47'
p6692
tp6693
Rp6694
a(lp6695
L12694393L
aL12694388L
aag12
aa(lp6696
L1528070L
aS'CCCCCCCCCCCCCn1cc[n+](CC(P(=O)(O)O)P(=O)(O)[O-])c1'
p6697
a(lp6698
g6327
ag6327
aag7
(S'6.44'
p6699
tp6700
Rp6701
a(lp6702
L12694392L
aL12694389L
aag12
aa(lp6703
L1528071L
aS'CCCCCCCCCCCCCCn1cc[n+](CC(P(=O)(O)O)P(=O)(O)[O-])c1'
p6704
a(lp6705
g6327
ag6327
aag7
(S'5.74'
p6706
tp6707
Rp6708
a(lp6709
L12694391L
aL12694422L
aag12
aa(lp6710
L1528072L
aS'CCCCCCCCCCCCCCCn1cc[n+](CC(P(=O)(O)O)P(=O)(O)[O-])c1'
p6711
a(lp6712
g6327
ag6327
aag7
(S'5.215'
p6713
tp6714
Rp6715
a(lp6716
L12694390L
aL12694423L
aag12
aa(lp6717
L161549L
aS'OC(Cc1cnc2ccccn12)(P(=O)(O)O)P(=O)(O)O'
p6718
a(lp6719
g6327
aag7
(S'8.52'
p6720
tp6721
Rp6722
a(lp6723
L3289107L
aag12
aa(lp6724
L1605416L
aS'COc1ccc(cc1)c2cc3c(NC(P(=O)(O)O)P(=O)(O)O)ncnc3s2'
p6725
a(lp6726
g6327
ag6327
aag7
(S'7.09'
p6727
tp6728
Rp6729
a(lp6730
L13828725L
aL13828737L
aag12
aa(lp6731
L1605417L
aS'OP(=O)(O)C(Nc1ncnc2sc(cc12)c3ccc(cc3)C(F)(F)F)P(=O)(O)O'
p6732
a(lp6733
g6327
aag7
(S'7.68'
p6734
tp6735
Rp6736
a(lp6737
L13828724L
aag12
aa(lp6738
L1605418L
aS'CC(C)Oc1ccc(cc1)c2cc3c(NC(P(=O)(O)O)P(=O)(O)O)ncnc3s2'
p6739
a(lp6740
g6327
aag7
(S'6.70'
p6741
tp6742
Rp6743
a(lp6744
L13828723L
aag12
aa(lp6745
L1605419L
aS'OP(=O)(O)C(Nc1ncnc2sc(cc12)c3ccc(OC4CC4)cc3)P(=O)(O)O'
p6746
a(lp6747
g6327
aag7
(S'7.85'
p6748
tp6749
Rp6750
a(lp6751
L13828722L
aag12
aa(lp6752
L1605420L
aS'OP(=O)(O)C(Nc1ncnc2sc(cc12)c3ccc(cc3)C4CC4)P(=O)(O)O'
p6753
a(lp6754
g6327
ag6327
aag7
(S'7.175'
p6755
tp6756
Rp6757
a(lp6758
L13828721L
aL13828733L
aag12
aa(lp6759
L1605421L
aS'OP(=O)(O)C(Nc1ncnc2sc(cc12)c3ccc(cc3)C4CC4(F)F)P(=O)(O)O'
p6760
a(lp6761
g6327
ag6327
aag7
(S'7.405'
p6762
tp6763
Rp6764
a(lp6765
L13828720L
aL13828732L
aag12
aa(lp6766
L469307L
aS'CCCCCCCCCCOc1ccc[n+](CC(P(=O)(O)O)P(=O)(O)[O-])c1'
p6767
a(lp6768
g6327
aag7
(S'7.00'
p6769
tp6770
Rp6771
a(lp6772
L10946202L
aag12
aa(lp6773
L83772L
aS'OC(Cc1cccnc1)(P(=O)(O)O)P(=O)(O)O'
p6774
a(lp6775
g6327
ag6327
ag6327
ag6327
ag6327
ag6327
ag6327
ag6327
ag6327
aag7
(S'7.96'
p6776
tp6777
Rp6778
a(lp6779
L2155040L
aL2155041L
aL2155084L
aL2155085L
aL3500352L
aL10945289L
aL10946195L
aL13828730L
aL13828742L
aag12
aa(lp6780
L84800L
aS'OP(=O)(O)C(CNc1ccccn1)P(=O)(O)O'
p6781
a(lp6782
g6327
ag6327
ag6327
ag6327
aag7
(S'7.625'
p6783
tp6784
Rp6785
a(lp6786
L2155016L
aL2155017L
aL2155062L
aL2155063L
aag12
aa(lp6787
L402755L
aS'CCCCCCCCCCCC[S+](C)CC(P(=O)(O)O)P(=O)(O)[O-]'
p6788
a(lp6789
g6327
ag6327
aag7
(S'6.595'
p6790
tp6791
Rp6792
a(lp6793
L2002739L
aL2002754L
aag12
aa(lp6794
L402760L
aS'CCCCCCCCCC[S+](C)CC(P(=O)(O)O)P(=O)(O)[O-]'
p6795
a(lp6796
g6327
ag6327
aag7
(S'6.61'
p6797
tp6798
Rp6799
a(lp6800
L2002772L
aL2002773L
aag12
aa(lp6801
L402761L
aS'CCCCCCCCCCCCCC[S+](C)CC(P(=O)(O)O)P(=O)(O)[O-]'
p6802
a(lp6803
g6327
ag6327
aag7
(S'5.085'
p6804
tp6805
Rp6806
a(lp6807
L2002770L
aL2002771L
aag12
aa(lp6808
L83274L
aS'Cc1cccnc1NC(P(=O)(O)O)P(=O)(O)O'
p6809
a(lp6810
g6327
ag6327
ag6327
ag6327
aag7
(S'8.065'
p6811
tp6812
Rp6813
a(lp6814
L2155010L
aL2155011L
aL2155056L
aL2155057L
aag12
aa(lp6815
L402765L
aS'CCCCCCCCCCCCCCCCCCCC[S+](C)CC(P(=O)(O)O)P(=O)(O)[O-]'
p6816
a(lp6817
g6327
aag7
(S'6.60'
p6818
tp6819
Rp6820
a(lp6821
L2002769L
aag12
aa(lp6822
L402767L
aS'CCCCCCCCCCCCCCCCCC[S+](C)CC(P(=O)(O)O)P(=O)(O)[O-]'
p6823
a(lp6824
g6327
ag6327
aag7
(S'5.115'
p6825
tp6826
Rp6827
a(lp6828
L2002766L
aL2002767L
aag12
aa(lp6829
L84310L
aS'OC(CCc1cccnc1)(P(=O)(O)O)P(=O)(O)O'
p6830
a(lp6831
g6327
ag6327
ag6327
ag6327
aag7
(S'6.455'
p6832
tp6833
Rp6834
a(lp6835
L2155036L
aL2155037L
aL2155080L
aL2155081L
aag12
aa(lp6836
L402775L
aS'CCCCCCCC[S+](C)CC(P(=O)(O)O)P(=O)(O)[O-]'
p6837
a(lp6838
g6327
ag6327
aag7
(S'6.42'
p6839
tp6840
Rp6841
a(lp6842
L2002762L
aL2002763L
aag12
aa(lp6843
L402782L
aS'CCC[S+](C)CC(P(=O)(O)O)P(=O)(O)[O-]'
p6844
a(lp6845
g6327
ag6327
aag7
(S'6.29'
p6846
tp6847
Rp6848
a(lp6849
L2002760L
aL2002761L
aag12
aa(lp6850
L402783L
aS'C[S+](C)CCC(O)(P(=O)(O)O)P(=O)(O)[O-]'
p6851
a(lp6852
g6327
ag6327
aag7
(S'5.025'
p6853
tp6854
Rp6855
a(lp6856
L2002758L
aL2002759L
aag12
aa(lp6857
L402786L
aS'C[S+](C)CC(O)(P(=O)(O)O)P(=O)(O)[O-]'
p6858
a(lp6859
g6327
ag6327
aag7
(S'5.995'
p6860
tp6861
Rp6862
a(lp6863
L2002756L
aL2002757L
aag12
aa(lp6864
L110435L
aS'CCCCCN(C)CCC(O)(P(=O)(O)O)P(=O)(O)O'
p6865
a(lp6866
g6327
ag6327
ag6327
ag6327
aag7
(S'7.155'
p6867
tp6868
Rp6869
a(lp6870
L2155044L
aL2155045L
aL2155088L
aL2155089L
aag12
aa(lp6871
L707431L
aS'OP(=O)(O)C(F)(Cc1cncc(c1)c2ccc3[nH]ncc3c2)P(=O)(O)O'
p6872
a(lp6873
g6327
ag6327
aag7
(S'6.215'
p6874
tp6875
Rp6876
a(lp6877
L3500351L
aL10945297L
aag12
aa(lp6878
L707432L
aS'OP(=O)(O)C(F)(Cc1cncc(c1)c2cn[nH]c2)P(=O)(O)O'
p6879
a(lp6880
g6327
aag7
(S'6.19'
p6881
tp6882
Rp6883
a(lp6884
L3500350L
aag12
aa(lp6885
L83838L
aS'OC(Cn1ccnc1)(P(=O)(O)O)P(=O)(O)O'
p6886
a(lp6887
g6327
ag6327
ag6327
ag6327
ag6327
ag6327
ag6327
aag7
(S'7.07'
p6888
tp6889
Rp6890
a(lp6891
L2155042L
aL2155043L
aL2155086L
aL2155087L
aL12049467L
aL12694421L
aL12694360L
aag12
aa(lp6892
L693657L
aS'OC(=O)Cn1c(cc2ccc3ccccc3c12)C(=O)O'
p6893
a(lp6894
g6327
aag7
(S'6.04'
p6895
tp6896
Rp6897
a(lp6898
L13828728L
aag12
aa(lp6899
L60401L
aS'NCCC(O)(P(=O)(O)O)P(=O)(O)O'
p6900
a(lp6901
g6327
ag6327
ag6327
aag7
(S'6.48'
p6902
tp6903
Rp6904
a(lp6905
L2155002L
aL2155001L
aL2155003L
aag12
aa(lp6906
L161706L
aS'Cc1cccnc1NCC(P(=O)(O)O)P(=O)(O)O'
p6907
a(lp6908
g6327
ag6327
ag6327
ag6327
aag7
(S'6.42'
p6909
tp6910
Rp6911
a(lp6912
L2155014L
aL2155015L
aL2155060L
aL2155061L
aag12
aa(lp6913
L435632L
aS'OC1=C(C(=O)Nc2ccc(cc2)C3CCCCC3)C(=O)N(Cc4ccccc4)C1'
p6914
a(lp6915
g6327
aag7
(S'5.10'
p6916
tp6917
Rp6918
a(lp6919
L2115628L
aag12
aa(lp6920
L1529694L
aS'Cc1ccc(cc1)c2cc3c(NC(P(=O)(O)O)P(=O)(O)O)ncnc3s2'
p6921
a(lp6922
g6327
ag6327
ag6327
aag7
(S'6.41'
p6923
tp6924
Rp6925
a(lp6926
L12725075L
aL13828726L
aL13828738L
aag12
aa(lp6927
L161740L
aS'C[n+]1cccc(CC(O)(P(=O)(O)O)P(=O)(O)O)c1'
p6928
a(lp6929
g6327
ag6327
ag6327
ag6327
aag7
(S'7.23'
p6930
tp6931
Rp6932
a(lp6933
L2155030L
aL2155031L
aL2155074L
aL2155075L
aag12
aa(lp6934
L1351672L
aS'OP(=O)(O)C(Nc1cc(ccn1)c2ccc(OC3CCC3)cc2)P(=O)(O)O'
p6935
a(lp6936
g6327
ag6327
aag7
(S'6.57'
p6937
tp6938
Rp6939
a(lp6940
L10946174L
aL10946199L
aag12
aa(lp6941
L1351673L
aS'Cc1ccc(cc1)c2ccnc(NC(P(=O)(O)O)P(=O)(O)O)c2'
p6942
a(lp6943
g6327
aag7
(S'7.46'
p6944
tp6945
Rp6946
a(lp6947
L10946175L
aag12
aa(lp6948
L513359L
aS'OP(=O)(O)C(Cn1cnc2c(Cl)ncnc12)P(=O)(O)O'
p6949
a(lp6950
g6327
aag7
(S'6.05'
p6951
tp6952
Rp6953
a(lp6954
L2472293L
aag12
aa(lp6955
L1351674L
aS'OP(=O)(O)C(Nc1cc(ccn1)c2ccc(OC3CCCC3)cc2)P(=O)(O)O'
p6956
a(lp6957
g6327
ag6327
aag7
(S'6.80'
p6958
tp6959
Rp6960
a(lp6961
L10946176L
aL10946200L
aag12
aa(lp6962
L83936L
aS'OP(=O)(O)C(Nc1ccccn1)P(=O)(O)O'
p6963
a(lp6964
g6327
ag6327
ag6327
ag6327
ag6327
aag7
(S'7.54'
p6965
tp6966
Rp6967
a(lp6968
L2155012L
aL2155013L
aL2155058L
aL2155059L
aL10945290L
aag12
aa(lp6969
L83952L
aS'OC(Cc1ccccn1)(P(=O)(O)O)P(=O)(O)O'
p6970
a(lp6971
g6327
ag6327
ag6327
ag6327
aag7
(S'7.635'
p6972
tp6973
Rp6974
a(lp6975
L2155024L
aL2155025L
aL2155068L
aL2155069L
aag12
aa(lp6976
L83953L
aS'OC(Cc1ccccc1)(P(=O)(O)O)P(=O)(O)O'
p6977
a(lp6978
g6327
ag6327
ag6327
ag6327
aag7
(S'6.11'
p6979
tp6980
Rp6981
a(lp6982
L2155034L
aL2155035L
aL2155078L
aL2155079L
aag12
aa(lp6983
L1351666L
aS'OP(=O)(O)C(F)(Cc1cncc(c1)c2ccccc2)P(=O)(O)O'
p6984
a(lp6985
g6327
aag7
(S'6.94'
p6986
tp6987
Rp6988
a(lp6989
L10945292L
aag12
aa(lp6990
L1351667L
aS'OP(=O)(O)C(Cc1cncc(c1)c2ccccc2)P(=O)(O)O'
p6991
a(lp6992
g6327
aag7
(S'6.79'
p6993
tp6994
Rp6995
a(lp6996
L10945293L
aag12
aa(lp6997
L1351668L
aS'OP(=O)(O)C(Nc1cncc(c1)c2ccccc2)P(=O)(O)O'
p6998
a(lp6999
g6327
aag7
(S'7.33'
p7000
tp7001
Rp7002
a(lp7003
L10945294L
aag12
aa(lp7004
L1351669L
aS'OP(=O)(O)C(Nc1cc(ccn1)c2ccccc2)P(=O)(O)O'
p7005
a(lp7006
g6327
aag7
(S'6.82'
p7007
tp7008
Rp7009
a(lp7010
L10945296L
aag12
aa(lp7011
L1351670L
aS'OP(=O)(O)C(Nc1cc(ccn1)c2ccc3[nH]ncc3c2)P(=O)(O)O'
p7012
a(lp7013
g6327
aag7
(S'6.37'
p7014
tp7015
Rp7016
a(lp7017
L10946172L
aag12
aa(lp7018
L1351671L
aS'CC(C)Oc1ccc(cc1)c2ccnc(NC(P(=O)(O)O)P(=O)(O)O)c2'
p7019
a(lp7020
g6327
ag6327
aag7
(S'6.705'
p7021
tp7022
Rp7023
a(lp7024
L10946173L
aL10946198L
aag12
aa(lp7025
L1366008L
aS'OP(=O)(O)C(Nc1cc(ccn1)c2ccc(OC3CC3)cc2)P(=O)(O)O'
p7026
a(lp7027
g6327
aag7
(S'7.92'
p7028
tp7029
Rp7030
a(lp7031
L11013276L
aag12
aa(lp7032
L1366009L
aS'OP(=O)(O)C(Nc1cncc(Cc2ccccc2)c1)P(=O)(O)O'
p7033
a(lp7034
g6327
aag7
(S'6.00'
p7035
tp7036
Rp7037
a(lp7038
L11013279L
aag12
aa(lp7039
L1366010L
aS'CC(C)Oc1ccc(cc1)c2cncc(NC(P(=O)(O)O)P(=O)(O)O)c2'
p7040
a(lp7041
g6327
aag7
(S'7.22'
p7042
tp7043
Rp7044
a(lp7045
L11013280L
aag12
aa(lp7046
L1366011L
aS'OP(=O)(O)C(Nc1cncc(c1)c2ccc(OC3CC3)cc2)P(=O)(O)O'
p7047
a(lp7048
g6327
ag6327
ag6327
aag7
(S'7.80'
p7049
tp7050
Rp7051
a(lp7052
L11013281L
aL13828729L
aL13828741L
aag12
aa(lp7053
L1351677L
aS'COc1ccc(cc1)c2ccnc(NC(P(=O)(O)O)P(=O)(O)O)c2'
p7054
a(lp7055
g6327
aag7
(S'6.94'
p7056
tp7057
Rp7058
a(lp7059
L11013274L
aag12
aas.