(dp0
S'P10826'
p1
(dp2
S'domains'
p3
(lp4
S'3.30.50.10.FF4310'
p5
aS'1.10.565.10.FF5235'
p6
asS'start'
p7
(lp8
I0
aI0
asS'end'
p9
(lp10
I1
aI1
asS'count'
p11
I2
sS'countUnique'
p12
I2
ssS'P02708'
p13
(dp14
g3
(lp15
S'2.70.170.10.FF2418'
p16
aS'1.20.58.390.FF2703'
p17
asg7
(lp18
I0
aI0
asg9
(lp19
I1
aI1
asg11
I2
sg12
I2
ssS'Q92731'
p20
(dp21
g3
(lp22
S'PF12497'
p23
aS'3.30.50.10.FF4310'
p24
aS'1.10.565.10.FF5235'
p25
asg7
(lp26
I0
aI0
aI0
asg9
(lp27
I1
aI1
aI1
asg11
I3
sg12
I3
ssS'P05556'
p28
(dp29
g3
(lp30
S'g.16.2'
p31
aS'3.40.50.410.FF19584'
p32
aS'b.1.15'
p33
aS'2.10.25.10.FF46201'
p34
aS'2.10.25.10.FF46607'
p35
aS'2.10.25.10.FF46388'
p36
aS'd.200.1'
p37
aS'1.20.5.100.FF6715'
p38
aS'1.20.5.630.FF132'
p39
asg7
(lp40
I0
aI0
aI0
aI0
aI0
aI0
aI0
aI0
aI0
asg9
(lp41
I1
aI1
aI1
aI1
aI1
aI1
aI1
aI1
aI1
asg11
I9
sg12
I9
ssS'P10276'
p42
(dp43
g3
(lp44
S'3.30.50.10.FF4310'
p45
aS'1.10.565.10.FF5235'
p46
asg7
(lp47
I0
aI0
asg9
(lp48
I1
aI1
asg11
I2
sg12
I2
ssS'O14732'
p49
(dp50
g3
(lp51
S'3.30.540.10.FF6507'
p52
aS'3.40.190.80.FF6019'
p53
asg7
(lp54
I0
aI0
asg9
(lp55
I1
aI1
asg11
I2
sg12
I2
ssS'P11802'
p56
(dp57
g3
(lp58
S'3.30.200.20.FF66641'
p59
aS'1.10.510.10.FF79386'
p60
asg7
(lp61
I0
aI0
asg9
(lp62
I1
aI1
asg11
I2
sg12
I2
ssS'Q00987'
p63
(dp64
g3
(lp65
S'1.10.245.10.FF868'
p66
aS'a.42.1'
p67
aS'g.41.11'
p68
aS'3.30.40.10.FF61763'
p69
asg7
(lp70
I0
aI0
aI0
aI0
asg9
(lp71
I1
aI1
aI1
aI1
asg11
I4
sg12
I4
ssS'P17787'
p72
(dp73
g3
(lp74
S'2.70.170.10.FF2418'
p75
aS'1.20.58.390.FF2703'
p76
asg7
(lp77
I0
aI0
asg9
(lp78
I1
aI1
asg11
I2
sg12
I2
ssS'P05106'
p79
(dp80
g3
(lp81
S'g.16.2'
p82
aS'3.40.50.410.FF19584'
p83
aS'b.1.15'
p84
aS'2.10.25.10.FF46000'
p85
aS'2.10.25.10.FF46349'
p86
aS'2.10.25.10.FF46388'
p87
aS'd.200.1'
p88
aS'1.20.5.100.FF6715'
p89
aS'1.20.5.630.FF12'
p90
asg7
(lp91
I0
aI0
aI0
aI0
aI0
aI0
aI0
aI0
aI0
asg9
(lp92
I1
aI1
aI1
aI1
aI1
aI1
aI1
aI1
aI1
asg11
I9
sg12
I9
ssS'P18507'
p93
(dp94
g3
(lp95
S'2.70.170.10.FF2418'
p96
aS'1.20.58.390.FF2703'
p97
asg7
(lp98
I0
aI0
asg9
(lp99
I1
aI1
asg11
I2
sg12
I2
ssS'P32297'
p100
(dp101
g3
(lp102
S'2.70.170.10.FF2418'
p103
aS'1.20.58.390.FF2703'
p104
asg7
(lp105
I0
aI0
asg9
(lp106
I1
aI1
asg11
I2
sg12
I2
ssS'P14324'
p107
(dp108
g3
(lp109
S'1.10.600.10.FF9697'
p110
asg7
(lp111
I0
asg9
(lp112
I1
asg11
I1
sg12
I1
ssS'P19793'
p113
(dp114
g3
(lp115
S'PF11825'
p116
aS'3.30.50.10.FF4310'
p117
aS'1.10.565.10.FF5235'
p118
asg7
(lp119
I0
aI0
aI0
asg9
(lp120
I1
aI1
aI1
asg11
I3
sg12
I3
ssS'Q9Y271'
p121
(dp122
g3
(lp123
S'1.20.1070.10.FF45527'
p124
asg7
(lp125
I0
asg9
(lp126
I1
asg11
I1
sg12
I1
ssS'Q96RJ0'
p127
(dp128
g3
(lp129
S'1.20.1070.10.FF45254'
p130
asg7
(lp131
I0
asg9
(lp132
I1
asg11
I1
sg12
I1
ssS'P29218'
p133
(dp134
g3
(lp135
S'3.30.540.10.FF6507'
p136
aS'3.40.190.80.FF6019'
p137
asg7
(lp138
I0
aI0
asg9
(lp139
I1
aI1
asg11
I2
sg12
I2
ssS'P14635'
p140
(dp141
g3
(lp142
S'PB012792'
p143
aS'PB017759'
p144
aS'1.10.472.10.FF9954'
p145
aS'1.10.472.10.FF9957'
p146
asg7
(lp147
I0
aI0
aI0
aI0
asg9
(lp148
I1
aI1
aI1
aI1
asg11
I4
sg12
I4
ssS'P06756'
p149
(dp150
g3
(lp151
S'2.130.10.130.FF8359'
p152
aS'2.60.40.1460.FF717'
p153
aS'2.60.40.1510.FF1284'
p154
aS'2.60.40.1530.FF846'
p155
aS'1.20.5.930.FF459'
p156
asg7
(lp157
I0
aI0
aI0
aI0
aI0
asg9
(lp158
I1
aI1
aI1
aI1
aI1
asg11
I5
sg12
I5
ssS'P28702'
p159
(dp160
g3
(lp161
S'3.30.50.10.FF4310'
p162
aS'1.10.565.10.FF5235'
p163
asg7
(lp164
I0
aI0
asg9
(lp165
I1
aI1
asg11
I2
sg12
I2
ssS'P13631'
p166
(dp167
g3
(lp168
S'3.30.50.10.FF4310'
p169
aS'1.10.565.10.FF5235'
p170
asg7
(lp171
I0
aI0
asg9
(lp172
I1
aI1
asg11
I2
sg12
I2
ssS'P27361'
p173
(dp174
g3
(lp175
S'3.30.200.20.FF67160'
p176
aS'1.10.510.10.FF79386'
p177
asg7
(lp178
I0
aI0
asg9
(lp179
I1
aI1
asg11
I2
sg12
I2
ssS'P10635'
p180
(dp181
g3
(lp182
S'1.10.630.10.FF6630'
p183
asg7
(lp184
I0
asg9
(lp185
I1
asg11
I1
sg12
I1
ssS'P24530'
p186
(dp187
g3
(lp188
S'PB004980'
p189
aS'1.20.1070.10.FF44876'
p190
asg7
(lp191
I0
aI0
asg9
(lp192
I1
aI1
asg11
I2
sg12
I2
ssS'P11387'
p193
(dp194
g3
(lp195
S'1.10.10.41.FF281'
p196
aS'2.170.11.10.FF199'
p197
aS'3.90.15.10.FF540'
p198
aS'1.10.132.10.FF382'
p199
asg7
(lp200
I0
aI0
aI0
aI0
asg9
(lp201
I1
aI1
aI1
aI1
asg11
I4
sg12
I4
ssS'P13612'
p202
(dp203
g3
(lp204
S'2.130.10.130.FF8359'
p205
aS'2.60.40.1460.FF717'
p206
aS'2.60.40.1510.FF1288'
p207
aS'2.60.40.1530.FF846'
p208
aS'1.20.5.930.FF459'
p209
asg7
(lp210
I0
aI0
aI0
aI0
aI0
asg9
(lp211
I1
aI1
aI1
aI1
aI1
asg11
I5
sg12
I5
ssS'Q05586'
p212
(dp213
g3
(lp214
S'3.40.50.2300.FF152315'
p215
aS'3.40.50.2300.FF152227'
p216
aS'PB005894'
p217
aS'3.40.190.10.FF204326'
p218
aS'1.10.287.70.FF17099'
p219
aS'3.40.190.10.FF203531'
p220
aS'PF10562'
p221
asg7
(lp222
I0
aI0
aI0
aI0
aI0
aI0
aI0
asg9
(lp223
I1
aI1
aI1
aI1
aI1
aI1
aI1
asg11
I7
sg12
I7
ssS'P28482'
p224
(dp225
g3
(lp226
S'3.30.200.20.FF67160'
p227
aS'1.10.510.10.FF79386'
p228
asg7
(lp229
I0
aI0
asg9
(lp230
I1
aI1
asg11
I2
sg12
I2
ssS'P06493'
p231
(dp232
g3
(lp233
S'3.30.200.20.FF66249'
p234
aS'1.10.510.10.FF5521'
p235
asg7
(lp236
I0
aI0
asg9
(lp237
I1
aI1
asg11
I2
sg12
I2
ssS'P20309'
p238
(dp239
g3
(lp240
S'1.20.1070.10.FF45435'
p241
asg7
(lp242
I0
asg9
(lp243
I1
asg11
I1
sg12
I1
ssS'P24864'
p244
(dp245
g3
(lp246
S'1.10.472.10.FF9954'
p247
aS'1.10.472.10.FF9957'
p248
asg7
(lp249
I0
aI0
asg9
(lp250
I1
aI1
asg11
I2
sg12
I2
ssS'Q00535'
p251
(dp252
g3
(lp253
S'3.30.200.20.FF66641'
p254
aS'1.10.510.10.FF79386'
p255
asg7
(lp256
I0
aI0
asg9
(lp257
I1
aI1
asg11
I2
sg12
I2
ssS'P43220'
p258
(dp259
g3
(lp260
S'4.10.1240.10.FF951'
p261
aS'1.20.1070.10.FF45795'
p262
asg7
(lp263
I0
aI0
asg9
(lp264
I1
aI1
asg11
I2
sg12
I2
ssS'P18405'
p265
(dp266
g3
(lp267
S'3.30.540.10.FF6507'
p268
aS'3.40.190.80.FF6019'
p269
asg7
(lp270
I0
aI0
asg9
(lp271
I1
aI1
asg11
I2
sg12
I2
ssS'P14867'
p272
(dp273
g3
(lp274
S'2.70.170.10.FF2418'
p275
aS'1.20.58.390.FF2703'
p276
asg7
(lp277
I0
aI0
asg9
(lp278
I1
aI1
asg11
I2
sg12
I2
ssS'P04637'
p279
(dp280
g3
(lp281
S'PF08563'
p282
aS'2.60.40.720.FF242'
p283
aS'4.10.170.10.FF101'
p284
asg7
(lp285
I0
aI0
aI0
asg9
(lp286
I1
aI1
aI1
asg11
I3
sg12
I3
ssS'Q15078'
p287
(dp288
g3
(lp289
S'1.10.472.10.FF9955'
p290
asg7
(lp291
I0
asg9
(lp292
I1
asg11
I1
sg12
I1
ssS'P24941'
p293
(dp294
g3
(lp295
S'3.30.200.20.FF66641'
p296
aS'1.10.510.10.FF79386'
p297
asg7
(lp298
I0
aI0
asg9
(lp299
I1
aI1
asg11
I2
sg12
I2
ssS'P01589'
p300
(dp301
g3
(lp302
S'2.10.70.10.FF17138'
p303
aS'2.10.70.10.FF17426'
p304
asg7
(lp305
I0
aI0
asg9
(lp306
I1
aI1
asg11
I2
sg12
I2
ssS'P48443'
p307
(dp308
g3
(lp309
S'PF11825'
p310
aS'3.30.50.10.FF4310'
p311
aS'1.10.565.10.FF5235'
p312
asg7
(lp313
I0
aI0
aI0
asg9
(lp314
I1
aI1
aI1
asg11
I3
sg12
I3
ssS'P43681'
p315
(dp316
g3
(lp317
S'2.70.170.10.FF2418'
p318
aS'1.20.58.390.FF2703'
p319
asg7
(lp320
I0
aI0
asg9
(lp321
I1
aI1
asg11
I2
sg12
I2
ssS'P11230'
p322
(dp323
g3
(lp324
S'2.70.170.10.FF2418'
p325
aS'1.20.58.390.FF2703'
p326
asg7
(lp327
I0
aI0
asg9
(lp328
I1
aI1
asg11
I2
sg12
I2
ssS'Q13224'
p329
(dp330
g3
(lp331
S'3.40.50.2300.FF152306'
p332
aS'3.40.50.2300.FF152227'
p333
aS'3.40.190.10.FF204326'
p334
aS'1.10.287.70.FF17099'
p335
aS'3.40.190.10.FF204070'
p336
aS'PF10565'
p337
asg7
(lp338
I0
aI0
aI0
aI0
aI0
aI0
asg9
(lp339
I1
aI1
aI1
aI1
aI1
aI1
asg11
I6
sg12
I6
ssS'Q12879'
p340
(dp341
g3
(lp342
S'3.40.50.2300.FF152227'
p343
aS'3.40.190.10.FF204326'
p344
aS'1.10.287.70.FF17099'
p345
aS'3.40.190.10.FF204070'
p346
aS'PF10565'
p347
asg7
(lp348
I0
aI0
aI0
aI0
aI0
asg9
(lp349
I1
aI1
aI1
aI1
aI1
asg11
I5
sg12
I5
ssS'P47870'
p350
(dp351
g3
(lp352
S'2.70.170.10.FF2418'
p353
aS'1.20.58.390.FF2703'
p354
asg7
(lp355
I0
aI0
asg9
(lp356
I1
aI1
asg11
I2
sg12
I2
ssS'P07510'
p357
(dp358
g3
(lp359
S'2.70.170.10.FF2418'
p360
aS'1.20.58.390.FF2703'
p361
asg7
(lp362
I0
aI0
asg9
(lp363
I1
aI1
asg11
I2
sg12
I2
ssS'P24385'
p364
(dp365
g3
(lp366
S'1.10.472.10.FF9954'
p367
aS'1.10.472.10.FF9957'
p368
asg7
(lp369
I0
aI0
asg9
(lp370
I1
aI1
asg11
I2
sg12
I2
ssS'P15692'
p371
(dp372
g3
(lp373
S'2.10.90.10.FF2930'
p374
aS'2.10.160.10.FF12'
p375
asg7
(lp376
I0
aI0
asg9
(lp377
I1
aI1
asg11
I2
sg12
I2
ssS'P30926'
p378
(dp379
g3
(lp380
S'2.70.170.10.FF2418'
p381
aS'1.20.58.390.FF2703'
p382
asg7
(lp383
I0
aI0
asg9
(lp384
I1
aI1
asg11
I2
sg12
I2
ssS'Q07001'
p385
(dp386
g3
(lp387
S'2.70.170.10.FF2418'
p388
aS'1.20.58.390.FF2703'
p389
asg7
(lp390
I0
aI0
asg9
(lp391
I1
aI1
asg11
I2
sg12
I2
ss.