(dp0
S'1.20.1070.10.FF45254'
p1
(dp2
L1446016L
(dp3
S'smiles'
p4
S'COc1ccc(cc1)N(Cc2c[nH]cn2)C(C)C'
p5
sS'pAfnty'
p6
(lp7
cdecimal
Decimal
p8
(S'7.10'
p9
tp10
Rp11
asS'target'
p12
(lp13
S'Q96RJ0'
p14
asS'actId'
p15
(lp16
L12188203L
assL1446017L
(dp17
g4
S'CC(C)N(Cc1c[nH]cn1)c2cccc(c2)S(=O)(=O)C'
p18
sg6
(lp19
g8
(S'6.89'
p20
tp21
Rp22
asg12
(lp23
g14
asg15
(lp24
L12188201L
assL1446018L
(dp25
g4
S'CN(Cc1c[nH]cn1)c2cccc(Cl)c2'
p26
sg6
(lp27
g8
(S'7.96'
p28
tp29
Rp30
asg12
(lp31
g14
asg15
(lp32
L12188199L
assL1446019L
(dp33
g4
S'CCN(Cc1c[nH]cn1)c2cccc(Cl)c2'
p34
sg6
(lp35
g8
(S'8.70'
p36
tp37
Rp38
asg12
(lp39
g14
asg15
(lp40
L12188197L
assL1446020L
(dp41
g4
S'CC(C)(C)N(Cc1c[nH]cn1)c2cccc(Cl)c2'
p42
sg6
(lp43
g8
(S'7.48'
p44
tp45
Rp46
asg12
(lp47
g14
asg15
(lp48
L12188195L
assL1446021L
(dp49
g4
S'CC(C)N(Cc1c[nH]cn1)c2ccccn2'
p50
sg6
(lp51
g8
(S'6.71'
p52
tp53
Rp54
asg12
(lp55
g14
asg15
(lp56
L12188193L
assL656262L
(dp57
g4
S'NCCc1ccc(Oc2ccc(O)cc2)c(I)c1'
p58
sg6
(lp59
g8
(S'5.82'
p60
tp61
Rp62
asg12
(lp63
g14
asg15
(lp64
L7968729L
assL1446023L
(dp65
g4
S'CC(C)N(Cc1c[nH]cn1)c2nccc(Cl)n2'
p66
sg6
(lp67
g8
(S'7.00'
p68
tp69
Rp70
asg12
(lp71
g14
asg15
(lp72
L12188189L
assL1267976L
(dp73
g4
S'C[C@H](N)Cc1ccc(O)cc1'
p74
sg6
(lp75
g8
(S'5.53'
p76
tp77
Rp78
asg12
(lp79
g14
asg15
(lp80
L7967445L
assL1446025L
(dp81
g4
S'CCc1cccc(CC)c1CC2=NCCN2'
p82
sg6
(lp83
g8
(S'6.52'
p84
tp85
Rp86
asg12
(lp87
g14
asg15
(lp88
L12188266L
assL1267978L
(dp89
g4
S'COc1cccc(C[C@H](C)N)c1'
p90
sg6
(lp91
g8
(S'5.72'
p92
tp93
Rp94
asg12
(lp95
g14
asg15
(lp96
L7967451L
assL1267979L
(dp97
g4
S'COc1cccc(C[C@@H](C)N)c1'
p98
sg6
(lp99
g8
(S'5.19'
p100
tp101
Rp102
asg12
(lp103
g14
asg15
(lp104
L7967452L
assL1267980L
(dp105
g4
S'CCc1cc(OC)c(C[C@H](C)N)cc1OC'
p106
sg6
(lp107
g8
(S'5.30'
p108
tp109
Rp110
asg12
(lp111
g14
asg15
(lp112
L7967458L
assL1446029L
(dp113
g4
S'Clc1cccc(Cl)c1Cc2ncc[nH]2'
p114
sg6
(lp115
g8
(S'5.86'
p116
tp117
Rp118
asg12
(lp119
g14
asg15
(lp120
L12188253L
assL1267982L
(dp121
g4
S'CN[C@H](C)Cc1ccccc1'
p122
sg6
(lp123
g8
(S'5.48'
p124
tp125
Rp126
asg12
(lp127
g14
asg15
(lp128
L7967461L
assL1446031L
(dp129
g4
S'CCc1cccc(CC)c1Cc2ncc[nH]2'
p130
sg6
(lp131
g8
(S'7.62'
p132
tp133
Rp134
asg12
(lp135
g14
asg15
(lp136
L12188249L
assL23056L
(dp137
g4
S'NCCc1ccccc1'
p138
sg6
(lp139
g8
(S'6.97'
p140
tp141
Rp142
asg12
(lp143
g14
asg15
(lp144
L7968728L
assL1446034L
(dp145
g4
S'C(Cc1c[nH]cn1)c2ccccc2'
p146
sg6
(lp147
g8
(S'8.70'
p148
tp149
Rp150
asg12
(lp151
g14
asg15
(lp152
L12188241L
assL1446035L
(dp153
g4
S'C(Nc1ccccc1)c2c[nH]cn2'
p154
sg6
(lp155
g8
(S'7.19'
p156
tp157
Rp158
asg12
(lp159
g14
asg15
(lp160
L12188239L
assL258708L
(dp161
g4
S'C(N(Cc1c[nH]cn1)c2ccccc2)c3ccccc3'
p162
sg6
(lp163
g8
(S'7.49'
p164
tp165
Rp166
asg12
(lp167
g14
asg15
(lp168
L12188231L
assL1446037L
(dp169
g4
S'CCN(Cc1c[nH]cn1)c2ccccc2'
p170
sg6
(lp171
g8
(S'7.32'
p172
tp173
Rp174
asg12
(lp175
g14
asg15
(lp176
L12188235L
assL1446038L
(dp177
g4
S'CC(C)N(Cc1c[nH]cn1)c2ccccc2'
p178
sg6
(lp179
g8
(S'7.66'
p180
tp181
Rp182
asg12
(lp183
g14
asg15
(lp184
L12188233L
assL1446039L
(dp185
g4
S'C(N(c1ccccc1)c2ccccc2)c3c[nH]cn3'
p186
sg6
(lp187
g8
(S'7.16'
p188
tp189
Rp190
asg12
(lp191
g14
asg15
(lp192
L12188229L
assL1446040L
(dp193
g4
S'C(N(C1CC1)c2ccccc2)c3c[nH]cn3'
p194
sg6
(lp195
g8
(S'7.00'
p196
tp197
Rp198
asg12
(lp199
g14
asg15
(lp200
L12188227L
assL1446041L
(dp201
g4
S'C(N1CCc2ccccc12)c3c[nH]cn3'
p202
sg6
(lp203
g8
(S'7.46'
p204
tp205
Rp206
asg12
(lp207
g14
asg15
(lp208
L12188225L
assL1446528L
(dp209
g4
S'CC(C)N(Cc1c[nH]cn1)c2ccccc2Cl'
p210
sg6
(lp211
g8
(S'7.40'
p212
tp213
Rp214
asg12
(lp215
g14
asg15
(lp216
L12188221L
assL1446042L
(dp217
g4
S'C(N1CCCc2ccccc12)c3c[nH]cn3'
p218
sg6
(lp219
g8
(S'7.92'
p220
tp221
Rp222
asg12
(lp223
g14
asg15
(lp224
L12188223L
assL23198L
(dp225
g4
S'C[C@@H](N)Cc1ccccc1'
p226
sg6
(lp227
g8
(S'5.89'
p228
tp229
Rp230
ag8
(S'5.77'
p231
tp232
Rp233
ag8
(S'6.60'
p234
tp235
Rp236
asg12
(lp237
g14
ag14
ag14
asg15
(lp238
L7967444L
aL7968727L
aL7968731L
assL23199L
(dp239
g4
S'C[C@H](N)Cc1ccccc1'
p240
sg6
(lp241
g8
(S'6.22'
p242
tp243
Rp244
ag8
(S'6.00'
p245
tp246
Rp247
ag8
(S'6.85'
p248
tp249
Rp250
asg12
(lp251
g14
ag14
ag14
asg15
(lp252
L7967443L
aL7968726L
aL7968730L
assL1446022L
(dp253
g4
S'COc1cccc(n1)N(Cc2c[nH]cn2)C(C)C'
p254
sg6
(lp255
g8
(S'7.92'
p256
tp257
Rp258
asg12
(lp259
g14
asg15
(lp260
L12188191L
assL114333L
(dp261
g4
S'Cc1cccc(C)c1CC2=NCCN2'
p262
sg6
(lp263
g8
(S'7.09'
p264
tp265
Rp266
asg12
(lp267
g14
asg15
(lp268
L12188264L
assL1446024L
(dp269
g4
S'CCN(Cc1c[nH]cn1)c2nccc(OC)n2'
p270
sg6
(lp271
g8
(S'7.08'
p272
tp273
Rp274
asg12
(lp275
g14
asg15
(lp276
L12188187L
assL1446529L
(dp277
g4
S'CC(C)N(Cc1c[nH]cn1)c2cccc(Cl)c2'
p278
sg6
(lp279
g8
(S'8.40'
p280
tp281
Rp282
asg12
(lp283
g14
asg15
(lp284
L12188219L
assL245817L
(dp285
g4
S'Clc1cccc(Cl)c1CC2=NCCN2'
p286
sg6
(lp287
g8
(S'6.30'
p288
tp289
Rp290
asg12
(lp291
g14
asg15
(lp292
L12188262L
assL1446026L
(dp293
g4
S'CC(C)c1cccc(C(C)C)c1CC2=NCCN2'
p294
sg6
(lp295
g8
(S'6.08'
p296
tp297
Rp298
asg12
(lp299
g14
asg15
(lp300
L12188259L
assL360256L
(dp301
g4
S'NCCOc1ccccc1'
p302
sg6
(lp303
g8
(S'5.75'
p304
tp305
Rp306
asg12
(lp307
g14
asg15
(lp308
L3012047L
assL328139L
(dp309
g4
S'CN[C@@H](C)Cc1ccc2OCOc2c1'
p310
sg6
(lp311
g8
(S'6.43'
p312
tp313
Rp314
asg12
(lp315
g14
asg15
(lp316
L7968732L
assL1446028L
(dp317
g4
S'C(c1ccccc1)c2ncc[nH]2'
p318
sg6
(lp319
g8
(S'6.40'
p320
tp321
Rp322
asg12
(lp323
g14
asg15
(lp324
L12188255L
assL693195L
(dp325
g4
S'C[C@@H](N)Cc1ccc(O)cc1'
p326
sg6
(lp327
g8
(S'5.50'
p328
tp329
Rp330
asg12
(lp331
g14
asg15
(lp332
L7967446L
assL675152L
(dp333
g4
S'CN[C@@H](C)Cc1ccccc1'
p334
sg6
(lp335
g8
(S'5.82'
p336
tp337
Rp338
ag8
(S'5.89'
p339
tp340
Rp341
asg12
(lp342
g14
ag14
asg15
(lp343
L7967460L
aL7968733L
assL43448L
(dp344
g4
S'C(C1=NCCN1)c2ccccc2'
p345
sg6
(lp346
g8
(S'5.79'
p347
tp348
Rp349
asg12
(lp350
g14
asg15
(lp351
L12188260L
assL1446030L
(dp352
g4
S'Cc1cccc(C)c1Cc2ncc[nH]2'
p353
sg6
(lp354
g8
(S'7.44'
p355
tp356
Rp357
asg12
(lp358
g14
asg15
(lp359
L12188251L
assL486106L
(dp360
g4
S'C(c1ccccc1)c2c[nH]cn2'
p361
sg6
(lp362
g8
(S'7.70'
p363
tp364
Rp365
asg12
(lp366
g14
asg15
(lp367
L12188243L
assL1446032L
(dp368
g4
S'CC(C)c1cccc(C(C)C)c1Cc2ncc[nH]2'
p369
sg6
(lp370
g8
(S'6.20'
p371
tp372
Rp373
asg12
(lp374
g14
asg15
(lp375
L12188247L
assL1446036L
(dp376
g4
S'CN(Cc1c[nH]cn1)c2ccccc2'
p377
sg6
(lp378
g8
(S'7.96'
p379
tp380
Rp381
asg12
(lp382
g14
asg15
(lp383
L12188237L
assL1151971L
(dp384
g4
S'C[C@H](N)Cc1ccc2OCOc2c1'
p385
sg6
(lp386
g8
(S'5.18'
p387
tp388
Rp389
asg12
(lp390
g14
asg15
(lp391
L7967447L
assL9060L
(dp392
g4
S'NCCc1ccc(O)cc1'
p393
sg6
(lp394
g8
(S'7.70'
p395
tp396
Rp397
asg12
(lp398
g14
asg15
(lp399
L5084223L
assL1446003L
(dp400
g4
S'CC(C)N(Cc1ncc[nH]1)c2ccc(Cl)cc2'
p401
sg6
(lp402
g8
(S'6.86'
p403
tp404
Rp405
asg12
(lp406
g14
asg15
(lp407
L12188175L
assL1446004L
(dp408
g4
S'CC(C)N(Cc1ncc[nH]1)c2ccccc2'
p409
sg6
(lp410
g8
(S'6.33'
p411
tp412
Rp413
asg12
(lp414
g14
asg15
(lp415
L12188179L
assL1446005L
(dp416
g4
S'CC(C)N(Cc1ncc[nH]1)c2cccc(Cl)c2'
p417
sg6
(lp418
g8
(S'7.17'
p419
tp420
Rp421
asg12
(lp422
g14
asg15
(lp423
L12188177L
assL1446006L
(dp424
g4
S'CCN(Cc1ncc[nH]1)c2ccccc2'
p425
sg6
(lp426
g8
(S'6.15'
p427
tp428
Rp429
asg12
(lp430
g14
asg15
(lp431
L12188181L
assL1446007L
(dp432
g4
S'CN(Cc1ncc[nH]1)c2ccccc2'
p433
sg6
(lp434
g8
(S'5.90'
p435
tp436
Rp437
asg12
(lp438
g14
asg15
(lp439
L12188183L
assL1446008L
(dp440
g4
S'C(Nc1ccccc1)c2ncc[nH]2'
p441
sg6
(lp442
g8
(S'5.37'
p443
tp444
Rp445
asg12
(lp446
g14
asg15
(lp447
L12188185L
assL1446009L
(dp448
g4
S'CC(C)N(Cc1c[nH]cn1)c2ccc(Cl)cc2'
p449
sg6
(lp450
g8
(S'8.22'
p451
tp452
Rp453
asg12
(lp454
g14
asg15
(lp455
L12188217L
assL1446010L
(dp456
g4
S'CC(C)N(Cc1c[nH]cn1)c2ccc(Cl)c(Cl)c2'
p457
sg6
(lp458
g8
(S'8.40'
p459
tp460
Rp461
asg12
(lp462
g14
asg15
(lp463
L12188215L
assL1446011L
(dp464
g4
S'CC(C)N(Cc1c[nH]cn1)c2cc(Cl)cc(Cl)c2'
p465
sg6
(lp466
g8
(S'8.40'
p467
tp468
Rp469
asg12
(lp470
g14
asg15
(lp471
L12188213L
assL1446012L
(dp472
g4
S'CC(C)N(Cc1c[nH]cn1)c2ccccc2F'
p473
sg6
(lp474
g8
(S'7.74'
p475
tp476
Rp477
asg12
(lp478
g14
asg15
(lp479
L12188211L
assL1446013L
(dp480
g4
S'CC(C)N(Cc1c[nH]cn1)c2cccc(F)c2'
p481
sg6
(lp482
g8
(S'7.92'
p483
tp484
Rp485
asg12
(lp486
g14
asg15
(lp487
L12188209L
assL1446014L
(dp488
g4
S'CC(C)N(Cc1c[nH]cn1)c2ccc(F)cc2'
p489
sg6
(lp490
g8
(S'7.89'
p491
tp492
Rp493
asg12
(lp494
g14
asg15
(lp495
L12188207L
assL1446015L
(dp496
g4
S'COc1cccc(c1)N(Cc2c[nH]cn2)C(C)C'
p497
sg6
(lp498
g8
(S'8.30'
p499
tp500
Rp501
asg12
(lp502
g14
asg15
(lp503
L12188205L
asssS'1.20.1070.10.FF45527'
p504
(dp505
L234112L
(dp506
g4
S'CC(C)(O)c1ccccc1CC[C@@H](SCC2(CC(=O)O)CC2)c3cccc(\\C=C\\c4ccc5CCCCCc5n4)c3'
p507
sg6
(lp508
g8
(S'8.96'
p509
tp510
Rp511
asg12
(lp512
S'Q9Y271'
p513
asg15
(lp514
L960884L
assL234180L
(dp515
g4
S'CC(C)(O)c1ccccc1CC[C@@H](SCC2(CC(=O)O)CC2)c3cccc(\\C=C\\c4ccc5CSCc5n4)c3'
p516
sg6
(lp517
g8
(S'9.21'
p518
tp519
Rp520
asg12
(lp521
g513
asg15
(lp522
L957251L
assL234181L
(dp523
g4
S'CC(C)(O)c1ccccc1CC[C@@H](SCC2(CC(=O)O)CC2)c3cccc(\\C=C\\c4ccc5SCCc5n4)c3'
p524
sg6
(lp525
g8
(S'8.54'
p526
tp527
Rp528
asg12
(lp529
g513
asg15
(lp530
L960878L
assL20935L
(dp531
g4
S'OC(=O)c1ccccc1Nc2cccc(OCc3ccc4ccccc4n3)c2'
p532
sg6
(lp533
g8
(S'8.70'
p534
tp535
Rp536
asg12
(lp537
g513
asg15
(lp538
L5084229L
assL234216L
(dp539
g4
S'CC(C)(O)c1ccccc1CC[C@@H](SCC2(CC(=O)O)CC2)c3cccc(\\C=C\\c4ccc5CCCc5n4)c3'
p540
sg6
(lp541
g8
(S'9.36'
p542
tp543
Rp544
asg12
(lp545
g513
asg15
(lp546
L950597L
assL54759L
(dp547
g4
S'CCCCC\\C=C/C\\C=C/C=C/C=C/[C@@H](SC[C@H](N)C(=O)NCC(=O)O)[C@@H](O)CCCC(=O)O'
p548
sg6
(lp549
g8
(S'8.15'
p550
tp551
Rp552
ag8
(S'9.54'
p553
tp554
Rp555
ag8
(S'9.15'
p556
tp557
Rp558
asg12
(lp559
g513
ag513
ag513
asg15
(lp560
L5166004L
aL13340307L
aL13340372L
assL234111L
(dp561
g4
S'CC(C)(O)c1ccccc1CC[C@@H](SCC2(CC(=O)O)CC2)c3cccc(\\C=C\\c4ccc5CCCCc5n4)c3'
p562
sg6
(lp563
g8
(S'9.60'
p564
tp565
Rp566
asg12
(lp567
g513
asg15
(lp568
L963413L
assL26669L
(dp569
g4
S'O[C@H]([C@H](SCCC(=O)O)c1ccccc1CCCCCCCCc2ccccc2)C(=O)O'
p570
sg6
(lp571
g8
(S'8.60'
p572
tp573
Rp574
asg12
(lp575
g513
asg15
(lp576
L5084231L
assL244653L
(dp577
g4
S'CN(CCOc1ccc(C[C@H](Nc2ccccc2C(=O)c3ccccc3)C(=O)O)cc1)c4ccccn4'
p578
sg6
(lp579
g8
(S'5.26'
p580
tp581
Rp582
asg12
(lp583
g513
asg15
(lp584
L7668581L
assL234033L
(dp585
g4
S'CC1CCCc2ccc(\\C=C\\c3cccc(c3)[C@@H](CCc4ccccc4C(C)(C)O)SCC5(CC(=O)O)CC5)nc12'
p586
sg6
(lp587
g8
(S'9.33'
p588
tp589
Rp590
asg12
(lp591
g513
asg15
(lp592
L977386L
assL21523L
(dp593
g4
S'COc1cc(ccc1Cc2cn(C)c3ccc(NC(=O)OC4CCCC4)cc23)C(=O)NS(=O)(=O)c5ccccc5C'
p594
sg6
(lp595
g8
(S'9.50'
p596
tp597
Rp598
ag8
(S'8.76'
p599
tp600
Rp601
ag8
(S'9.06'
p602
tp603
Rp604
asg12
(lp605
g513
ag513
ag513
asg15
(lp606
L5084227L
aL7782473L
aL7782474L
assL234245L
(dp607
g4
S'CC1CCc2ccc(\\C=C\\c3cccc(c3)[C@@H](CCc4ccccc4C(C)(C)O)SCC5(CC(=O)O)CC5)nc12'
p608
sg6
(lp609
g8
(S'8.77'
p610
tp611
Rp612
asg12
(lp613
g513
asg15
(lp614
L971221L
assL47447L
(dp615
g4
S'CC(C)(O)c1ccccc1CC[C@@H](SCC2(CC(=O)O)CC2)c3cccc(\\C=C\\c4ccc5ccc(Cl)cc5n4)c3'
p616
sg6
(lp617
g8
(S'9.11'
p618
tp619
Rp620
ag8
(S'9.30'
p621
tp622
Rp623
ag8
(S'8.64'
p624
tp625
Rp626
ag8
(S'8.94'
p627
tp628
Rp629
asg12
(lp630
g513
ag513
ag513
ag513
asg15
(lp631
L958576L
aL5084228L
aL7762851L
aL7762852L
assL234244L
(dp632
g4
S'CC(C)(O)c1ccccc1CC[C@@H](SCC2(CC(=O)O)CC2)c3cccc(\\C=C\\c4ccc5CC(C)(C)Cc5n4)c3'
p633
sg6
(lp634
g8
(S'9.25'
p635
tp636
Rp637
asg12
(lp638
g513
asg15
(lp639
L986094L
assL26484L
(dp640
g4
S'CCCCCCCCC\\C=C/C=C/[C@@H](SCCC(=O)O)[C@@H](O)c1cccc(c1)c2nn[nH]n2'
p641
sg6
(lp642
g8
(S'8.30'
p643
tp644
Rp645
asg12
(lp646
g513
asg15
(lp647
L5084230L
assL234175L
(dp648
g4
S'CC(C)(O)c1ccccc1CC[C@@H](SCC2(CC(=O)O)CC2)c3cccc(\\C=C\\c4ccc5CCC(C)(C)c5n4)c3'
p649
sg6
(lp650
g8
(S'8.70'
p651
tp652
Rp653
asg12
(lp654
g513
asg15
(lp655
L960881L
assL860L
(dp656
g4
S'CC\\C(=C(\\CC)/c1ccc(O)cc1)\\c2ccc(O)cc2'
p657
sg6
(lp658
g8
(S'5.05'
p659
tp660
Rp661
asg12
(lp662
g513
asg15
(lp663
L7702759L
assL234557L
(dp664
g4
S'CC(C)(O)c1ccccc1CC[C@@H](SCC2(CC(=O)O)CC2)c3cccc(\\C=C\\c4ccc5CCCC(C)(C)c5n4)c3'
p665
sg6
(lp666
g8
(S'8.30'
p667
tp668
Rp669
asg12
(lp670
g513
asg15
(lp671
L954582L
assL234591L
(dp672
g4
S'CC(C)(O)c1ccccc1CC[C@@H](SCC2(CC(=O)O)CC2)c3cccc(\\C=C\\c4ccc5CCC(C)(C)Cc5n4)c3'
p673
sg6
(lp674
g8
(S'9.38'
p675
tp676
Rp677
asg12
(lp678
g513
asg15
(lp679
L958573L
asssS'1.10.600.10.FF9697'
p680
(dp681
L1366016L
(dp682
g4
S'CC(C)NC(=O)c1ccnc(NC(P(=O)(O)O)P(=O)(O)O)c1'
p683
sg6
(lp684
g8
(S'6.00'
p685
tp686
Rp687
asg12
(lp688
S'P14324'
p689
asg15
(lp690
L11013283L
assL329222L
(dp691
g4
S'Nc1ccccc1CC(O)(P(=O)(O)O)P(=O)(O)O'
p692
sg6
(lp693
g8
(S'6.43'
p694
tp695
Rp696
ag8
(S'7.19'
p697
tp698
Rp699
ag8
(S'7.67'
p700
tp701
Rp702
ag8
(S'8.47'
p703
tp704
Rp705
asg12
(lp706
g689
ag689
ag689
ag689
asg15
(lp707
L2155020L
aL2155021L
aL2155064L
aL2155065L
assL404492L
(dp708
g4
S'OP(=O)(O)C(F)(Cc1cccnc1)P(=O)(O)O'
p709
sg6
(lp710
g8
(S'7.79'
p711
tp712
Rp713
asg12
(lp714
g689
asg15
(lp715
L2004203L
assL404496L
(dp716
g4
S'OP(=O)(O)C(Cl)(Cc1cccnc1)P(=O)(O)O'
p717
sg6
(lp718
g8
(S'7.02'
p719
tp720
Rp721
asg12
(lp722
g689
asg15
(lp723
L2004210L
assL404497L
(dp724
g4
S'OP(=O)(O)C(Br)(Cc1cccnc1)P(=O)(O)O'
p725
sg6
(lp726
g8
(S'6.47'
p727
tp728
Rp729
asg12
(lp730
g689
asg15
(lp731
L2004209L
assL70674L
(dp732
g4
S'NCCCC(O)(P(=O)(O)O)P(=O)(O)O'
p733
sg6
(lp734
g8
(S'5.65'
p735
tp736
Rp737
ag8
(S'6.41'
p738
tp739
Rp740
ag8
(S'6.59'
p741
tp742
Rp743
ag8
(S'7.35'
p744
tp745
Rp746
asg12
(lp747
g689
ag689
ag689
ag689
asg15
(lp748
L2155050L
aL2155051L
aL2155094L
aL2155095L
assL428597L
(dp749
g4
S'CC1CCCN=C1NC(P(=O)(O)O)P(=O)(O)O'
p750
sg6
(lp751
g8
(S'6.27'
p752
tp753
Rp754
ag8
(S'7.06'
p755
tp756
Rp757
ag8
(S'7.99'
p758
tp759
Rp760
ag8
(S'9.00'
p761
tp762
Rp763
asg12
(lp764
g689
ag689
ag689
ag689
asg15
(lp765
L2155008L
aL2155009L
aL2155054L
aL2155055L
assL1529695L
(dp766
g4
S'OP(=O)(O)C(Nc1ncnc2sc(cc12)c3ccc4ccccc4c3)P(=O)(O)O'
p767
sg6
(lp768
g8
(S'6.60'
p769
tp770
Rp771
ag8
(S'7.20'
p772
tp773
Rp774
ag8
(S'6.60'
p775
tp776
Rp777
asg12
(lp778
g689
ag689
ag689
asg15
(lp779
L12725074L
aL13828727L
aL13828739L
assL160317L
(dp780
g4
S'Cc1cccnc1NC(P(=O)(C)O)P(=O)(O)O'
p781
sg6
(lp782
g8
(S'5.72'
p783
tp784
Rp785
ag8
(S'6.50'
p786
tp787
Rp788
ag8
(S'7.21'
p789
tp790
Rp791
ag8
(S'7.94'
p792
tp793
Rp794
asg12
(lp795
g689
ag689
ag689
ag689
asg15
(lp796
L2155006L
aL2155007L
aL2155052L
aL2155053L
assL402787L
(dp797
g4
S'CCCCC[S+](C)CC(P(=O)(O)O)P(=O)(O)[O-]'
p798
sg6
(lp799
g8
(S'5.97'
p800
tp801
Rp802
ag8
(S'6.00'
p803
tp804
Rp805
asg12
(lp806
g689
ag689
asg15
(lp807
L2002738L
aL2002755L
assL84059L
(dp808
g4
S'NCCCCCC(O)(P(=O)(O)O)P(=O)(O)O'
p809
sg6
(lp810
g8
(S'5.61'
p811
tp812
Rp813
ag8
(S'6.38'
p814
tp815
Rp816
ag8
(S'6.41'
p817
tp818
Rp819
ag8
(S'7.20'
p820
tp821
Rp822
asg12
(lp823
g689
ag689
ag689
ag689
asg15
(lp824
L2155048L
aL2155049L
aL2155092L
aL2155093L
assL161378L
(dp825
g4
S'OC(C1CCc2ccncc12)(P(=O)(O)O)P(=O)(O)O'
p826
sg6
(lp827
g8
(S'6.20'
p828
tp829
Rp830
asg12
(lp831
g689
asg15
(lp832
L2168186L
assL84097L
(dp833
g4
S'NCCCCC(O)(P(=O)(O)O)P(=O)(O)O'
p834
sg6
(lp835
g8
(S'5.97'
p836
tp837
Rp838
ag8
(S'6.71'
p839
tp840
Rp841
ag8
(S'6.53'
p842
tp843
Rp844
ag8
(S'7.32'
p845
tp846
Rp847
asg12
(lp848
g689
ag689
ag689
ag689
asg15
(lp849
L2155038L
aL2155039L
aL2155082L
aL2155083L
assL161417L
(dp850
g4
S'OP(=O)(O)C(Cc1ccccn1)P(=O)(O)O'
p851
sg6
(lp852
g8
(S'6.59'
p853
tp854
Rp855
ag8
(S'7.41'
p856
tp857
Rp858
ag8
(S'7.52'
p859
tp860
Rp861
ag8
(S'8.35'
p862
tp863
Rp864
asg12
(lp865
g689
ag689
ag689
ag689
asg15
(lp866
L2155022L
aL2155023L
aL2155066L
aL2155067L
assL84122L
(dp867
g4
S'OP(=O)(O)C(Nc1cccc(c1)c2ccccc2)P(=O)(O)O'
p868
sg6
(lp869
g8
(S'5.07'
p870
tp871
Rp872
asg12
(lp873
g689
asg15
(lp874
L2251712L
assL84123L
(dp875
g4
S'OP(=O)(O)C(NC1CCCCCC1)P(=O)(O)O'
p876
sg6
(lp877
g8
(S'7.52'
p878
tp879
Rp880
asg12
(lp881
g689
asg15
(lp882
L12049465L
assL428702L
(dp883
g4
S'OC(CC1CCCCN1)(P(=O)(O)O)P(=O)(O)O'
p884
sg6
(lp885
g8
(S'6.23'
p886
tp887
Rp888
ag8
(S'6.86'
p889
tp890
Rp891
ag8
(S'7.86'
p892
tp893
Rp894
ag8
(S'8.80'
p895
tp896
Rp897
asg12
(lp898
g689
ag689
ag689
ag689
asg15
(lp899
L2155028L
aL2155029L
aL2155072L
aL2155073L
assL428703L
(dp900
g4
S'OP(=O)(O)C(CC1CCCCN1)P(=O)(O)O'
p901
sg6
(lp902
g8
(S'6.06'
p903
tp904
Rp905
ag8
(S'6.95'
p906
tp907
Rp908
ag8
(S'7.62'
p909
tp910
Rp911
ag8
(S'8.48'
p912
tp913
Rp914
asg12
(lp915
g689
ag689
ag689
ag689
asg15
(lp916
L2155026L
aL2155027L
aL2155070L
aL2155071L
assL84166L
(dp917
g4
S'OP(=O)(O)C(NC1CCCCC1)P(=O)(O)O'
p918
sg6
(lp919
g8
(S'6.44'
p920
tp921
Rp922
ag8
(S'7.20'
p923
tp924
Rp925
ag8
(S'7.21'
p926
tp927
Rp928
ag8
(S'8.00'
p929
tp930
Rp931
asg12
(lp932
g689
ag689
ag689
ag689
asg15
(lp933
L2155046L
aL2155047L
aL2155090L
aL2155091L
assL513232L
(dp934
g4
S'OP(=O)(O)C(Cn1ccnc1)P(=O)(O)O'
p935
sg6
(lp936
g8
(S'8.04'
p937
tp938
Rp939
asg12
(lp940
g689
asg15
(lp941
L2472298L
assL513233L
(dp942
g4
S'OP(=O)(O)C(Cn1cccn1)P(=O)(O)O'
p943
sg6
(lp944
g8
(S'5.51'
p945
tp946
Rp947
asg12
(lp948
g689
asg15
(lp949
L2472297L
assL513234L
(dp950
g4
S'OP(=O)(O)C(Cn1cnc2ccccc12)P(=O)(O)O'
p951
sg6
(lp952
g8
(S'7.79'
p953
tp954
Rp955
asg12
(lp956
g689
asg15
(lp957
L2472296L
assL513235L
(dp958
g4
S'OP(=O)(O)C(CSc1ncc[nH]1)P(=O)(O)O'
p959
sg6
(lp960
g8
(S'7.55'
p961
tp962
Rp963
asg12
(lp964
g689
asg15
(lp965
L2472295L
assL513236L
(dp966
g4
S'OP(=O)(O)C(Cn1cnc2cncnc12)P(=O)(O)O'
p967
sg6
(lp968
g8
(S'6.41'
p969
tp970
Rp971
asg12
(lp972
g689
asg15
(lp973
L2472294L
assL161497L
(dp974
g4
S'OP(=O)(O)C(Cc1cccnc1)P(=O)(O)O'
p975
sg6
(lp976
g8
(S'7.47'
p977
tp978
Rp979
ag8
(S'6.76'
p980
tp981
Rp982
ag8
(S'7.46'
p983
tp984
Rp985
ag8
(S'7.49'
p986
tp987
Rp988
ag8
(S'8.13'
p989
tp990
Rp991
asg12
(lp992
g689
ag689
ag689
ag689
ag689
asg15
(lp993
L2004208L
aL2155032L
aL2155033L
aL2155076L
aL2155077L
assL1528042L
(dp994
g4
S'Cn1cc[n+](CC(O)(P(=O)(O)O)P(=O)(O)[O-])c1'
p995
sg6
(lp996
g8
(S'6.82'
p997
tp998
Rp999
ag8
(S'7.10'
p1000
tp1001
Rp1002
asg12
(lp1003
g689
ag689
asg15
(lp1004
L12694420L
aL12694361L
assL1528043L
(dp1005
g4
S'CCn1cc[n+](CC(O)(P(=O)(O)O)P(=O)(O)[O-])c1'
p1006
sg6
(lp1007
g8
(S'6.92'
p1008
tp1009
Rp1010
ag8
(S'7.31'
p1011
tp1012
Rp1013
asg12
(lp1014
g689
ag689
asg15
(lp1015
L12694419L
aL12694362L
assL1528044L
(dp1016
g4
S'CCCn1cc[n+](CC(O)(P(=O)(O)O)P(=O)(O)[O-])c1'
p1017
sg6
(lp1018
g8
(S'6.80'
p1019
tp1020
Rp1021
ag8
(S'7.47'
p1022
tp1023
Rp1024
asg12
(lp1025
g689
ag689
asg15
(lp1026
L12694418L
aL12694363L
assL1528045L
(dp1027
g4
S'CCCCn1cc[n+](CC(O)(P(=O)(O)O)P(=O)(O)[O-])c1'
p1028
sg6
(lp1029
g8
(S'7.52'
p1030
tp1031
Rp1032
ag8
(S'7.52'
p1033
tp1034
Rp1035
asg12
(lp1036
g689
ag689
asg15
(lp1037
L12694456L
aL12694364L
assL1528046L
(dp1038
g4
S'CCCCCn1cc[n+](CC(O)(P(=O)(O)O)P(=O)(O)[O-])c1'
p1039
sg6
(lp1040
g8
(S'6.92'
p1041
tp1042
Rp1043
ag8
(S'7.31'
p1044
tp1045
Rp1046
asg12
(lp1047
g689
ag689
asg15
(lp1048
L12694416L
aL12694365L
assL1528047L
(dp1049
g4
S'CCCCCCn1cc[n+](CC(O)(P(=O)(O)O)P(=O)(O)[O-])c1'
p1050
sg6
(lp1051
g8
(S'6.92'
p1052
tp1053
Rp1054
ag8
(S'7.36'
p1055
tp1056
Rp1057
asg12
(lp1058
g689
ag689
asg15
(lp1059
L12694415L
aL12694366L
assL1528048L
(dp1060
g4
S'CCCCCCCn1cc[n+](CC(O)(P(=O)(O)O)P(=O)(O)[O-])c1'
p1061
sg6
(lp1062
g8
(S'6.96'
p1063
tp1064
Rp1065
ag8
(S'7.40'
p1066
tp1067
Rp1068
asg12
(lp1069
g689
ag689
asg15
(lp1070
L12694414L
aL12694367L
assL1528049L
(dp1071
g4
S'CCCCCCCCn1cc[n+](CC(O)(P(=O)(O)O)P(=O)(O)[O-])c1'
p1072
sg6
(lp1073
g8
(S'7.00'
p1074
tp1075
Rp1076
ag8
(S'7.44'
p1077
tp1078
Rp1079
asg12
(lp1080
g689
ag689
asg15
(lp1081
L12694413L
aL12694368L
assL1528050L
(dp1082
g4
S'CCCCCCCCCn1cc[n+](CC(O)(P(=O)(O)O)P(=O)(O)[O-])c1'
p1083
sg6
(lp1084
g8
(S'6.92'
p1085
tp1086
Rp1087
ag8
(S'7.10'
p1088
tp1089
Rp1090
asg12
(lp1091
g689
ag689
asg15
(lp1092
L12694412L
aL12694369L
assL1528051L
(dp1093
g4
S'CCCCCCCCCCn1cc[n+](CC(O)(P(=O)(O)O)P(=O)(O)[O-])c1'
p1094
sg6
(lp1095
g8
(S'6.92'
p1096
tp1097
Rp1098
ag8
(S'6.64'
p1099
tp1100
Rp1101
asg12
(lp1102
g689
ag689
asg15
(lp1103
L12694411L
aL12694370L
assL1528052L
(dp1104
g4
S'CCCCCCCCCCCn1cc[n+](CC(O)(P(=O)(O)O)P(=O)(O)[O-])c1'
p1105
sg6
(lp1106
g8
(S'6.49'
p1107
tp1108
Rp1109
ag8
(S'6.68'
p1110
tp1111
Rp1112
asg12
(lp1113
g689
ag689
asg15
(lp1114
L12694410L
aL12694371L
assL1528053L
(dp1115
g4
S'CCCCCCCCCCCCn1cc[n+](CC(O)(P(=O)(O)O)P(=O)(O)[O-])c1'
p1116
sg6
(lp1117
g8
(S'6.40'
p1118
tp1119
Rp1120
ag8
(S'6.31'
p1121
tp1122
Rp1123
asg12
(lp1124
g689
ag689
asg15
(lp1125
L12694409L
aL12694372L
assL1528054L
(dp1126
g4
S'CCCCCCCCCCCCCn1cc[n+](CC(O)(P(=O)(O)O)P(=O)(O)[O-])c1'
p1127
sg6
(lp1128
g8
(S'5.57'
p1129
tp1130
Rp1131
ag8
(S'5.38'
p1132
tp1133
Rp1134
asg12
(lp1135
g689
ag689
asg15
(lp1136
L12694408L
aL12694373L
assL1528055L
(dp1137
g4
S'CCCCCCCCCCCCCCn1cc[n+](CC(O)(P(=O)(O)O)P(=O)(O)[O-])c1'
p1138
sg6
(lp1139
g8
(S'5.49'
p1140
tp1141
Rp1142
asg12
(lp1143
g689
asg15
(lp1144
L12694407L
assL1528056L
(dp1145
g4
S'CCCCCCCCCCCCCCCn1cc[n+](CC(O)(P(=O)(O)O)P(=O)(O)[O-])c1'
p1146
sg6
(lp1147
g8
(S'5.15'
p1148
tp1149
Rp1150
asg12
(lp1151
g689
asg15
(lp1152
L12694406L
assL1528057L
(dp1153
g4
S'OP(=O)(O)C(C[n+]1cc[nH]c1)P(=O)(O)[O-]'
p1154
sg6
(lp1155
g8
(S'6.80'
p1156
tp1157
Rp1158
ag8
(S'6.85'
p1159
tp1160
Rp1161
asg12
(lp1162
g689
ag689
asg15
(lp1163
L12694405L
aL12694376L
assL1528058L
(dp1164
g4
S'Cn1cc[n+](CC(P(=O)(O)O)P(=O)(O)[O-])c1'
p1165
sg6
(lp1166
g8
(S'6.80'
p1167
tp1168
Rp1169
ag8
(S'6.72'
p1170
tp1171
Rp1172
asg12
(lp1173
g689
ag689
asg15
(lp1174
L12694404L
aL12694377L
assL1528059L
(dp1175
g4
S'CCn1cc[n+](CC(P(=O)(O)O)P(=O)(O)[O-])c1'
p1176
sg6
(lp1177
g8
(S'6.77'
p1178
tp1179
Rp1180
ag8
(S'7.10'
p1181
tp1182
Rp1183
asg12
(lp1184
g689
ag689
asg15
(lp1185
L12694403L
aL12694378L
assL1528060L
(dp1186
g4
S'CCCn1cc[n+](CC(P(=O)(O)O)P(=O)(O)[O-])c1'
p1187
sg6
(lp1188
g8
(S'6.85'
p1189
tp1190
Rp1191
ag8
(S'7.18'
p1192
tp1193
Rp1194
asg12
(lp1195
g689
ag689
asg15
(lp1196
L12694402L
aL12694379L
assL1528061L
(dp1197
g4
S'CCCCn1cc[n+](CC(P(=O)(O)O)P(=O)(O)[O-])c1'
p1198
sg6
(lp1199
g8
(S'6.89'
p1200
tp1201
Rp1202
ag8
(S'7.10'
p1203
tp1204
Rp1205
asg12
(lp1206
g689
ag689
asg15
(lp1207
L12694401L
aL12694380L
assL1528062L
(dp1208
g4
S'CCCCCn1cc[n+](CC(P(=O)(O)O)P(=O)(O)[O-])c1'
p1209
sg6
(lp1210
g8
(S'6.70'
p1211
tp1212
Rp1213
ag8
(S'6.96'
p1214
tp1215
Rp1216
asg12
(lp1217
g689
ag689
asg15
(lp1218
L12694400L
aL12694381L
assL1528063L
(dp1219
g4
S'CCCCCCn1cc[n+](CC(P(=O)(O)O)P(=O)(O)[O-])c1'
p1220
sg6
(lp1221
g8
(S'6.68'
p1222
tp1223
Rp1224
ag8
(S'7.24'
p1225
tp1226
Rp1227
asg12
(lp1228
g689
ag689
asg15
(lp1229
L12694399L
aL12694382L
assL1528064L
(dp1230
g4
S'CCCCCCCn1cc[n+](CC(P(=O)(O)O)P(=O)(O)[O-])c1'
p1231
sg6
(lp1232
g8
(S'6.77'
p1233
tp1234
Rp1235
ag8
(S'7.36'
p1236
tp1237
Rp1238
asg12
(lp1239
g689
ag689
asg15
(lp1240
L12694398L
aL12694383L
assL1528065L
(dp1241
g4
S'CCCCCCCCn1cc[n+](CC(P(=O)(O)O)P(=O)(O)[O-])c1'
p1242
sg6
(lp1243
g8
(S'6.80'
p1244
tp1245
Rp1246
ag8
(S'7.40'
p1247
tp1248
Rp1249
asg12
(lp1250
g689
ag689
asg15
(lp1251
L12694397L
aL12694384L
assL1528066L
(dp1252
g4
S'CCCCCCCCCn1cc[n+](CC(P(=O)(O)O)P(=O)(O)[O-])c1'
p1253
sg6
(lp1254
g8
(S'7.00'
p1255
tp1256
Rp1257
ag8
(S'7.37'
p1258
tp1259
Rp1260
asg12
(lp1261
g689
ag689
asg15
(lp1262
L12694396L
aL12694385L
assL1528067L
(dp1263
g4
S'CCCCCCCCCCn1cc[n+](CC(P(=O)(O)O)P(=O)(O)[O-])c1'
p1264
sg6
(lp1265
g8
(S'6.96'
p1266
tp1267
Rp1268
ag8
(S'7.00'
p1269
tp1270
Rp1271
asg12
(lp1272
g689
ag689
asg15
(lp1273
L12694395L
aL12694386L
assL1528068L
(dp1274
g4
S'CCCCCCCCCCCn1cc[n+](CC(P(=O)(O)O)P(=O)(O)[O-])c1'
p1275
sg6
(lp1276
g8
(S'6.85'
p1277
tp1278
Rp1279
ag8
(S'6.55'
p1280
tp1281
Rp1282
asg12
(lp1283
g689
ag689
asg15
(lp1284
L12694394L
aL12694387L
assL1528069L
(dp1285
g4
S'CCCCCCCCCCCCn1cc[n+](CC(P(=O)(O)O)P(=O)(O)[O-])c1'
p1286
sg6
(lp1287
g8
(S'6.51'
p1288
tp1289
Rp1290
ag8
(S'6.43'
p1291
tp1292
Rp1293
asg12
(lp1294
g689
ag689
asg15
(lp1295
L12694393L
aL12694388L
assL1528070L
(dp1296
g4
S'CCCCCCCCCCCCCn1cc[n+](CC(P(=O)(O)O)P(=O)(O)[O-])c1'
p1297
sg6
(lp1298
g8
(S'6.42'
p1299
tp1300
Rp1301
ag8
(S'6.46'
p1302
tp1303
Rp1304
asg12
(lp1305
g689
ag689
asg15
(lp1306
L12694392L
aL12694389L
assL1528071L
(dp1307
g4
S'CCCCCCCCCCCCCCn1cc[n+](CC(P(=O)(O)O)P(=O)(O)[O-])c1'
p1308
sg6
(lp1309
g8
(S'5.96'
p1310
tp1311
Rp1312
ag8
(S'5.52'
p1313
tp1314
Rp1315
asg12
(lp1316
g689
ag689
asg15
(lp1317
L12694391L
aL12694422L
assL1528072L
(dp1318
g4
S'CCCCCCCCCCCCCCCn1cc[n+](CC(P(=O)(O)O)P(=O)(O)[O-])c1'
p1319
sg6
(lp1320
g8
(S'5.35'
p1321
tp1322
Rp1323
ag8
(S'5.08'
p1324
tp1325
Rp1326
asg12
(lp1327
g689
ag689
asg15
(lp1328
L12694390L
aL12694423L
assL161549L
(dp1329
g4
S'OC(Cc1cnc2ccccn12)(P(=O)(O)O)P(=O)(O)O'
p1330
sg6
(lp1331
g8
(S'8.52'
p1332
tp1333
Rp1334
asg12
(lp1335
g689
asg15
(lp1336
L3289107L
assL1605416L
(dp1337
g4
S'COc1ccc(cc1)c2cc3c(NC(P(=O)(O)O)P(=O)(O)O)ncnc3s2'
p1338
sg6
(lp1339
g8
(S'7.82'
p1340
tp1341
Rp1342
ag8
(S'6.36'
p1343
tp1344
Rp1345
asg12
(lp1346
g689
ag689
asg15
(lp1347
L13828725L
aL13828737L
assL1605417L
(dp1348
g4
S'OP(=O)(O)C(Nc1ncnc2sc(cc12)c3ccc(cc3)C(F)(F)F)P(=O)(O)O'
p1349
sg6
(lp1350
g8
(S'7.68'
p1351
tp1352
Rp1353
asg12
(lp1354
g689
asg15
(lp1355
L13828724L
assL1605418L
(dp1356
g4
S'CC(C)Oc1ccc(cc1)c2cc3c(NC(P(=O)(O)O)P(=O)(O)O)ncnc3s2'
p1357
sg6
(lp1358
g8
(S'6.70'
p1359
tp1360
Rp1361
asg12
(lp1362
g689
asg15
(lp1363
L13828723L
assL1605419L
(dp1364
g4
S'OP(=O)(O)C(Nc1ncnc2sc(cc12)c3ccc(OC4CC4)cc3)P(=O)(O)O'
p1365
sg6
(lp1366
g8
(S'7.85'
p1367
tp1368
Rp1369
asg12
(lp1370
g689
asg15
(lp1371
L13828722L
assL1605420L
(dp1372
g4
S'OP(=O)(O)C(Nc1ncnc2sc(cc12)c3ccc(cc3)C4CC4)P(=O)(O)O'
p1373
sg6
(lp1374
g8
(S'7.41'
p1375
tp1376
Rp1377
ag8
(S'6.94'
p1378
tp1379
Rp1380
asg12
(lp1381
g689
ag689
asg15
(lp1382
L13828721L
aL13828733L
assL1605421L
(dp1383
g4
S'OP(=O)(O)C(Nc1ncnc2sc(cc12)c3ccc(cc3)C4CC4(F)F)P(=O)(O)O'
p1384
sg6
(lp1385
g8
(S'7.96'
p1386
tp1387
Rp1388
ag8
(S'6.85'
p1389
tp1390
Rp1391
asg12
(lp1392
g689
ag689
asg15
(lp1393
L13828720L
aL13828732L
assL469307L
(dp1394
g4
S'CCCCCCCCCCOc1ccc[n+](CC(P(=O)(O)O)P(=O)(O)[O-])c1'
p1395
sg6
(lp1396
g8
(S'7.00'
p1397
tp1398
Rp1399
asg12
(lp1400
g689
asg15
(lp1401
L10946202L
assL83772L
(dp1402
g4
S'OC(Cc1cccnc1)(P(=O)(O)O)P(=O)(O)O'
p1403
sg6
(lp1404
g8
(S'6.34'
p1405
tp1406
Rp1407
ag8
(S'7.09'
p1408
tp1409
Rp1410
ag8
(S'8.24'
p1411
tp1412
Rp1413
ag8
(S'9.44'
p1414
tp1415
Rp1416
ag8
(S'6.52'
p1417
tp1418
Rp1419
ag8
(S'7.96'
p1420
tp1421
Rp1422
ag8
(S'6.07'
p1423
tp1424
Rp1425
ag8
(S'8.28'
p1426
tp1427
Rp1428
ag8
(S'7.96'
p1429
tp1430
Rp1431
asg12
(lp1432
g689
ag689
ag689
ag689
ag689
ag689
ag689
ag689
ag689
asg15
(lp1433
L2155040L
aL2155041L
aL2155084L
aL2155085L
aL3500352L
aL10945289L
aL10946195L
aL13828730L
aL13828742L
assL84800L
(dp1434
g4
S'OP(=O)(O)C(CNc1ccccn1)P(=O)(O)O'
p1435
sg6
(lp1436
g8
(S'6.72'
p1437
tp1438
Rp1439
ag8
(S'7.43'
p1440
tp1441
Rp1442
ag8
(S'7.82'
p1443
tp1444
Rp1445
ag8
(S'8.64'
p1446
tp1447
Rp1448
asg12
(lp1449
g689
ag689
ag689
ag689
asg15
(lp1450
L2155016L
aL2155017L
aL2155062L
aL2155063L
assL402755L
(dp1451
g4
S'CCCCCCCCCCCC[S+](C)CC(P(=O)(O)O)P(=O)(O)[O-]'
p1452
sg6
(lp1453
g8
(S'6.59'
p1454
tp1455
Rp1456
ag8
(S'6.60'
p1457
tp1458
Rp1459
asg12
(lp1460
g689
ag689
asg15
(lp1461
L2002739L
aL2002754L
assL402760L
(dp1462
g4
S'CCCCCCCCCC[S+](C)CC(P(=O)(O)O)P(=O)(O)[O-]'
p1463
sg6
(lp1464
g8
(S'6.62'
p1465
tp1466
Rp1467
ag8
(S'6.60'
p1468
tp1469
Rp1470
asg12
(lp1471
g689
ag689
asg15
(lp1472
L2002772L
aL2002773L
assL402761L
(dp1473
g4
S'CCCCCCCCCCCCCC[S+](C)CC(P(=O)(O)O)P(=O)(O)[O-]'
p1474
sg6
(lp1475
g8
(S'5.07'
p1476
tp1477
Rp1478
ag8
(S'5.10'
p1479
tp1480
Rp1481
asg12
(lp1482
g689
ag689
asg15
(lp1483
L2002770L
aL2002771L
assL83274L
(dp1484
g4
S'Cc1cccnc1NC(P(=O)(O)O)P(=O)(O)O'
p1485
sg6
(lp1486
g8
(S'7.12'
p1487
tp1488
Rp1489
ag8
(S'7.92'
p1490
tp1491
Rp1492
ag8
(S'8.21'
p1493
tp1494
Rp1495
ag8
(S'8.96'
p1496
tp1497
Rp1498
asg12
(lp1499
g689
ag689
ag689
ag689
asg15
(lp1500
L2155010L
aL2155011L
aL2155056L
aL2155057L
assL402765L
(dp1501
g4
S'CCCCCCCCCCCCCCCCCCCC[S+](C)CC(P(=O)(O)O)P(=O)(O)[O-]'
p1502
sg6
(lp1503
g8
(S'6.60'
p1504
tp1505
Rp1506
asg12
(lp1507
g689
asg15
(lp1508
L2002769L
assL402767L
(dp1509
g4
S'CCCCCCCCCCCCCCCCCC[S+](C)CC(P(=O)(O)O)P(=O)(O)[O-]'
p1510
sg6
(lp1511
g8
(S'5.13'
p1512
tp1513
Rp1514
ag8
(S'5.10'
p1515
tp1516
Rp1517
asg12
(lp1518
g689
ag689
asg15
(lp1519
L2002766L
aL2002767L
assL84310L
(dp1520
g4
S'OC(CCc1cccnc1)(P(=O)(O)O)P(=O)(O)O'
p1521
sg6
(lp1522
g8
(S'5.68'
p1523
tp1524
Rp1525
ag8
(S'6.44'
p1526
tp1527
Rp1528
ag8
(S'6.47'
p1529
tp1530
Rp1531
ag8
(S'7.11'
p1532
tp1533
Rp1534
asg12
(lp1535
g689
ag689
ag689
ag689
asg15
(lp1536
L2155036L
aL2155037L
aL2155080L
aL2155081L
assL402775L
(dp1537
g4
S'CCCCCCCC[S+](C)CC(P(=O)(O)O)P(=O)(O)[O-]'
p1538
sg6
(lp1539
g8
(S'6.44'
p1540
tp1541
Rp1542
ag8
(S'6.40'
p1543
tp1544
Rp1545
asg12
(lp1546
g689
ag689
asg15
(lp1547
L2002762L
aL2002763L
assL402782L
(dp1548
g4
S'CCC[S+](C)CC(P(=O)(O)O)P(=O)(O)[O-]'
p1549
sg6
(lp1550
g8
(S'6.28'
p1551
tp1552
Rp1553
ag8
(S'6.30'
p1554
tp1555
Rp1556
asg12
(lp1557
g689
ag689
asg15
(lp1558
L2002760L
aL2002761L
assL402783L
(dp1559
g4
S'C[S+](C)CCC(O)(P(=O)(O)O)P(=O)(O)[O-]'
p1560
sg6
(lp1561
g8
(S'5.05'
p1562
tp1563
Rp1564
ag8
(S'5.00'
p1565
tp1566
Rp1567
asg12
(lp1568
g689
ag689
asg15
(lp1569
L2002758L
aL2002759L
assL402786L
(dp1570
g4
S'C[S+](C)CC(O)(P(=O)(O)O)P(=O)(O)[O-]'
p1571
sg6
(lp1572
g8
(S'5.99'
p1573
tp1574
Rp1575
ag8
(S'6.00'
p1576
tp1577
Rp1578
asg12
(lp1579
g689
ag689
asg15
(lp1580
L2002756L
aL2002757L
assL110435L
(dp1581
g4
S'CCCCCN(C)CCC(O)(P(=O)(O)O)P(=O)(O)O'
p1582
sg6
(lp1583
g8
(S'5.98'
p1584
tp1585
Rp1586
ag8
(S'6.71'
p1587
tp1588
Rp1589
ag8
(S'7.60'
p1590
tp1591
Rp1592
ag8
(S'8.44'
p1593
tp1594
Rp1595
asg12
(lp1596
g689
ag689
ag689
ag689
asg15
(lp1597
L2155044L
aL2155045L
aL2155088L
aL2155089L
assL707431L
(dp1598
g4
S'OP(=O)(O)C(F)(Cc1cncc(c1)c2ccc3[nH]ncc3c2)P(=O)(O)O'
p1599
sg6
(lp1600
g8
(S'6.15'
p1601
tp1602
Rp1603
ag8
(S'6.28'
p1604
tp1605
Rp1606
asg12
(lp1607
g689
ag689
asg15
(lp1608
L3500351L
aL10945297L
assL707432L
(dp1609
g4
S'OP(=O)(O)C(F)(Cc1cncc(c1)c2cn[nH]c2)P(=O)(O)O'
p1610
sg6
(lp1611
g8
(S'6.19'
p1612
tp1613
Rp1614
asg12
(lp1615
g689
asg15
(lp1616
L3500350L
assL83838L
(dp1617
g4
S'OC(Cn1ccnc1)(P(=O)(O)O)P(=O)(O)O'
p1618
sg6
(lp1619
g8
(S'6.32'
p1620
tp1621
Rp1622
ag8
(S'7.07'
p1623
tp1624
Rp1625
ag8
(S'8.39'
p1626
tp1627
Rp1628
ag8
(S'10.15'
p1629
tp1630
Rp1631
ag8
(S'8.52'
p1632
tp1633
Rp1634
ag8
(S'6.89'
p1635
tp1636
Rp1637
ag8
(S'7.00'
p1638
tp1639
Rp1640
asg12
(lp1641
g689
ag689
ag689
ag689
ag689
ag689
ag689
asg15
(lp1642
L2155042L
aL2155043L
aL2155086L
aL2155087L
aL12049467L
aL12694421L
aL12694360L
assL693657L
(dp1643
g4
S'OC(=O)Cn1c(cc2ccc3ccccc3c12)C(=O)O'
p1644
sg6
(lp1645
g8
(S'6.04'
p1646
tp1647
Rp1648
asg12
(lp1649
g689
asg15
(lp1650
L13828728L
assL60401L
(dp1651
g4
S'NCCC(O)(P(=O)(O)O)P(=O)(O)O'
p1652
sg6
(lp1653
g8
(S'6.48'
p1654
tp1655
Rp1656
ag8
(S'6.45'
p1657
tp1658
Rp1659
ag8
(S'7.25'
p1660
tp1661
Rp1662
asg12
(lp1663
g689
ag689
ag689
asg15
(lp1664
L2155002L
aL2155001L
aL2155003L
assL161706L
(dp1665
g4
S'Cc1cccnc1NCC(P(=O)(O)O)P(=O)(O)O'
p1666
sg6
(lp1667
g8
(S'6.00'
p1668
tp1669
Rp1670
ag8
(S'6.81'
p1671
tp1672
Rp1673
ag8
(S'6.13'
p1674
tp1675
Rp1676
ag8
(S'6.71'
p1677
tp1678
Rp1679
asg12
(lp1680
g689
ag689
ag689
ag689
asg15
(lp1681
L2155014L
aL2155015L
aL2155060L
aL2155061L
assL435632L
(dp1682
g4
S'OC1=C(C(=O)Nc2ccc(cc2)C3CCCCC3)C(=O)N(Cc4ccccc4)C1'
p1683
sg6
(lp1684
g8
(S'5.10'
p1685
tp1686
Rp1687
asg12
(lp1688
g689
asg15
(lp1689
L2115628L
assL1529694L
(dp1690
g4
S'Cc1ccc(cc1)c2cc3c(NC(P(=O)(O)O)P(=O)(O)O)ncnc3s2'
p1691
sg6
(lp1692
g8
(S'6.41'
p1693
tp1694
Rp1695
ag8
(S'7.66'
p1696
tp1697
Rp1698
ag8
(S'6.41'
p1699
tp1700
Rp1701
asg12
(lp1702
g689
ag689
ag689
asg15
(lp1703
L12725075L
aL13828726L
aL13828738L
assL161740L
(dp1704
g4
S'C[n+]1cccc(CC(O)(P(=O)(O)O)P(=O)(O)O)c1'
p1705
sg6
(lp1706
g8
(S'5.77'
p1707
tp1708
Rp1709
ag8
(S'6.75'
p1710
tp1711
Rp1712
ag8
(S'7.71'
p1713
tp1714
Rp1715
ag8
(S'8.41'
p1716
tp1717
Rp1718
asg12
(lp1719
g689
ag689
ag689
ag689
asg15
(lp1720
L2155030L
aL2155031L
aL2155074L
aL2155075L
assL1351672L
(dp1721
g4
S'OP(=O)(O)C(Nc1cc(ccn1)c2ccc(OC3CCC3)cc2)P(=O)(O)O'
p1722
sg6
(lp1723
g8
(S'7.46'
p1724
tp1725
Rp1726
ag8
(S'5.68'
p1727
tp1728
Rp1729
asg12
(lp1730
g689
ag689
asg15
(lp1731
L10946174L
aL10946199L
assL1351673L
(dp1732
g4
S'Cc1ccc(cc1)c2ccnc(NC(P(=O)(O)O)P(=O)(O)O)c2'
p1733
sg6
(lp1734
g8
(S'7.46'
p1735
tp1736
Rp1737
asg12
(lp1738
g689
asg15
(lp1739
L10946175L
assL513359L
(dp1740
g4
S'OP(=O)(O)C(Cn1cnc2c(Cl)ncnc12)P(=O)(O)O'
p1741
sg6
(lp1742
g8
(S'6.05'
p1743
tp1744
Rp1745
asg12
(lp1746
g689
asg15
(lp1747
L2472293L
assL1351674L
(dp1748
g4
S'OP(=O)(O)C(Nc1cc(ccn1)c2ccc(OC3CCCC3)cc2)P(=O)(O)O'
p1749
sg6
(lp1750
g8
(S'7.49'
p1751
tp1752
Rp1753
ag8
(S'6.11'
p1754
tp1755
Rp1756
asg12
(lp1757
g689
ag689
asg15
(lp1758
L10946176L
aL10946200L
assL83936L
(dp1759
g4
S'OP(=O)(O)C(Nc1ccccn1)P(=O)(O)O'
p1760
sg6
(lp1761
g8
(S'6.78'
p1762
tp1763
Rp1764
ag8
(S'7.54'
p1765
tp1766
Rp1767
ag8
(S'7.93'
p1768
tp1769
Rp1770
ag8
(S'8.64'
p1771
tp1772
Rp1773
ag8
(S'7.07'
p1774
tp1775
Rp1776
asg12
(lp1777
g689
ag689
ag689
ag689
ag689
asg15
(lp1778
L2155012L
aL2155013L
aL2155058L
aL2155059L
aL10945290L
assL83952L
(dp1779
g4
S'OC(Cc1ccccn1)(P(=O)(O)O)P(=O)(O)O'
p1780
sg6
(lp1781
g8
(S'6.46'
p1782
tp1783
Rp1784
ag8
(S'7.23'
p1785
tp1786
Rp1787
ag8
(S'8.04'
p1788
tp1789
Rp1790
ag8
(S'9.13'
p1791
tp1792
Rp1793
asg12
(lp1794
g689
ag689
ag689
ag689
asg15
(lp1795
L2155024L
aL2155025L
aL2155068L
aL2155069L
assL83953L
(dp1796
g4
S'OC(Cc1ccccc1)(P(=O)(O)O)P(=O)(O)O'
p1797
sg6
(lp1798
g8
(S'5.68'
p1799
tp1800
Rp1801
ag8
(S'6.43'
p1802
tp1803
Rp1804
ag8
(S'5.79'
p1805
tp1806
Rp1807
ag8
(S'6.52'
p1808
tp1809
Rp1810
asg12
(lp1811
g689
ag689
ag689
ag689
asg15
(lp1812
L2155034L
aL2155035L
aL2155078L
aL2155079L
assL1351666L
(dp1813
g4
S'OP(=O)(O)C(F)(Cc1cncc(c1)c2ccccc2)P(=O)(O)O'
p1814
sg6
(lp1815
g8
(S'6.94'
p1816
tp1817
Rp1818
asg12
(lp1819
g689
asg15
(lp1820
L10945292L
assL1351667L
(dp1821
g4
S'OP(=O)(O)C(Cc1cncc(c1)c2ccccc2)P(=O)(O)O'
p1822
sg6
(lp1823
g8
(S'6.79'
p1824
tp1825
Rp1826
asg12
(lp1827
g689
asg15
(lp1828
L10945293L
assL1351668L
(dp1829
g4
S'OP(=O)(O)C(Nc1cncc(c1)c2ccccc2)P(=O)(O)O'
p1830
sg6
(lp1831
g8
(S'7.33'
p1832
tp1833
Rp1834
asg12
(lp1835
g689
asg15
(lp1836
L10945294L
assL1351669L
(dp1837
g4
S'OP(=O)(O)C(Nc1cc(ccn1)c2ccccc2)P(=O)(O)O'
p1838
sg6
(lp1839
g8
(S'6.82'
p1840
tp1841
Rp1842
asg12
(lp1843
g689
asg15
(lp1844
L10945296L
assL1351670L
(dp1845
g4
S'OP(=O)(O)C(Nc1cc(ccn1)c2ccc3[nH]ncc3c2)P(=O)(O)O'
p1846
sg6
(lp1847
g8
(S'6.37'
p1848
tp1849
Rp1850
asg12
(lp1851
g689
asg15
(lp1852
L10946172L
assL1351671L
(dp1853
g4
S'CC(C)Oc1ccc(cc1)c2ccnc(NC(P(=O)(O)O)P(=O)(O)O)c2'
p1854
sg6
(lp1855
g8
(S'7.55'
p1856
tp1857
Rp1858
ag8
(S'5.86'
p1859
tp1860
Rp1861
asg12
(lp1862
g689
ag689
asg15
(lp1863
L10946173L
aL10946198L
assL1366008L
(dp1864
g4
S'OP(=O)(O)C(Nc1cc(ccn1)c2ccc(OC3CC3)cc2)P(=O)(O)O'
p1865
sg6
(lp1866
g8
(S'7.92'
p1867
tp1868
Rp1869
asg12
(lp1870
g689
asg15
(lp1871
L11013276L
assL1366009L
(dp1872
g4
S'OP(=O)(O)C(Nc1cncc(Cc2ccccc2)c1)P(=O)(O)O'
p1873
sg6
(lp1874
g8
(S'6.00'
p1875
tp1876
Rp1877
asg12
(lp1878
g689
asg15
(lp1879
L11013279L
assL1366010L
(dp1880
g4
S'CC(C)Oc1ccc(cc1)c2cncc(NC(P(=O)(O)O)P(=O)(O)O)c2'
p1881
sg6
(lp1882
g8
(S'7.22'
p1883
tp1884
Rp1885
asg12
(lp1886
g689
asg15
(lp1887
L11013280L
assL1366011L
(dp1888
g4
S'OP(=O)(O)C(Nc1cncc(c1)c2ccc(OC3CC3)cc2)P(=O)(O)O'
p1889
sg6
(lp1890
g8
(S'7.80'
p1891
tp1892
Rp1893
ag8
(S'7.74'
p1894
tp1895
Rp1896
ag8
(S'7.80'
p1897
tp1898
Rp1899
asg12
(lp1900
g689
ag689
ag689
asg15
(lp1901
L11013281L
aL13828729L
aL13828741L
assL1351677L
(dp1902
g4
S'COc1ccc(cc1)c2ccnc(NC(P(=O)(O)O)P(=O)(O)O)c2'
p1903
sg6
(lp1904
g8
(S'6.94'
p1905
tp1906
Rp1907
asg12
(lp1908
g689
asg15
(lp1909
L11013274L
asssS'1.10.630.10.FF6630'
p1910
(dp1911
L263558L
(dp1912
g4
S'CCN(CC)C(=O)N[C@@H]1CN(C)[C@@H]2Cc3c[nH]c4cccc(C2=C1)c34'
p1913
sg6
(lp1914
g8
(S'7.80'
p1915
tp1916
Rp1917
asg12
(lp1918
S'P10635'
p1919
asg15
(lp1920
L7759654L
assL186191L
(dp1921
g4
S'COc1cc(N)[nH]c2nc(c3ccc(F)cc3)c(c4ccncc4)c12'
p1922
sg6
(lp1923
g8
(S'6.70'
p1924
tp1925
Rp1926
asg12
(lp1927
g1919
asg15
(lp1928
L7804988L
assL253571L
(dp1929
g4
S'Nc1c(Br)cc(Br)cc1CN[C@@H]2CC[C@@H](O)CC2'
p1930
sg6
(lp1931
g8
(S'6.25'
p1932
tp1933
Rp1934
asg12
(lp1935
g1919
asg15
(lp1936
L7629553L
assL18694L
(dp1937
g4
S'Cc1ccc(cc1)c2cc(nn2c3ccc(cc3)S(=O)(=O)N)C(F)(F)F'
p1938
sg6
(lp1939
g8
(S'6.00'
p1940
tp1941
Rp1942
asg12
(lp1943
g1919
asg15
(lp1944
L7694612L
assL16391L
(dp1945
g4
S'CN(C)CCCN1c2ccccc2Sc3ccccc13'
p1946
sg6
(lp1947
g8
(S'6.52'
p1948
tp1949
Rp1950
asg12
(lp1951
g1919
asg15
(lp1952
L7722228L
assL52874L
(dp1953
g4
S'Clc1ccc(COC(Cn2ccnc2)c3ccc(Cl)cc3Cl)cc1'
p1954
sg6
(lp1955
g8
(S'6.40'
p1956
tp1957
Rp1958
asg12
(lp1959
g1919
asg15
(lp1960
L7651962L
assL15191L
(dp1961
g4
S'COC(=O)[C@H]1[C@@H](O)CC[C@H]2CN3CCc4c([nH]c5ccccc45)[C@@H]3C[C@H]12'
p1962
sg6
(lp1963
g8
(S'5.69'
p1964
tp1965
Rp1966
asg12
(lp1967
g1919
asg15
(lp1968
L7793056L
assL21938L
(dp1969
g4
S'CN1C[C@H](CNC(=O)OCc2ccccc2)C[C@H]3[C@H]1Cc4cn(C)c5cccc3c45'
p1970
sg6
(lp1971
g8
(S'6.70'
p1972
tp1973
Rp1974
asg12
(lp1975
g1919
asg15
(lp1976
L7755872L
assL255377L
(dp1977
g4
S'Cc1cc2c(OCC(CNC(C)(C)C)OC(=O)c3ccccc3)cccc2[nH]1'
p1978
sg6
(lp1979
g8
(S'5.26'
p1980
tp1981
Rp1982
asg12
(lp1983
g1919
asg15
(lp1984
L7619693L
assL37266L
(dp1985
g4
S'CN1CCN(CCCN2c3ccccc3Sc4ccc(Cl)cc24)CC1'
p1986
sg6
(lp1987
g8
(S'6.52'
p1988
tp1989
Rp1990
asg12
(lp1991
g1919
asg15
(lp1992
L7743597L
assL469763L
(dp1993
g4
S'CN1CCC[C@@H]1CCO[C@](C)(c2ccccc2)c3ccc(Cl)cc3'
p1994
sg6
(lp1995
g8
(S'5.52'
p1996
tp1997
Rp1998
asg12
(lp1999
g1919
asg15
(lp2000
L7680216L
assL835863L
(dp2001
g4
S'CN(C)CCN(Cc1cccs1)c2ccccn2'
p2002
sg6
(lp2003
g8
(S'5.56'
p2004
tp2005
Rp2006
asg12
(lp2007
g1919
asg15
(lp2008
L7764429L
assL42520L
(dp2009
g4
S'Cc1cc(c(O)c(C)c1CC2=NCCN2)C(C)(C)C'
p2010
sg6
(lp2011
g8
(S'6.70'
p2012
tp2013
Rp2014
asg12
(lp2015
g1919
asg15
(lp2016
L7714818L
assL62259L
(dp2017
g4
S'CN(C)C(=O)C(CCN1CCC(O)(CC1)c2ccc(Cl)cc2)(c3ccccc3)c4ccccc4'
p2018
sg6
(lp2019
g8
(S'5.70'
p2020
tp2021
Rp2022
asg12
(lp2023
g1919
asg15
(lp2024
L7772468L
assL27546L
(dp2025
g4
S'CN1CCN(CC1)C(c2ccccc2)c3ccccc3'
p2026
sg6
(lp2027
g8
(S'5.21'
p2028
tp2029
Rp2030
asg12
(lp2031
g1919
asg15
(lp2032
L7691400L
assL2223L
(dp2033
g4
S'CNCCC(Oc1ccc(cc1)C(F)(F)F)c2ccccc2'
p2034
sg6
(lp2035
g8
(S'6.15'
p2036
tp2037
Rp2038
asg12
(lp2039
g1919
asg15
(lp2040
L7663661L
assL1370L
(dp2041
g4
S'CC(C)NCC(O)COc1cccc2ccccc12'
p2042
sg6
(lp2043
g8
(S'5.70'
p2044
tp2045
Rp2046
asg12
(lp2047
g1919
asg15
(lp2048
L7741556L
assL60319L
(dp2049
g4
S'Clc1ccccc1CN2CCc3sccc3C2'
p2050
sg6
(lp2051
g8
(S'5.20'
p2052
tp2053
Rp2054
asg12
(lp2055
g1919
asg15
(lp2056
L7812843L
assL1243552L
(dp2057
g4
S'CCc1ccc(cc1)C(=O)C(C)CN2CCCCC2'
p2058
sg6
(lp2059
g8
(S'5.31'
p2060
tp2061
Rp2062
asg12
(lp2063
g1919
asg15
(lp2064
L7645747L
assL7714L
(dp2065
g4
S'CC1=C(CCN2CCC(CC2)c3noc4cc(F)ccc34)C(=O)N5CCCCC5=N1'
p2066
sg6
(lp2067
g8
(S'5.28'
p2068
tp2069
Rp2070
asg12
(lp2071
g1919
asg15
(lp2072
L7804871L
assL20131L
(dp2073
g4
S'Cc1ccc(cc1)N(CC2=NCCN2)c3cccc(O)c3'
p2074
sg6
(lp2075
g8
(S'5.00'
p2076
tp2077
Rp2078
asg12
(lp2079
g1919
asg15
(lp2080
L7736486L
assL155045L
(dp2081
g4
S'Clc1ccc2Oc3ccccc3N=C(N4CCNCC4)c2c1'
p2082
sg6
(lp2083
g8
(S'5.00'
p2084
tp2085
Rp2086
asg12
(lp2087
g1919
asg15
(lp2088
L7624101L
assL10661L
(dp2089
g4
S'COc1ccc(CN(CCN(C)C)c2ccccn2)cc1'
p2090
sg6
(lp2091
g8
(S'6.52'
p2092
tp2093
Rp2094
asg12
(lp2095
g1919
asg15
(lp2096
L7733085L
assL98346L
(dp2097
g4
S'[Cl-].CN(C)c1ccc(cc1)C(=C2C=CC(=[N+](C)C)C=C2)c3ccc(cc3)N(C)C'
p2098
sg6
(lp2099
g8
(S'6.08'
p2100
tp2101
Rp2102
asg12
(lp2103
g1919
asg15
(lp2104
L7651182L
assL674347L
(dp2105
g4
S'Cl.CCCCN1CCCCC1C(=O)Nc2c(C)cccc2C'
p2106
sg6
(lp2107
g8
(S'6.40'
p2108
tp2109
Rp2110
asg12
(lp2111
g1919
asg15
(lp2112
L7599770L
assL557741L
(dp2113
g4
S'COC1CN(CCCOc2ccc(F)cc2)CCC1NC(=O)c3cc(Cl)c(N)cc3OC'
p2114
sg6
(lp2115
g8
(S'7.15'
p2116
tp2117
Rp2118
asg12
(lp2119
g1919
asg15
(lp2120
L7684443L
assL704815L
(dp2121
g4
S'CC(N)Cc1c[nH]c2ccc(OCc3cccs3)cc12'
p2122
sg6
(lp2123
g8
(S'5.56'
p2124
tp2125
Rp2126
asg12
(lp2127
g1919
asg15
(lp2128
L7616945L
assL418736L
(dp2129
g4
S'COC1=C(OC)C(=O)C(=C(C)C1=O)CCCCCCCCCCO'
p2130
sg6
(lp2131
g8
(S'5.52'
p2132
tp2133
Rp2134
asg12
(lp2135
g1919
asg15
(lp2136
L7670996L
assL675144L
(dp2137
g4
S'CCCCN1CCCC[C@H]1C(=O)Nc2c(C)cccc2C'
p2138
sg6
(lp2139
g8
(S'6.71'
p2140
tp2141
Rp2142
asg12
(lp2143
g1919
asg15
(lp2144
L7755210L
assL148018L
(dp2145
g4
S'NNCCc1ccccc1'
p2146
sg6
(lp2147
g8
(S'6.00'
p2148
tp2149
Rp2150
asg12
(lp2151
g1919
asg15
(lp2152
L7715151L
assL418419L
(dp2153
g4
S'CN(Cc1cc(Br)cc(Br)c1N)C2CCCCC2'
p2154
sg6
(lp2155
g8
(S'6.71'
p2156
tp2157
Rp2158
asg12
(lp2159
g1919
asg15
(lp2160
L7605511L
assL674357L
(dp2161
g4
S'CN(C)CCOC(c1ccccc1)c2ccccc2.CN3C(=O)N(C)c4nc(Cl)[nH]c4C3=O'
p2162
sg6
(lp2163
g8
(S'5.82'
p2164
tp2165
Rp2166
asg12
(lp2167
g1919
asg15
(lp2168
L7707085L
assL92984L
(dp2169
g4
S'CCN(CC)CCOc1ccc(cc1)\\C(=C(\\Cl)/c2ccccc2)\\c3ccccc3'
p2170
sg6
(lp2171
g8
(S'5.00'
p2172
tp2173
Rp2174
asg12
(lp2175
g1919
asg15
(lp2176
L7706018L
assL9277L
(dp2177
g4
S'CNC(=O)Oc1ccc2N(C)[C@H]3N(C)CC[C@@]3(C)c2c1'
p2178
sg6
(lp2179
g8
(S'6.70'
p2180
tp2181
Rp2182
asg12
(lp2183
g1919
asg15
(lp2184
L7717519L
assL9333L
(dp2185
g4
S'Nc1c2CCCCc2nc3ccccc13'
p2186
sg6
(lp2187
g8
(S'6.52'
p2188
tp2189
Rp2190
asg12
(lp2191
g1919
asg15
(lp2192
L7827285L
assL86466L
(dp2193
g4
S'OC(CCCN1CCCCC1)(c2ccccc2)c3ccccc3'
p2194
sg6
(lp2195
g8
(S'6.49'
p2196
tp2197
Rp2198
asg12
(lp2199
g1919
asg15
(lp2200
L7683633L
assL453827L
(dp2201
g4
S'CN(C)C(=O)Oc1cc(OC(=O)N(C)C)cc(c1)C(O)CNC(C)(C)C'
p2202
sg6
(lp2203
g8
(S'5.70'
p2204
tp2205
Rp2206
asg12
(lp2207
g1919
asg15
(lp2208
L7606451L
assL453533L
(dp2209
g4
S'NNc1ccccc1'
p2210
sg6
(lp2211
g8
(S'5.52'
p2212
tp2213
Rp2214
asg12
(lp2215
g1919
asg15
(lp2216
L7743094L
assL418411L
(dp2217
g4
S'OC(CCN1CCCCC1)(C2CCCCC2)c3ccccc3'
p2218
sg6
(lp2219
g8
(S'5.61'
p2220
tp2221
Rp2222
asg12
(lp2223
g1919
asg15
(lp2224
L7782761L
assL223819L
(dp2225
g4
S'Clc1ccc(CSC(Cn2ccnc2)c3ccc(Cl)cc3Cl)cc1'
p2226
sg6
(lp2227
g8
(S'6.10'
p2228
tp2229
Rp2230
asg12
(lp2231
g1919
asg15
(lp2232
L7803396L
assL12494L
(dp2233
g4
S'CCCN1C[C@H](CSC)C[C@H]2[C@H]1Cc3c[nH]c4cccc2c34'
p2234
sg6
(lp2235
g8
(S'6.70'
p2236
tp2237
Rp2238
asg12
(lp2239
g1919
asg15
(lp2240
L7727825L
assL6643L
(dp2241
g4
S'Fc1ccc(cc1)[C@@H]2CCNC[C@H]2COc3ccc4OCOc4c3'
p2242
sg6
(lp2243
g8
(S'6.00'
p2244
tp2245
Rp2246
asg12
(lp2247
g1919
asg15
(lp2248
L7719180L
assL128080L
(dp2249
g4
S'N=C(Nc1ccccc1)Nc2ccccc2'
p2250
sg6
(lp2251
g8
(S'5.46'
p2252
tp2253
Rp2254
asg12
(lp2255
g1919
asg15
(lp2256
L7631332L
assL7736L
(dp2257
g4
S'CCN(CC)CCNC(=O)c1cc(Cl)c(N)cc1OC'
p2258
sg6
(lp2259
g8
(S'6.10'
p2260
tp2261
Rp2262
asg12
(lp2263
g1919
asg15
(lp2264
L7751759L
assL5970L
(dp2265
g4
S'CSc1ccc2Sc3ccccc3N(CCC4CCCCN4C)c2c1'
p2266
sg6
(lp2267
g8
(S'5.75'
p2268
tp2269
Rp2270
asg12
(lp2271
g1919
asg15
(lp2272
L7799963L
assL77779L
(dp2273
g4
S'CN(C)CCOC(c1ccccc1)c2ccccc2C'
p2274
sg6
(lp2275
g8
(S'6.40'
p2276
tp2277
Rp2278
asg12
(lp2279
g1919
asg15
(lp2280
L7714598L
assL8917L
(dp2281
g4
S'Clc1ccc(COC(Cn2ccnc2)c3ccc(Cl)cc3Cl)c(Cl)c1'
p2282
sg6
(lp2283
g8
(S'6.00'
p2284
tp2285
Rp2286
asg12
(lp2287
g1919
asg15
(lp2288
L7754147L
assL2262L
(dp2289
g4
S'CNCCC=C1c2ccccc2CCc3ccccc13'
p2290
sg6
(lp2291
g8
(S'6.00'
p2292
tp2293
Rp2294
asg12
(lp2295
g1919
asg15
(lp2296
L7740059L
assL5975L
(dp2297
g4
S'Cc1c(OCC(F)(F)F)ccnc1C[S+]([O-])c2nc3ccccc3[nH]2'
p2298
sg6
(lp2299
g8
(S'5.27'
p2300
tp2301
Rp2302
asg12
(lp2303
g1919
asg15
(lp2304
L7755082L
assL581848L
(dp2305
g4
S'CCN1CC(CCN2CCOCC2)C(C1=O)(c3ccccc3)c4ccccc4'
p2306
sg6
(lp2307
g8
(S'7.00'
p2308
tp2309
Rp2310
asg12
(lp2311
g1919
asg15
(lp2312
L7679362L
assL1248996L
(dp2313
g4
S'NC(=O)C1CCN(CCCN2c3ccccc3Sc4ccc(Cl)cc24)CC1'
p2314
sg6
(lp2315
g8
(S'7.00'
p2316
tp2317
Rp2318
asg12
(lp2319
g1919
asg15
(lp2320
L7734595L
assL13402L
(dp2321
g4
S'C(c1ccccc1)n2ccnc2'
p2322
sg6
(lp2323
g8
(S'5.70'
p2324
tp2325
Rp2326
asg12
(lp2327
g1919
asg15
(lp2328
L7623059L
assL17411L
(dp2329
g4
S'Nc1nc(N)c2nc(c(N)nc2n1)c3ccccc3'
p2330
sg6
(lp2331
g8
(S'5.00'
p2332
tp2333
Rp2334
asg12
(lp2335
g1919
asg15
(lp2336
L7785936L
assL1248989L
(dp2337
g4
S'CO[C@H]1C[C@@H](O[C@H]2C[C@@H](O[C@H]2[C@]3(C)CC[C@@H](O3)[C@]4(C)CC[C@]5(C[C@H](O)[C@@H](C)[C@H](O5)[C@@H](C)[C@@H]6O[C@](O)(CC(=O)O)[C@@H](C)[C@H](OC)[C@H]6OC)O4)[C@H]7O[C@](C)(O)[C@H](C)C[C@@H]7C)O[C@@H](C)[C@@H]1OC'
p2338
sg6
(lp2339
g8
(S'6.00'
p2340
tp2341
Rp2342
asg12
(lp2343
g1919
asg15
(lp2344
L7766133L
assL21459L
(dp2345
g4
S'Oc1ccc2C[C@H]3N(CC4CC4)CC[C@@]56[C@@H](Oc1c25)C(=O)CC[C@@]36O'
p2346
sg6
(lp2347
g8
(S'6.00'
p2348
tp2349
Rp2350
asg12
(lp2351
g1919
asg15
(lp2352
L7750127L
assL1377887L
(dp2353
g4
S'CCC1C2CC3C4N(C)c5ccccc5C46CC(C2[C@H]6O)N3C1O'
p2354
sg6
(lp2355
g8
(S'6.00'
p2356
tp2357
Rp2358
asg12
(lp2359
g1919
asg15
(lp2360
L7634595L
assL105442L
(dp2361
g4
S'CN(Cc1ccc(cc1)C(C)(C)C)Cc2cccc3ccccc23'
p2362
sg6
(lp2363
g8
(S'6.52'
p2364
tp2365
Rp2366
asg12
(lp2367
g1919
asg15
(lp2368
L7613997L
assL996L
(dp2369
g4
S'CN(C)CCCN1c2ccccc2CCc3ccc(Cl)cc13'
p2370
sg6
(lp2371
g8
(S'5.40'
p2372
tp2373
Rp2374
asg12
(lp2375
g1919
asg15
(lp2376
L7708336L
assL1248997L
(dp2377
g4
S'[Br-].CC[N+]1(CCOC(=O)C(O)(c2ccccc2)c3ccccc3)CCCCC1'
p2378
sg6
(lp2379
g8
(S'6.28'
p2380
tp2381
Rp2382
asg12
(lp2383
g1919
asg15
(lp2384
L7743196L
assL454374L
(dp2385
g4
S'CCCCCCNC(=O)N1C=C(F)C(=O)NC1=O'
p2386
sg6
(lp2387
g8
(S'5.30'
p2388
tp2389
Rp2390
asg12
(lp2391
g1919
asg15
(lp2392
L7703158L
assL27112L
(dp2393
g4
S'CCCNCC(O)COc1ccccc1C(=O)CCc2ccccc2'
p2394
sg6
(lp2395
g8
(S'5.34'
p2396
tp2397
Rp2398
asg12
(lp2399
g1919
asg15
(lp2400
L7728715L
assL1363818L
(dp2401
g4
S'C[C@]1(O)CC[C@H]2[C@@H]3CC[C@H]4Cc5n[nH]cc5C[C@]4(C)[C@H]3CC[C@]12C'
p2402
sg6
(lp2403
g8
(S'5.03'
p2404
tp2405
Rp2406
asg12
(lp2407
g1919
asg15
(lp2408
L7807595L
assL675307L
(dp2409
g4
S'CC[C@@H](CO)NC(=O)[C@H]1CN(C)[C@@H]2Cc3c[nH]c4cccc(C2=C1)c34'
p2410
sg6
(lp2411
g8
(S'6.70'
p2412
tp2413
Rp2414
asg12
(lp2415
g1919
asg15
(lp2416
L7768838L
assL9459L
(dp2417
g4
S'[Cl-].COc1ccc2cc3c4cc5OCOc5cc4CC[n+]3cc2c1OC'
p2418
sg6
(lp2419
g8
(S'5.35'
p2420
tp2421
Rp2422
asg12
(lp2423
g1919
asg15
(lp2424
L7599467L
assL1379957L
(dp2425
g4
S'[Br-].CCC(C)C(C(=O)OCC[N+](C)(CC)CC)c1ccccc1'
p2426
sg6
(lp2427
g8
(S'6.60'
p2428
tp2429
Rp2430
asg12
(lp2431
g1919
asg15
(lp2432
L7782320L
assL6902L
(dp2433
g4
S'Oc1ccc2C[C@H]3N(CC=C)CC[C@@]45[C@@H](Oc1c24)C(=O)CC[C@@]35O'
p2434
sg6
(lp2435
g8
(S'5.70'
p2436
tp2437
Rp2438
asg12
(lp2439
g1919
asg15
(lp2440
L7756630L
assL119288L
(dp2441
g4
S'C(C(C1CCCCC1)C2CCCCC2)C3CCCCN3'
p2442
sg6
(lp2443
g8
(S'6.03'
p2444
tp2445
Rp2446
asg12
(lp2447
g1919
asg15
(lp2448
L7732083L
assL1785L
(dp2449
g4
S'CC(CCc1ccccc1)NCC(O)c2ccc(O)c(c2)C(=O)N'
p2450
sg6
(lp2451
g8
(S'6.10'
p2452
tp2453
Rp2454
asg12
(lp2455
g1919
asg15
(lp2456
L7767822L
assL250L
(dp2457
g4
S'C[S+]([O-])c1ccc(cc1)c2nc(c3ccc(F)cc3)c([nH]2)c4ccncc4'
p2458
sg6
(lp2459
g8
(S'5.70'
p2460
tp2461
Rp2462
asg12
(lp2463
g1919
asg15
(lp2464
L7822225L
assL56831L
(dp2465
g4
S'CN(C\\C=C\\C#CC(C)(C)C)Cc1cccc2ccccc12'
p2466
sg6
(lp2467
g8
(S'6.70'
p2468
tp2469
Rp2470
asg12
(lp2471
g1919
asg15
(lp2472
L7806143L
assL687939L
(dp2473
g4
S'CC[C@H](C)[C@@H](CO[C@@H](Cc1ccccc1)C(=O)N[C@@H](CCS(=O)(=O)C)C(=O)OC(C)C)NC[C@@H](N)CS'
p2474
sg6
(lp2475
g8
(S'6.15'
p2476
tp2477
Rp2478
asg12
(lp2479
g1919
asg15
(lp2480
L7754974L
assL242303L
(dp2481
g4
S'Clc1ccc(CO\\N=C(/Cn2ccnc2)\\c3ccc(Cl)cc3Cl)c(Cl)c1'
p2482
sg6
(lp2483
g8
(S'6.00'
p2484
tp2485
Rp2486
asg12
(lp2487
g1919
asg15
(lp2488
L7738225L
asssS'1.20.1070.10.FF45435'
p2489
(dp2490
L16391L
(dp2491
g4
S'CN(C)CCCN1c2ccccc2Sc3ccccc13'
p2492
sg6
(lp2493
g8
(S'6.38'
p2494
tp2495
Rp2496
ag8
(S'7.06'
p2497
tp2498
Rp2499
asg12
(lp2500
S'P20309'
p2501
ag2501
asg15
(lp2502
L7722300L
aL7722301L
assL26632L
(dp2503
g4
S'CCCN(CCC)CC1CCCCN1CCNC(=O)N2c3ccccc3C(=O)Nc4cccnc24'
p2504
sg6
(lp2505
g8
(S'7.80'
p2506
tp2507
Rp2508
asg12
(lp2509
g2501
asg15
(lp2510
L5084359L
assL1511435L
(dp2511
g4
S'CCN1CCC(=C(C1)C(=O)OCCCc2ccc(OC)cc2)c3ccccc3'
p2512
sg6
(lp2513
g8
(S'5.39'
p2514
tp2515
Rp2516
asg12
(lp2517
g2501
asg15
(lp2518
L12627788L
assL491534L
(dp2519
g4
S'Cc1ccccc1CN2CCC(CC2)N3CCC(CC3)N4C(=O)Nc5ccccc45'
p2520
sg6
(lp2521
g8
(S'6.37'
p2522
tp2523
Rp2524
ag8
(S'5.63'
p2525
tp2526
Rp2527
ag8
(S'5.64'
p2528
tp2529
Rp2530
asg12
(lp2531
g2501
ag2501
ag2501
asg15
(lp2532
L3430246L
aL12639025L
aL12639026L
assL1265643L
(dp2533
g4
S'C[C@@](N1CCCCC1)(C(=O)O[C@H]2C[N+]3(CC(=O)Nc4ccon4)CCC2CC3)c5cccs5'
p2534
sg6
(lp2535
g8
(S'9.70'
p2536
tp2537
Rp2538
asg12
(lp2539
g2501
asg15
(lp2540
L7947362L
assL114704L
(dp2541
g4
S'CCCC(=O)N1CCC(CC1)N2CCC(CC2)C(=C)c3ccc(cc3)S(=O)(=O)c4ccc(OC)cc4'
p2542
sg6
(lp2543
g8
(S'6.92'
p2544
tp2545
Rp2546
asg12
(lp2547
g2501
asg15
(lp2548
L358631L
assL114707L
(dp2549
g4
S'COc1ccc(cc1)S(=O)(=O)c2ccc(cc2)C(=C)C3CCN(CC3)C4CCNCC4'
p2550
sg6
(lp2551
g8
(S'8.47'
p2552
tp2553
Rp2554
asg12
(lp2555
g2501
asg15
(lp2556
L371236L
assL1604712L
(dp2557
g4
S'NC(=O)C[N+]12CCC(CC1)[C@H](C2)OC(=O)C3(CCCCCC3)C4=CC=CC4'
p2558
sg6
(lp2559
g8
(S'9.70'
p2560
tp2561
Rp2562
asg12
(lp2563
g2501
asg15
(lp2564
L13833268L
assL716826L
(dp2565
g4
S'O=C(N1CCC2(CCN(Cc3ccccc3)CC2)CC1)c4ccsc4'
p2566
sg6
(lp2567
g8
(S'6.50'
p2568
tp2569
Rp2570
asg12
(lp2571
g2501
asg15
(lp2572
L3591690L
assL26653L
(dp2573
g4
S'CCCCCCOc1nsnc1C2=CCCN(C)C2'
p2574
sg6
(lp2575
g8
(S'7.89'
p2576
tp2577
Rp2578
asg12
(lp2579
g2501
asg15
(lp2580
L3430243L
assL376873L
(dp2581
g4
S'[I-].C[C@H]1COC[C@@H](C[N+](C)(C)C)O1'
p2582
sg6
(lp2583
g8
(S'5.12'
p2584
tp2585
Rp2586
asg12
(lp2587
g2501
asg15
(lp2588
L3074988L
assL98346L
(dp2589
g4
S'[Cl-].CN(C)c1ccc(cc1)C(=C2C=CC(=[N+](C)C)C=C2)c3ccc(cc3)N(C)C'
p2590
sg6
(lp2591
g8
(S'5.36'
p2592
tp2593
Rp2594
ag8
(S'6.04'
p2595
tp2596
Rp2597
asg12
(lp2598
g2501
ag2501
asg15
(lp2599
L7651254L
aL7651255L
assL114739L
(dp2600
g4
S'CCCS(=O)(=O)N1CCC(CC1)N2CCC(CC2)C(=C)c3ccc(cc3)S(=O)(=O)c4ccc(OC)cc4'
p2601
sg6
(lp2602
g8
(S'8.00'
p2603
tp2604
Rp2605
asg12
(lp2606
g2501
asg15
(lp2607
L372669L
assL65605L
(dp2608
g4
S'COc1ccc(CCN2CCC(CC2)Nc3nc4ccccc4n3Cc5ccc(F)cc5)cc1'
p2609
sg6
(lp2610
g8
(S'6.08'
p2611
tp2612
Rp2613
ag8
(S'6.75'
p2614
tp2615
Rp2616
asg12
(lp2617
g2501
ag2501
asg15
(lp2618
L7620332L
aL7620333L
assL6216L
(dp2619
g4
S'CN(C)CCCN1c2ccccc2Sc3ccc(Cl)cc13'
p2620
sg6
(lp2621
g8
(S'6.69'
p2622
tp2623
Rp2624
ag8
(S'7.36'
p2625
tp2626
Rp2627
asg12
(lp2628
g2501
ag2501
asg15
(lp2629
L7707751L
aL7707752L
assL579658L
(dp2630
g4
S'[I-].C[N+]1(C)CCC[C@H]1c2oc(cc2)[C@](O)(C3CCCCC3)c4ccccc4'
p2631
sg6
(lp2632
g8
(S'6.29'
p2633
tp2634
Rp2635
asg12
(lp2636
g2501
asg15
(lp2637
L2983689L
assL579659L
(dp2638
g4
S'[I-].C[N+]1(C)CCCC1c2oc(cc2)C(c3ccccc3)c4ccccc4'
p2639
sg6
(lp2640
g8
(S'7.63'
p2641
tp2642
Rp2643
asg12
(lp2644
g2501
asg15
(lp2645
L2983690L
assL1604714L
(dp2646
g4
S'Fc1cccc(NC(=O)C[N+]23CCC(CC2)[C@H](C3)OC(=O)C4(CCCCCC4)C5=CC=CC5)c1'
p2647
sg6
(lp2648
g8
(S'9.90'
p2649
tp2650
Rp2651
asg12
(lp2652
g2501
asg15
(lp2653
L13833266L
assL1051375L
(dp2654
g4
S'NC(=N)N1CCN(CC(=O)N2c3ccccc3C(=C)Nc4cccnc24)CC1'
p2655
sg6
(lp2656
g8
(S'6.50'
p2657
tp2658
Rp2659
asg12
(lp2660
g2501
asg15
(lp2661
L5084357L
assL632933L
(dp2662
g4
S'OC(CCC1CCNCC1)c2ccccc2c3cccc(Cl)c3'
p2663
sg6
(lp2664
g8
(S'8.70'
p2665
tp2666
Rp2667
asg12
(lp2668
g2501
asg15
(lp2669
L3312776L
assL632934L
(dp2670
g4
S'Clc1cccc(c1)c2ccccc2\\C=C\\CC3CCNCC3'
p2671
sg6
(lp2672
g8
(S'7.90'
p2673
tp2674
Rp2675
asg12
(lp2676
g2501
asg15
(lp2677
L3312779L
assL579688L
(dp2678
g4
S'[I-].C[N+]1(C)CCCC1c2oc(cc2)C(C3CCCCC3)c4ccccc4'
p2679
sg6
(lp2680
g8
(S'8.05'
p2681
tp2682
Rp2683
asg12
(lp2684
g2501
asg15
(lp2685
L2983691L
assL579694L
(dp2686
g4
S'CN1CCCC1c2oc(cc2)C(O)(c3ccccc3)c4ccccc4'
p2687
sg6
(lp2688
g8
(S'7.02'
p2689
tp2690
Rp2691
asg12
(lp2692
g2501
asg15
(lp2693
L2983031L
assL553072L
(dp2694
g4
S'Cl.CCCCN1C(=O)C(CC2CCCCC2)NC(=O)C13CCN(Cc4ccc5OCCOc5c4)CC3'
p2695
sg6
(lp2696
g8
(S'5.68'
p2697
tp2698
Rp2699
asg12
(lp2700
g2501
asg15
(lp2701
L1743081L
assL1606032L
(dp2702
g4
S'[Br-].C[N+]1(C)[C@@H]2C[C@@H](C[C@H]1[C@@H]3O[C@H]23)OC(=O)C(O)c4cccs4'
p2703
sg6
(lp2704
g8
(S'8.30'
p2705
tp2706
Rp2707
asg12
(lp2708
g2501
asg15
(lp2709
L13846946L
assL579706L
(dp2710
g4
S'CN1CCCC1c2oc(cc2)C(O)(C3CCCCC3)c4ccccc4'
p2711
sg6
(lp2712
g8
(S'8.11'
p2713
tp2714
Rp2715
asg12
(lp2716
g2501
asg15
(lp2717
L2983032L
assL344189L
(dp2718
g4
S'Nc1c(NC2CC2)nc(nc1N3CCCCCC3)C4CC4'
p2719
sg6
(lp2720
g8
(S'7.10'
p2721
tp2722
Rp2723
asg12
(lp2724
g2501
asg15
(lp2725
L1702695L
assL579719L
(dp2726
g4
S'[I-].C[N+]1(C)CCCC1c2oc(cc2)C(O)(C3CCCCC3)c4ccccc4'
p2727
sg6
(lp2728
g8
(S'8.14'
p2729
tp2730
Rp2731
asg12
(lp2732
g2501
asg15
(lp2733
L2983685L
assL579720L
(dp2734
g4
S'[I-].C[N+]1(C)CCC[C@@H]1c2oc(cc2)[C@@](O)(C3CCCCC3)c4ccccc4'
p2735
sg6
(lp2736
g8
(S'8.82'
p2737
tp2738
Rp2739
asg12
(lp2740
g2501
asg15
(lp2741
L2983686L
assL344201L
(dp2742
g4
S'Cc1c(NC2(C)CC2)nc(nc1N3CCCCCC3)C4CC4'
p2743
sg6
(lp2744
g8
(S'8.00'
p2745
tp2746
Rp2747
asg12
(lp2748
g2501
asg15
(lp2749
L1702690L
assL344202L
(dp2750
g4
S'C[C@H]1C[C@@H]1Nc2nc(nc(N3CCCCCC3)c2C)C4CC4'
p2751
sg6
(lp2752
g8
(S'8.10'
p2753
tp2754
Rp2755
asg12
(lp2756
g2501
asg15
(lp2757
L1702689L
assL1559234L
(dp2758
g4
S'CCN(CC)CCSC(=O)C(O)(c1ccccc1)c2ccccc2'
p2759
sg6
(lp2760
g8
(S'8.51'
p2761
tp2762
Rp2763
asg12
(lp2764
g2501
asg15
(lp2765
L13288590L
assL1559235L
(dp2766
g4
S'CCN(CC)CCOC(=O)C(O)(c1ccccc1)c2c(C)cccc2C'
p2767
sg6
(lp2768
g8
(S'6.60'
p2769
tp2770
Rp2771
asg12
(lp2772
g2501
asg15
(lp2773
L13288589L
assL579732L
(dp2774
g4
S'CN1CCC[C@@H]1c2oc(cc2)[C@@](O)(C3CCCCC3)c4ccccc4'
p2775
sg6
(lp2776
g8
(S'8.78'
p2777
tp2778
Rp2779
asg12
(lp2780
g2501
asg15
(lp2781
L2983678L
assL579733L
(dp2782
g4
S'CN1CCC[C@H]1c2oc(cc2)[C@@](O)(C3CCCCC3)c4ccccc4'
p2783
sg6
(lp2784
g8
(S'7.63'
p2785
tp2786
Rp2787
asg12
(lp2788
g2501
asg15
(lp2789
L2983679L
assL1147601L
(dp2790
g4
S'[Br-].O=C(O[C@H]1C[N+]2(CCOc3ccccc3)CCC1CC2)N(Cc4cccs4)c5ccccc5'
p2791
sg6
(lp2792
g8
(S'9.52'
p2793
tp2794
Rp2795
asg12
(lp2796
g2501
asg15
(lp2797
L6210580L
assL443759L
(dp2798
g4
S'CCCCCCCCCCCC(OC(=O)C(CCCCN(O)C(=O)C)NC(=O)c1coc(n1)c2ccccc2O)C(C)C(=O)NC3CCCCNC3=O'
p2799
sg6
(lp2800
g8
(S'5.33'
p2801
tp2802
Rp2803
ag8
(S'6.00'
p2804
tp2805
Rp2806
asg12
(lp2807
g2501
ag2501
asg15
(lp2808
L2544779L
aL2544785L
assL357744L
(dp2809
g4
S'O[C@@H]1C[C@H](N(C1)C(=O)CC(c2ccc(F)cc2)(c3ccc(F)cc3)c4ccc(F)cc4)C(=O)N5CCC[C@@H]5C(=O)NCC6CCN(CC7CCCC7)CC6'
p2810
sg6
(lp2811
g8
(S'9.72'
p2812
tp2813
Rp2814
asg12
(lp2815
g2501
asg15
(lp2816
L1763994L
assL335217L
(dp2817
g4
S'CO[C@@]1(CN2CCC1CC2)C#CC(O)(c3ccccc3)c4ccccc4'
p2818
sg6
(lp2819
g8
(S'9.89'
p2820
tp2821
Rp2822
asg12
(lp2823
g2501
asg15
(lp2824
L1666528L
assL344234L
(dp2825
g4
S'CC(C)c1nc(NC2CC2)c(C)c(n1)N3CCCCCC3'
p2826
sg6
(lp2827
g8
(S'7.60'
p2828
tp2829
Rp2830
asg12
(lp2831
g2501
asg15
(lp2832
L1702704L
assL579756L
(dp2833
g4
S'CN1CCC[C@@H]1c2oc(cc2)[C@](O)(C3CCCCC3)c4ccccc4'
p2834
sg6
(lp2835
g8
(S'6.49'
p2836
tp2837
Rp2838
asg12
(lp2839
g2501
asg15
(lp2840
L2983680L
assL579757L
(dp2841
g4
S'CN1CCC[C@H]1c2oc(cc2)[C@](O)(C3CCCCC3)c4ccccc4'
p2842
sg6
(lp2843
g8
(S'5.78'
p2844
tp2845
Rp2846
asg12
(lp2847
g2501
asg15
(lp2848
L2983681L
assL2223L
(dp2849
g4
S'CNCCC(Oc1ccc(cc1)C(F)(F)F)c2ccccc2'
p2850
sg6
(lp2851
g8
(S'5.44'
p2852
tp2853
Rp2854
ag8
(S'6.12'
p2855
tp2856
Rp2857
asg12
(lp2858
g2501
ag2501
asg15
(lp2859
L7665731L
aL7665732L
assL344241L
(dp2860
g4
S'Cc1c(NC2CC2)nc(CC3CC3)nc1N4CCCCCC4'
p2861
sg6
(lp2862
g8
(S'6.90'
p2863
tp2864
Rp2865
asg12
(lp2866
g2501
asg15
(lp2867
L1702703L
assL344242L
(dp2868
g4
S'Cc1c(NC2CC2)nc(nc1N3CCc4ccccc4C3)C5CC5'
p2869
sg6
(lp2870
g8
(S'6.50'
p2871
tp2872
Rp2873
asg12
(lp2874
g2501
asg15
(lp2875
L1702710L
assL344243L
(dp2876
g4
S'Cc1c(NC2CC2)nc(Cc3ccccc3)nc1N4CCCCCC4'
p2877
sg6
(lp2878
g8
(S'6.30'
p2879
tp2880
Rp2881
asg12
(lp2882
g2501
asg15
(lp2883
L1702702L
assL195273L
(dp2884
g4
S'[Br-].CCCCCCCCCCCCCCCC[n+]1ccccc1'
p2885
sg6
(lp2886
g8
(S'7.47'
p2887
tp2888
Rp2889
ag8
(S'8.14'
p2890
tp2891
Rp2892
asg12
(lp2893
g2501
ag2501
asg15
(lp2894
L7679632L
aL7679633L
assL344251L
(dp2895
g4
S'COc1c(NC2CC2)nc(nc1N3CCSCC3)C4CC4'
p2896
sg6
(lp2897
g8
(S'6.40'
p2898
tp2899
Rp2900
asg12
(lp2901
g2501
asg15
(lp2902
L1702694L
assL344259L
(dp2903
g4
S'C1CCCN(CC1)c2nc(nc3NCCCc23)C4CC4'
p2904
sg6
(lp2905
g8
(S'7.30'
p2906
tp2907
Rp2908
asg12
(lp2909
g2501
asg15
(lp2910
L1702688L
assL633030L
(dp2911
g4
S'Cc1ccc(cc1Cl)c2ccccc2C(=O)NCC3CCNCC3'
p2912
sg6
(lp2913
g8
(S'6.60'
p2914
tp2915
Rp2916
asg12
(lp2917
g2501
asg15
(lp2918
L3316129L
assL344268L
(dp2919
g4
S'C1CCCN(CC1)c2nc(nc3NCCCCc23)C4CC4'
p2920
sg6
(lp2921
g8
(S'8.00'
p2922
tp2923
Rp2924
asg12
(lp2925
g2501
asg15
(lp2926
L1702687L
assL1147597L
(dp2927
g4
S'[Br-].O=C(O[C@H]1C[N+]2(CCCc3cccs3)CCC1CC2)N(Cc4ccccc4)c5ccccc5'
p2928
sg6
(lp2929
g8
(S'9.22'
p2930
tp2931
Rp2932
asg12
(lp2933
g2501
asg15
(lp2934
L6210576L
assL579792L
(dp2935
g4
S'CN1CCCC1c2oc(cc2)C(c3ccccc3)c4ccccc4'
p2936
sg6
(lp2937
g8
(S'7.07'
p2938
tp2939
Rp2940
asg12
(lp2941
g2501
asg15
(lp2942
L2983682L
assL579793L
(dp2943
g4
S'CN1CCCC1c2oc(cc2)C(C3CCCCC3)c4ccccc4'
p2944
sg6
(lp2945
g8
(S'7.47'
p2946
tp2947
Rp2948
asg12
(lp2949
g2501
asg15
(lp2950
L2983683L
assL579794L
(dp2951
g4
S'[I-].C[N+]1(C)CCC[C@H]1c2oc(cc2)[C@@](O)(C3CCCCC3)c4ccccc4'
p2952
sg6
(lp2953
g8
(S'8.03'
p2954
tp2955
Rp2956
asg12
(lp2957
g2501
asg15
(lp2958
L2983687L
assL2261L
(dp2959
g4
S'CN1CCN(CC1)C2=Nc3cc(Cl)ccc3Nc4ccccc24'
p2960
sg6
(lp2961
g8
(S'7.11'
p2962
tp2963
Rp2964
ag8
(S'7.77'
p2965
tp2966
Rp2967
asg12
(lp2968
g2501
ag2501
asg15
(lp2969
L7706211L
aL7706212L
assL2262L
(dp2970
g4
S'CNCCC=C1c2ccccc2CCc3ccccc13'
p2971
sg6
(lp2972
g8
(S'6.77'
p2973
tp2974
Rp2975
ag8
(S'7.44'
p2976
tp2977
Rp2978
asg12
(lp2979
g2501
ag2501
asg15
(lp2980
L7740131L
aL7740132L
assL579802L
(dp2981
g4
S'[I-].C[N+]1(C)CCC[C@@H]1c2oc(cc2)[C@](O)(C3CCCCC3)c4ccccc4'
p2982
sg6
(lp2983
g8
(S'6.81'
p2984
tp2985
Rp2986
asg12
(lp2987
g2501
asg15
(lp2988
L2983688L
assL344287L
(dp2989
g4
S'Cc1c(NCc2c(F)cccc2F)nc(nc1NC3CC3)C4CC4'
p2990
sg6
(lp2991
g8
(S'7.20'
p2992
tp2993
Rp2994
asg12
(lp2995
g2501
asg15
(lp2996
L1702709L
assL344288L
(dp2997
g4
S'Cc1c(NCc2cccs2)nc(nc1NC3CC3)C4CC4'
p2998
sg6
(lp2999
g8
(S'6.90'
p3000
tp3001
Rp3002
asg12
(lp3003
g2501
asg15
(lp3004
L1702708L
assL344289L
(dp3005
g4
S'Cc1c(NCCc2cccs2)nc(nc1NC3CC3)C4CC4'
p3006
sg6
(lp3007
g8
(S'7.10'
p3008
tp3009
Rp3010
asg12
(lp3011
g2501
asg15
(lp3012
L1702707L
assL344295L
(dp3013
g4
S'Cc1c(NC2CC2)nc(nc1N3CCCCCC3)C4CCC4'
p3014
sg6
(lp3015
g8
(S'7.40'
p3016
tp3017
Rp3018
asg12
(lp3019
g2501
asg15
(lp3020
L1702706L
assL344296L
(dp3021
g4
S'Cc1c(NC2CC2)nc(nc1N3CCCCCC3)C4CCCC4'
p3022
sg6
(lp3023
g8
(S'7.10'
p3024
tp3025
Rp3026
asg12
(lp3027
g2501
asg15
(lp3028
L1702705L
assL579819L
(dp3029
g4
S'[I-].C[N+]1(C)CCCC1c2oc(cc2)C(O)(c3ccccc3)c4ccccc4'
p3030
sg6
(lp3031
g8
(S'7.44'
p3032
tp3033
Rp3034
asg12
(lp3035
g2501
asg15
(lp3036
L2983684L
assL1147602L
(dp3037
g4
S'[Br-].O=C(O[C@H]1C[N+]2(CCCc3cccs3)CCC1CC2)N(Cc4ccsc4)c5ccccc5'
p3038
sg6
(lp3039
g8
(S'9.22'
p3040
tp3041
Rp3042
asg12
(lp3043
g2501
asg15
(lp3044
L6210581L
assL633081L
(dp3045
g4
S'Clc1cccc(c1)c2ccccc2S(=O)(=O)CCC3CCNCC3'
p3046
sg6
(lp3047
g8
(S'7.70'
p3048
tp3049
Rp3050
asg12
(lp3051
g2501
asg15
(lp3052
L3312801L
assL633082L
(dp3053
g4
S'Fc1cccc(c2cc(Cl)ccc2Cl)c1c3onc(n3)C4CCNCC4'
p3054
sg6
(lp3055
g8
(S'5.40'
p3056
tp3057
Rp3058
asg12
(lp3059
g2501
asg15
(lp3060
L3312804L
assL633083L
(dp3061
g4
S'Fc1cccc(c2cc(Cl)ccc2Cl)c1C(=O)NCC3CCNCC3'
p3062
sg6
(lp3063
g8
(S'5.90'
p3064
tp3065
Rp3066
asg12
(lp3067
g2501
asg15
(lp3068
L3312807L
assL717052L
(dp3069
g4
S'CCOc1ccccc1C(=O)N2CCC3(CCN(Cc4ccccc4)CC3)CC2'
p3070
sg6
(lp3071
g8
(S'6.10'
p3072
tp3073
Rp3074
asg12
(lp3075
g2501
asg15
(lp3076
L3591691L
assL717053L
(dp3077
g4
S'Clc1ccc(CN2CCC3(CC2)CN(CCO3)C(=O)c4ccccc4)cc1'
p3078
sg6
(lp3079
g8
(S'6.60'
p3080
tp3081
Rp3082
asg12
(lp3083
g2501
asg15
(lp3084
L3591692L
assL1147605L
(dp3085
g4
S'[Br-].CCCCN(C(=O)O[C@H]1C[N+]2(CCCc3ccccc3)CCC1CC2)c4ccccc4'
p3086
sg6
(lp3087
g8
(S'9.10'
p3088
tp3089
Rp3090
asg12
(lp3091
g2501
asg15
(lp3092
L6210584L
assL135426L
(dp3093
g4
S'O=C(OC1CC2CCCC1N2)C3CCCCC3'
p3094
sg6
(lp3095
g8
(S'5.12'
p3096
tp3097
Rp3098
asg12
(lp3099
g2501
asg15
(lp3100
L183352L
assL1147606L
(dp3101
g4
S'[Br-].CCCCN(C(=O)O[C@H]1C[N+]2(CCCc3cccs3)CCC1CC2)c4ccccc4'
p3102
sg6
(lp3103
g8
(S'9.22'
p3104
tp3105
Rp3106
asg12
(lp3107
g2501
asg15
(lp3108
L6210585L
assL633098L
(dp3109
g4
S'Fc1ccc(Cl)cc1c2ccccc2C(=O)NCC3CCNCC3'
p3110
sg6
(lp3111
g8
(S'6.00'
p3112
tp3113
Rp3114
asg12
(lp3115
g2501
asg15
(lp3116
L3316133L
assL661796L
(dp3117
g4
S'CN1[C@@H]2C[C@H](C[C@H]1[C@@H]3O[C@@H]23)OC(=O)[C@H](CO)c4ccccc4'
p3118
sg6
(lp3119
g8
(S'8.19'
p3120
tp3121
Rp3122
asg12
(lp3123
g2501
asg15
(lp3124
L12627790L
assL18726L
(dp3125
g4
S'CCN(CC)CC1CCCCN1CC(=O)N2c3ccccc3C(=O)Nc4cccnc24'
p3126
sg6
(lp3127
g8
(S'6.10'
p3128
tp3129
Rp3130
ag8
(S'5.68'
p3131
tp3132
Rp3133
asg12
(lp3134
g2501
ag2501
asg15
(lp3135
L5084358L
aL12629832L
assL1265516L
(dp3136
g4
S'C[C@@](N1CCCCC1)(C(=O)O[C@H]2C[N+]3(CCCc4ccc5ncsc5c4)CCC2CC3)c6ccccc6'
p3137
sg6
(lp3138
g8
(S'9.40'
p3139
tp3140
Rp3141
asg12
(lp3142
g2501
asg15
(lp3143
L7947387L
assL479533L
(dp3144
g4
S'FC(F)(F)c1ccc(CN2C(=O)C(=O)c3cccc(Cl)c23)cc1'
p3145
sg6
(lp3146
g8
(S'5.65'
p3147
tp3148
Rp3149
asg12
(lp3150
g2501
asg15
(lp3151
L2623370L
assL2355L
(dp3152
g4
S'CCN(CC)CCCC(C)Nc1c2ccc(Cl)cc2nc3ccc(OC)cc13'
p3153
sg6
(lp3154
g8
(S'5.90'
p3155
tp3156
Rp3157
ag8
(S'6.58'
p3158
tp3159
Rp3160
asg12
(lp3161
g2501
ag2501
asg15
(lp3162
L7746072L
aL7746073L
assL555323L
(dp3163
g4
S'[Br-].CCCCCCC[N+]12CCC(CC1)[C@H](C2)OC(=O)C3(O)c4ccccc4c5ccccc35'
p3164
sg6
(lp3165
g8
(S'8.77'
p3166
tp3167
Rp3168
asg12
(lp3169
g2501
asg15
(lp3170
L2708928L
assL555324L
(dp3171
g4
S'[Br-].OC1(C(=O)O[C@H]2C[N+]3(CCCOc4ccccc4)CCC2CC3)c5ccccc5c6ccccc16'
p3172
sg6
(lp3173
g8
(S'9.15'
p3174
tp3175
Rp3176
asg12
(lp3177
g2501
asg15
(lp3178
L2708930L
assL1343805L
(dp3179
g4
S'C[C@@H]1CCCN1CCc2oc3ccc(cc3c2)C(=O)c4ccc(cc4)[N+](=O)[O-]'
p3180
sg6
(lp3181
g8
(S'6.29'
p3182
tp3183
Rp3184
asg12
(lp3185
g2501
asg15
(lp3186
L10888582L
assL633158L
(dp3187
g4
S'C[C@H]1CNCC[C@@H]1CNC(=O)c2c(F)cccc2c3cccc(Cl)c3'
p3188
sg6
(lp3189
g8
(S'7.40'
p3190
tp3191
Rp3192
asg12
(lp3193
g2501
asg15
(lp3194
L3312812L
assL633159L
(dp3195
g4
S'C[C@H]1CNCC[C@H]1CNC(=O)c2c(F)cccc2c3cccc(Cl)c3'
p3196
sg6
(lp3197
g8
(S'5.60'
p3198
tp3199
Rp3200
asg12
(lp3201
g2501
asg15
(lp3202
L3312815L
assL633160L
(dp3203
g4
S'Fc1cccc(c2cccc(Cl)c2)c1C(=O)NCC3=CCNCC3'
p3204
sg6
(lp3205
g8
(S'5.50'
p3206
tp3207
Rp3208
asg12
(lp3209
g2501
asg15
(lp3210
L3312818L
assL1606028L
(dp3211
g4
S'[Br-].CC(C(=O)O[C@H]1C[C@@H]2[C@H]3O[C@H]3[C@H](C1)[N+]2(C)C)(c4cccs4)c5cccs5'
p3212
sg6
(lp3213
g8
(S'10.30'
p3214
tp3215
Rp3216
asg12
(lp3217
g2501
asg15
(lp3218
L13846942L
assL1606030L
(dp3219
g4
S'[Br-].C[N+]1(C)[C@@H]2C[C@@H](C[C@H]1[C@@H]3O[C@H]23)OC(=O)[C@H](CO)c4ccccc4'
p3220
sg6
(lp3221
g8
(S'9.80'
p3222
tp3223
Rp3224
asg12
(lp3225
g2501
asg15
(lp3226
L13846948L
assL47447L
(dp3227
g4
S'CC(C)(O)c1ccccc1CC[C@@H](SCC2(CC(=O)O)CC2)c3cccc(\\C=C\\c4ccc5ccc(Cl)cc5n4)c3'
p3228
sg6
(lp3229
g8
(S'5.18'
p3230
tp3231
Rp3232
ag8
(S'5.85'
p3233
tp3234
Rp3235
asg12
(lp3236
g2501
ag2501
asg15
(lp3237
L7762867L
aL7762868L
assL633176L
(dp3238
g4
S'CC1CNCCC1CNC(=O)c2ccccc2c3cccc(Cl)c3'
p3239
sg6
(lp3240
g8
(S'5.90'
p3241
tp3242
Rp3243
asg12
(lp3244
g2501
asg15
(lp3245
L3316137L
assL1606031L
(dp3246
g4
S'[Br-].C[N+]1(C)[C@@H]2C[C@@H](C[C@H]1[C@@H]3O[C@H]23)OC(=O)C(O)c4ccccc4'
p3247
sg6
(lp3248
g8
(S'8.70'
p3249
tp3250
Rp3251
asg12
(lp3252
g2501
asg15
(lp3253
L13846947L
assL395664L
(dp3254
g4
S'CN(C)C1(CNCCC2CCCCCC2)COc3ccccc3OC1'
p3255
sg6
(lp3256
g8
(S'8.57'
p3257
tp3258
Rp3259
asg12
(lp3260
g2501
asg15
(lp3261
L1960486L
assL1265518L
(dp3262
g4
S'C[C@@](N1CCCCC1)(C(=O)O[C@H]2C[N+]3(CCCCc4ccccc4)CCC2CC3)c5cccs5'
p3263
sg6
(lp3264
g8
(S'9.60'
p3265
tp3266
Rp3267
asg12
(lp3268
g2501
asg15
(lp3269
L7947385L
assL1606033L
(dp3270
g4
S'[Br-].C[N+]1(C)[C@@H]2C[C@@H](C[C@H]1[C@@H]3O[C@H]23)OC(=O)C(CO)(c4cccs4)c5cccs5'
p3271
sg6
(lp3272
g8
(S'9.50'
p3273
tp3274
Rp3275
asg12
(lp3276
g2501
asg15
(lp3277
L13846944L
assL37266L
(dp3278
g4
S'CN1CCN(CCCN2c3ccccc3Sc4ccc(Cl)cc24)CC1'
p3279
sg6
(lp3280
g8
(S'5.82'
p3281
tp3282
Rp3283
ag8
(S'6.49'
p3284
tp3285
Rp3286
asg12
(lp3287
g2501
ag2501
asg15
(lp3288
L7745697L
aL7745698L
assL443761L
(dp3289
g4
S'CCCCCCCCCCCCCC(OC(=O)C(CCCCN(O)C(=O)C)NC(=O)c1coc(n1)c2ccccc2O)C(C)C(=O)NC3CCCCNC3=O'
p3290
sg6
(lp3291
g8
(S'5.34'
p3292
tp3293
Rp3294
ag8
(S'6.01'
p3295
tp3296
Rp3297
asg12
(lp3298
g2501
ag2501
asg15
(lp3299
L2544781L
aL2544787L
assL27368L
(dp3300
g4
S'CC(CN1c2ccccc2Sc3ccccc13)N(C)C'
p3301
sg6
(lp3302
g8
(S'7.70'
p3303
tp3304
Rp3305
ag8
(S'8.38'
p3306
tp3307
Rp3308
asg12
(lp3309
g2501
ag2501
asg15
(lp3310
L7726532L
aL7726533L
assL717171L
(dp3311
g4
S'Clc1ccc(CN2CCC3(CC2)CN(CCO3)C(=O)c4ccc5occc5c4)cc1'
p3312
sg6
(lp3313
g8
(S'7.50'
p3314
tp3315
Rp3316
asg12
(lp3317
g2501
asg15
(lp3318
L3591693L
assL717172L
(dp3319
g4
S'Cc1oc(cc1)C(=O)N2CCOC3(CCN(Cc4ccc(Cl)cc4)CC3)C2'
p3320
sg6
(lp3321
g8
(S'7.30'
p3322
tp3323
Rp3324
asg12
(lp3325
g2501
asg15
(lp3326
L3591694L
assL59765L
(dp3327
g4
S'C[N+](C)(C)CC#CCOC(=O)Nc1cccc(Cl)c1'
p3328
sg6
(lp3329
g8
(S'5.62'
p3330
tp3331
Rp3332
asg12
(lp3333
g2501
asg15
(lp3334
L2446357L
assL293242L
(dp3335
g4
S'O=C(CCCNC(=O)CC(c1ccccc1)(c2ccccc2)c3ccccc3)NCCC(=O)NCC4CCCN(CC5CCCCC5)C4'
p3336
sg6
(lp3337
g8
(S'8.68'
p3338
tp3339
Rp3340
asg12
(lp3341
g2501
asg15
(lp3342
L1192568L
assL135547L
(dp3343
g4
S'CCC(=O)OC1CC2CCCC1N2C'
p3344
sg6
(lp3345
g8
(S'5.13'
p3346
tp3347
Rp3348
asg12
(lp3349
g2501
asg15
(lp3350
L159815L
assL395646L
(dp3351
g4
S'CN(C)C1(CNCCc2ccccc2)COc3ccccc3OC1'
p3352
sg6
(lp3353
g8
(S'7.70'
p3354
tp3355
Rp3356
asg12
(lp3357
g2501
asg15
(lp3358
L1960408L
assL395648L
(dp3359
g4
S'CN(C)C1(CNCCc2ccc(C)cc2)COc3ccccc3OC1'
p3360
sg6
(lp3361
g8
(S'7.74'
p3362
tp3363
Rp3364
asg12
(lp3365
g2501
asg15
(lp3366
L1960499L
assL395649L
(dp3367
g4
S'CN(C)C1(CNCCc2ccc(Cl)cc2)COc3ccccc3OC1'
p3368
sg6
(lp3369
g8
(S'7.70'
p3370
tp3371
Rp3372
asg12
(lp3373
g2501
asg15
(lp3374
L1960498L
assL395651L
(dp3375
g4
S'CC(C)c1ccc(CCNCC2(COc3ccccc3OC2)N(C)C)cc1'
p3376
sg6
(lp3377
g8
(S'7.25'
p3378
tp3379
Rp3380
asg12
(lp3381
g2501
asg15
(lp3382
L1960497L
assL395654L
(dp3383
g4
S'CN(C)C1(CNCCc2c(Cl)cccc2Cl)COc3ccccc3OC1'
p3384
sg6
(lp3385
g8
(S'7.64'
p3386
tp3387
Rp3388
asg12
(lp3389
g2501
asg15
(lp3390
L1960495L
assL395655L
(dp3391
g4
S'CN(C)C1(CNCCc2ccccc2F)COc3ccccc3OC1'
p3392
sg6
(lp3393
g8
(S'7.72'
p3394
tp3395
Rp3396
asg12
(lp3397
g2501
asg15
(lp3398
L1960494L
assL675286L
(dp3399
g4
S'C[N+]1(C)CCC(C1)OC(=O)C(O)(C2CCCC2)c3ccccc3'
p3400
sg6
(lp3401
g8
(S'9.60'
p3402
tp3403
Rp3404
ag8
(S'9.90'
p3405
tp3406
Rp3407
asg12
(lp3408
g2501
ag2501
asg15
(lp3409
L7947452L
aL13833292L
assL1612169L
(dp3410
g4
S'CN1CCc2c(C1)c3cccc4CCc5ccccc5n2c34'
p3411
sg6
(lp3412
g8
(S'5.42'
p3413
tp3414
Rp3415
ag8
(S'5.42'
p3416
tp3417
Rp3418
asg12
(lp3419
g2501
ag2501
asg15
(lp3420
L13876573L
aL13876684L
assL1606027L
(dp3421
g4
S'[Br-].C[N+]1(C)[C@@H]2C[C@@H](C[C@H]1[C@@H]3O[C@H]23)OC(=O)C(O)(c4ccccc4)c5ccccc5'
p3422
sg6
(lp3423
g8
(S'10.20'
p3424
tp3425
Rp3426
asg12
(lp3427
g2501
asg15
(lp3428
L13846943L
assL395660L
(dp3429
g4
S'CN(C)C1(CNCC2CCCCC2)COc3ccccc3OC1'
p3430
sg6
(lp3431
g8
(S'8.31'
p3432
tp3433
Rp3434
asg12
(lp3435
g2501
asg15
(lp3436
L1960489L
assL1606029L
(dp3437
g4
S'[Br-].COC(C(=O)O[C@H]1C[C@@H]2[C@H]3O[C@H]3[C@H](C1)[N+]2(C)C)(c4cccs4)c5cccs5'
p3438
sg6
(lp3439
g8
(S'8.80'
p3440
tp3441
Rp3442
asg12
(lp3443
g2501
asg15
(lp3444
L13846941L
assL395662L
(dp3445
g4
S'CN(C)C1(CNCCC2CCCC2)COc3ccccc3OC1'
p3446
sg6
(lp3447
g8
(S'8.48'
p3448
tp3449
Rp3450
asg12
(lp3451
g2501
asg15
(lp3452
L1960488L
assL395663L
(dp3453
g4
S'CN(C)C1(CNCCC2CCCCC2)COc3ccccc3OC1'
p3454
sg6
(lp3455
g8
(S'8.60'
p3456
tp3457
Rp3458
asg12
(lp3459
g2501
asg15
(lp3460
L1960487L
assL567696L
(dp3461
g4
S'[Br-].O[C@@](C(=O)O[C@H]1C[N+]2(CCCOc3ccccc3)CCC1CC2)(c4ccccc4)c5cccs5'
p3462
sg6
(lp3463
g8
(S'9.32'
p3464
tp3465
Rp3466
asg12
(lp3467
g2501
asg15
(lp3468
L2708949L
assL395665L
(dp3469
g4
S'CN(C)C1(CNCCC23CC4CC(CC(C4)C2)C3)COc5ccccc5OC1'
p3470
sg6
(lp3471
g8
(S'8.82'
p3472
tp3473
Rp3474
asg12
(lp3475
g2501
asg15
(lp3476
L1960485L
assL395666L
(dp3477
g4
S'CN(C)C1(CNCCC2CCOCC2)COc3ccccc3OC1'
p3478
sg6
(lp3479
g8
(S'7.96'
p3480
tp3481
Rp3482
asg12
(lp3483
g2501
asg15
(lp3484
L1960484L
assL395668L
(dp3485
g4
S'CN(C)C1(CNCC=C2CCOCC2)COc3ccccc3OC1'
p3486
sg6
(lp3487
g8
(S'7.85'
p3488
tp3489
Rp3490
asg12
(lp3491
g2501
asg15
(lp3492
L1960483L
assL395669L
(dp3493
g4
S'CN(C)C1(CNCCC2CCSCC2)COc3ccccc3OC1'
p3494
sg6
(lp3495
g8
(S'8.17'
p3496
tp3497
Rp3498
asg12
(lp3499
g2501
asg15
(lp3500
L1960482L
assL395670L
(dp3501
g4
S'CN(C)C1(CNCCC2=CCSCC2)COc3ccccc3OC1'
p3502
sg6
(lp3503
g8
(S'8.24'
p3504
tp3505
Rp3506
asg12
(lp3507
g2501
asg15
(lp3508
L1960481L
assL395672L
(dp3509
g4
S'CN(C)C1(CNCCC2CCC(O)CC2)COc3ccccc3OC1'
p3510
sg6
(lp3511
g8
(S'8.54'
p3512
tp3513
Rp3514
asg12
(lp3515
g2501
asg15
(lp3516
L1960480L
assL364953L
(dp3517
g4
S'COc1nsnc1OCCOCCOCCOCCOc2nsnc2C3=CCCN(C)C3'
p3518
sg6
(lp3519
g8
(S'6.80'
p3520
tp3521
Rp3522
asg12
(lp3523
g2501
asg15
(lp3524
L1797302L
assL395674L
(dp3525
g4
S'CN(C)C1(CNCCC2CCC(CO)CC2)COc3ccccc3OC1'
p3526
sg6
(lp3527
g8
(S'8.68'
p3528
tp3529
Rp3530
asg12
(lp3531
g2501
asg15
(lp3532
L1960479L
assL395675L
(dp3533
g4
S'CN(C)C1(CNCCC2CCOCC2)COc3ccc(F)cc3OC1'
p3534
sg6
(lp3535
g8
(S'8.38'
p3536
tp3537
Rp3538
asg12
(lp3539
g2501
asg15
(lp3540
L1960478L
assL567708L
(dp3541
g4
S'[Br-].OC1(C(=O)O[C@H]2C[N+]3(CCc4ccccc4)CCC2CC3)c5ccccc5c6ccccc16'
p3542
sg6
(lp3543
g8
(S'8.98'
p3544
tp3545
Rp3546
asg12
(lp3547
g2501
asg15
(lp3548
L2708929L
assL567706L
(dp3549
g4
S'OC(C(=O)O[C@H]1CN2CCC1CC2)(c3ccccc3)c4ccccc4'
p3550
sg6
(lp3551
g8
(S'9.05'
p3552
tp3553
Rp3554
asg12
(lp3555
g2501
asg15
(lp3556
L2708923L
assL567710L
(dp3557
g4
S'[Br-].O=C(O[C@H]1C[N+]2(CCc3ccccc3)CCC1CC2)C4c5ccccc5Oc6ccccc46'
p3558
sg6
(lp3559
g8
(S'9.51'
p3560
tp3561
Rp3562
asg12
(lp3563
g2501
asg15
(lp3564
L2708937L
assL633247L
(dp3565
g4
S'CC[C@H]1CNCC[C@@H]1CNC(=O)c2c(F)cccc2c3cccc(Cl)c3'
p3566
sg6
(lp3567
g8
(S'5.00'
p3568
tp3569
Rp3570
asg12
(lp3571
g2501
asg15
(lp3572
L3312827L
assL633248L
(dp3573
g4
S'F[C@@H]1CNCC[C@@H]1CNC(=O)c2c(F)cccc2c3cccc(Cl)c3'
p3574
sg6
(lp3575
g8
(S'5.00'
p3576
tp3577
Rp3578
asg12
(lp3579
g2501
asg15
(lp3580
L3312830L
assL633249L
(dp3581
g4
S'FC1=C(CNC(=O)c2c(F)c(Cl)ccc2c3cccc(Cl)c3)CCNC1'
p3582
sg6
(lp3583
g8
(S'5.00'
p3584
tp3585
Rp3586
asg12
(lp3587
g2501
asg15
(lp3588
L3312833L
assL633250L
(dp3589
g4
S'Fc1cccc(c2cccc(Cl)c2)c1C(=O)NCC3(F)CCNCC3'
p3590
sg6
(lp3591
g8
(S'5.90'
p3592
tp3593
Rp3594
asg12
(lp3595
g2501
asg15
(lp3596
L3312836L
assL567707L
(dp3597
g4
S'O[C@@](C1CCCC1)(C(=O)O[C@H]2CN3CCC2CC3)c4cccs4'
p3598
sg6
(lp3599
g8
(S'9.41'
p3600
tp3601
Rp3602
asg12
(lp3603
g2501
asg15
(lp3604
L2708926L
assL321964L
(dp3605
g4
S'CC(C)N(CC[C@H](c1ccccc1)c2cc(C)ccc2O)C(C)C'
p3606
sg6
(lp3607
g8
(S'8.49'
p3608
tp3609
Rp3610
ag8
(S'8.44'
p3611
tp3612
Rp3613
asg12
(lp3614
g2501
ag2501
asg15
(lp3615
L1666531L
aL2090900L
assL364973L
(dp3616
g4
S'COc1nsc(OCCOCCOCCOCCOc2nsnc2C3C=CCCN3C)n1'
p3617
sg6
(lp3618
g8
(S'6.80'
p3619
tp3620
Rp3621
asg12
(lp3622
g2501
asg15
(lp3623
L1797303L
assL395677L
(dp3624
g4
S'CN(C)C1(CNCCC2CCOCC2)COc3cc(Cl)c(Cl)cc3OC1'
p3625
sg6
(lp3626
g8
(S'9.66'
p3627
tp3628
Rp3629
asg12
(lp3630
g2501
asg15
(lp3631
L1960477L
assL27072L
(dp3632
g4
S'CN(C)CCC=C1c2ccccc2CCc3ccccc13'
p3633
sg6
(lp3634
g8
(S'7.59'
p3635
tp3636
Rp3637
ag8
(S'8.26'
p3638
tp3639
Rp3640
asg12
(lp3641
g2501
ag2501
asg15
(lp3642
L7639162L
aL7639163L
assL86466L
(dp3643
g4
S'OC(CCCN1CCCCC1)(c2ccccc2)c3ccccc3'
p3644
sg6
(lp3645
g8
(S'6.61'
p3646
tp3647
Rp3648
ag8
(S'7.28'
p3649
tp3650
Rp3651
asg12
(lp3652
g2501
ag2501
asg15
(lp3653
L7685717L
aL7685718L
assL371447L
(dp3654
g4
S'O=C1NC(CN1C2CC3CCC(C2)N3Cc4ccccc4)(c5ccccc5)c6ccccc6'
p3655
sg6
(lp3656
g8
(S'8.39'
p3657
tp3658
Rp3659
asg12
(lp3660
g2501
asg15
(lp3661
L1827020L
assL328140L
(dp3662
g4
S'CCCCCCCCc1ccc(O)cc1'
p3663
sg6
(lp3664
g8
(S'5.39'
p3665
tp3666
Rp3667
asg12
(lp3668
g2501
asg15
(lp3669
L7632938L
assL371448L
(dp3670
g4
S'O=C1NC(CN1C2CCCN(Cc3ccccc3)CC2)(c4ccccc4)c5ccccc5'
p3671
sg6
(lp3672
g8
(S'9.02'
p3673
tp3674
Rp3675
asg12
(lp3676
g2501
asg15
(lp3677
L1827019L
assL111060L
(dp3678
g4
S'CC(C)(C)c1ccc(cc1)C(=O)CCCN2CCC(CC2)OC(c3ccccc3)c4ccccc4'
p3679
sg6
(lp3680
g8
(S'6.19'
p3681
tp3682
Rp3683
ag8
(S'6.86'
p3684
tp3685
Rp3686
asg12
(lp3687
g2501
ag2501
asg15
(lp3688
L7647776L
aL7647777L
assL371449L
(dp3689
g4
S'Cc1cccc(CN2CCC(CC2)N3CC(NC3=O)(c4ccccc4)c5ccccc5)c1'
p3690
sg6
(lp3691
g8
(S'8.63'
p3692
tp3693
Rp3694
asg12
(lp3695
g2501
asg15
(lp3696
L1827041L
assL633306L
(dp3697
g4
S'C[C@H]1CNCC[C@]1(F)CNC(=O)c2c(F)cccc2c3cccc(Cl)c3'
p3698
sg6
(lp3699
g8
(S'5.30'
p3700
tp3701
Rp3702
asg12
(lp3703
g2501
asg15
(lp3704
L3312839L
assL486479L
(dp3705
g4
S'CN1CCC[C@@H]1[C@@H]2C[S+]([O-])[C@@](O2)(C3CCCCC3)c4ccccc4'
p3706
sg6
(lp3707
g8
(S'7.37'
p3708
tp3709
Rp3710
ag8
(S'6.71'
p3711
tp3712
Rp3713
asg12
(lp3714
g2501
ag2501
asg15
(lp3715
L2339248L
aL2354431L
assL1385210L
(dp3716
g4
S'O=C(CCNC(=O)CC(c1ccccc1)(c2ccccc2)c3ccccc3)NCCC(=O)NC[C@H]4CCCN(CC5CCCCC5)C4'
p3717
sg6
(lp3718
g8
(S'9.12'
p3719
tp3720
Rp3721
asg12
(lp3722
g2501
asg15
(lp3723
L1209564L
assL486480L
(dp3724
g4
S'CN1CCC[C@H]1[C@H]2C[S+]([O-])[C@](O2)(C3CCCCC3)c4ccccc4'
p3725
sg6
(lp3726
g8
(S'7.74'
p3727
tp3728
Rp3729
ag8
(S'6.41'
p3730
tp3731
Rp3732
asg12
(lp3733
g2501
ag2501
asg15
(lp3734
L2338229L
aL2354430L
assL887889L
(dp3735
g4
S'[Br-].CC(C)[N+]1(C)[C@@H]2CC[C@H]1C[C@H](C2)OC(=O)C(CO)c3ccccc3'
p3736
sg6
(lp3737
g8
(S'8.68'
p3738
tp3739
Rp3740
ag8
(S'9.54'
p3741
tp3742
Rp3743
ag8
(S'9.67'
p3744
tp3745
Rp3746
asg12
(lp3747
g2501
ag2501
ag2501
asg15
(lp3748
L2709741L
aL7844971L
aL7845087L
assL357799L
(dp3749
g4
S'OC(=O)C(F)(F)F.O=C(CC(c1ccccc1)(c2ccccc2)c3ccccc3)N4CCC[C@H]4C(=O)N5CCC[C@@H]5C(=O)NCCC6CCNCC6'
p3750
sg6
(lp3751
g8
(S'7.54'
p3752
tp3753
Rp3754
asg12
(lp3755
g2501
asg15
(lp3756
L1763926L
assL1051118L
(dp3757
g4
S'CN(C)CCC=C1c2ccccc2COc3ccccc13'
p3758
sg6
(lp3759
g8
(S'7.16'
p3760
tp3761
Rp3762
ag8
(S'7.82'
p3763
tp3764
Rp3765
asg12
(lp3766
g2501
ag2501
asg15
(lp3767
L7690153L
aL7690154L
assL6643L
(dp3768
g4
S'Fc1ccc(cc1)[C@@H]2CCNC[C@H]2COc3ccc4OCOc4c3'
p3769
sg6
(lp3770
g8
(S'6.75'
p3771
tp3772
Rp3773
ag8
(S'7.42'
p3774
tp3775
Rp3776
asg12
(lp3777
g2501
ag2501
asg15
(lp3778
L7721250L
aL7721251L
assL299508L
(dp3779
g4
S'C[C@@H]1CCCN1CCc2oc3ccc(cc3c2)C(=O)c4ccc(F)cc4'
p3780
sg6
(lp3781
g8
(S'6.69'
p3782
tp3783
Rp3784
asg12
(lp3785
g2501
asg15
(lp3786
L10888581L
assL1144233L
(dp3787
g4
S'C[C@H](Cc1cccc(CC(=O)NCCCc2ccc(O)c(c2)[C@H](CCN(C(C)C)C(C)C)c3ccccc3)c1)NC[C@H](O)c4cc(O)cc(O)c4'
p3788
sg6
(lp3789
g8
(S'9.40'
p3790
tp3791
Rp3792
asg12
(lp3793
g2501
asg15
(lp3794
L6185843L
assL119288L
(dp3795
g4
S'C(C(C1CCCCC1)C2CCCCC2)C3CCCCN3'
p3796
sg6
(lp3797
g8
(S'5.51'
p3798
tp3799
Rp3800
ag8
(S'6.18'
p3801
tp3802
Rp3803
asg12
(lp3804
g2501
ag2501
asg15
(lp3805
L7732155L
aL7732156L
assL121340L
(dp3806
g4
S'[I-].C[N+]1(C)CCC(CC1)OC(=O)C(c2ccccc2)c3ccccc3'
p3807
sg6
(lp3808
g8
(S'9.17'
p3809
tp3810
Rp3811
ag8
(S'8.59'
p3812
tp3813
Rp3814
ag8
(S'9.23'
p3815
tp3816
Rp3817
ag8
(S'9.38'
p3818
tp3819
Rp3820
ag8
(S'9.30'
p3821
tp3822
Rp3823
ag8
(S'8.72'
p3824
tp3825
Rp3826
ag8
(S'9.37'
p3827
tp3828
Rp3829
ag8
(S'8.60'
p3830
tp3831
Rp3832
ag8
(S'8.29'
p3833
tp3834
Rp3835
ag8
(S'9.40'
p3836
tp3837
Rp3838
ag8
(S'9.25'
p3839
tp3840
Rp3841
asg12
(lp3842
g2501
ag2501
ag2501
ag2501
ag2501
ag2501
ag2501
ag2501
ag2501
ag2501
ag2501
asg15
(lp3843
L1989738L
aL2573333L
aL2381352L
aL2381375L
aL5084363L
aL5166000L
aL13336191L
aL13340303L
aL13340368L
aL13342022L
aL13342094L
assL54702L
(dp3844
g4
S'CCN(CC)CCOC(=O)C(C)(c1ccccc1)c2ccc(O)cc2'
p3845
sg6
(lp3846
g8
(S'7.28'
p3847
tp3848
Rp3849
asg12
(lp3850
g2501
asg15
(lp3851
L13288579L
assL1378840L
(dp3852
g4
S'[Br-].CC[N+](C)(CC)CCOC(=O)C(O)(c1ccccc1)c2ccccc2'
p3853
sg6
(lp3854
g8
(S'8.37'
p3855
tp3856
Rp3857
asg12
(lp3858
g2501
asg15
(lp3859
L13288583L
assL1265524L
(dp3860
g4
S'C[C@@](N1CCCCC1)(C(=O)O[C@H]2C[N+]3(CCOc4ccncc4)CCC2CC3)c5ccccc5'
p3861
sg6
(lp3862
g8
(S'8.30'
p3863
tp3864
Rp3865
asg12
(lp3866
g2501
asg15
(lp3867
L7947379L
assL66311L
(dp3868
g4
S'C(\\C=C\\c1ccccc1)N2CCN(CC2)C(c3ccccc3)c4ccccc4'
p3869
sg6
(lp3870
g8
(S'6.12'
p3871
tp3872
Rp3873
ag8
(S'6.79'
p3874
tp3875
Rp3876
asg12
(lp3877
g2501
ag2501
asg15
(lp3878
L7707980L
aL7707981L
assL27185L
(dp3879
g4
S'CCCCc1oc2ccccc2c1C(=O)c3cc(I)c(OCCN(CC)CC)c(I)c3'
p3880
sg6
(lp3881
g8
(S'5.49'
p3882
tp3883
Rp3884
ag8
(S'6.17'
p3885
tp3886
Rp3887
asg12
(lp3888
g2501
ag2501
asg15
(lp3889
L7633662L
aL7633663L
assL674754L
(dp3890
g4
S'OC(=O)CCC(=O)O.O=C(O[C@H]1CN2CCC1CC2)N3CCc4ccccc4[C@@H]3c5ccccc5'
p3891
sg6
(lp3892
g8
(S'6.88'
p3893
tp3894
Rp3895
asg12
(lp3896
g2501
asg15
(lp3897
L6210492L
assL674357L
(dp3898
g4
S'CN(C)CCOC(c1ccccc1)c2ccccc2.CN3C(=O)N(C)c4nc(Cl)[nH]c4C3=O'
p3899
sg6
(lp3900
g8
(S'6.35'
p3901
tp3902
Rp3903
ag8
(S'7.02'
p3904
tp3905
Rp3906
asg12
(lp3907
g2501
ag2501
asg15
(lp3908
L7707157L
aL7707158L
assL573L
(dp3909
g4
S'CN1CCN2C(C1)c3ccccc3Cc4ccccc24'
p3910
sg6
(lp3911
g8
(S'5.85'
p3912
tp3913
Rp3914
ag8
(S'6.53'
p3915
tp3916
Rp3917
asg12
(lp3918
g2501
ag2501
asg15
(lp3919
L7751959L
aL7751960L
assL135743L
(dp3920
g4
S'CN1C2CCCC1C(C2)OC(=O)c3ccccc3'
p3921
sg6
(lp3922
g8
(S'5.49'
p3923
tp3924
Rp3925
asg12
(lp3926
g2501
asg15
(lp3927
L172112L
assL1559107L
(dp3928
g4
S'CC(C)N(CCOC(=O)C(O)(c1ccccc1)c2ccccc2)C(C)C'
p3929
sg6
(lp3930
g8
(S'7.23'
p3931
tp3932
Rp3933
asg12
(lp3934
g2501
asg15
(lp3935
L13288586L
assL371268L
(dp3936
g4
S'C[N+]1(CC(=O)c2ccccc2)CCC(C1)N3CC(NC3=O)(c4ccccc4)c5ccccc5'
p3937
sg6
(lp3938
g8
(S'8.72'
p3939
tp3940
Rp3941
asg12
(lp3942
g2501
asg15
(lp3943
L1826491L
assL371273L
(dp3944
g4
S'C[N+]1(CC(=O)Nc2ccccc2)CCC(C1)N3CC(NC3=O)(c4ccccc4)c5ccccc5'
p3945
sg6
(lp3946
g8
(S'8.04'
p3947
tp3948
Rp3949
asg12
(lp3950
g2501
asg15
(lp3951
L1826558L
assL371274L
(dp3952
g4
S'C[N+]1(C[C@H]2O[C@@H]2c3ccccc3)CCC(C1)N4CC(NC4=O)(c5ccccc5)c6ccccc6'
p3953
sg6
(lp3954
g8
(S'8.18'
p3955
tp3956
Rp3957
asg12
(lp3958
g2501
asg15
(lp3959
L1826489L
assL223819L
(dp3960
g4
S'Clc1ccc(CSC(Cn2ccnc2)c3ccc(Cl)cc3Cl)cc1'
p3961
sg6
(lp3962
g8
(S'5.47'
p3963
tp3964
Rp3965
ag8
(S'6.14'
p3966
tp3967
Rp3968
asg12
(lp3969
g2501
ag2501
asg15
(lp3970
L7803468L
aL7803469L
assL371280L
(dp3971
g4
S'O=C1NC(CN1C2CC[N+](CCOc3ccccc3)(CC#N)C2)(c4ccccc4)c5ccccc5'
p3972
sg6
(lp3973
g8
(S'6.27'
p3974
tp3975
Rp3976
asg12
(lp3977
g2501
asg15
(lp3978
L1826488L
assL371281L
(dp3979
g4
S'COCC[N+]1(CCOc2ccccc2)CCC(C1)N3CC(NC3=O)(c4ccccc4)c5ccccc5'
p3980
sg6
(lp3981
g8
(S'6.45'
p3982
tp3983
Rp3984
asg12
(lp3985
g2501
asg15
(lp3986
L1826487L
assL358158L
(dp3987
g4
S'O[C@@H]1C[C@H](N(C1)C(=O)CC(c2ccc(Cl)cc2)(c3ccc(Cl)cc3)c4ccc(Cl)cc4)C(=O)N5CCC[C@@H]5C(=O)NCC6CCNCC6'
p3988
sg6
(lp3989
g8
(S'9.41'
p3990
tp3991
Rp3992
asg12
(lp3993
g2501
asg15
(lp3994
L1764003L
assL371287L
(dp3995
g4
S'C[N+]1(CCOc2ccccc2)CC[C@H](C1)N3CC(NC3=O)(c4ccccc4)c5ccccc5'
p3996
sg6
(lp3997
g8
(S'8.98'
p3998
tp3999
Rp4000
asg12
(lp4001
g2501
asg15
(lp4002
L1826486L
assL371288L
(dp4003
g4
S'C[N+]1(CCOc2ccccc2)CC[C@@H](C1)N3CC(NC3=O)(c4ccccc4)c5ccccc5'
p4004
sg6
(lp4005
g8
(S'8.12'
p4006
tp4007
Rp4008
asg12
(lp4009
g2501
asg15
(lp4010
L1826485L
assL371295L
(dp4011
g4
S'C[N+]1(CCc2ccccc2)CC[C@H](C1)N3CC(NC3=O)(c4ccc(F)cc4)c5ccc(F)cc5'
p4012
sg6
(lp4013
g8
(S'9.12'
p4014
tp4015
Rp4016
asg12
(lp4017
g2501
asg15
(lp4018
L1826484L
assL371296L
(dp4019
g4
S'C[N+]1(CC(=O)c2ccccc2)CC[C@H](C1)N3CC(NC3=O)(c4ccc(F)cc4)c5ccc(F)cc5'
p4020
sg6
(lp4021
g8
(S'8.74'
p4022
tp4023
Rp4024
asg12
(lp4025
g2501
asg15
(lp4026
L1826483L
assL1604710L
(dp4027
g4
S'Cn1ccc(CCC[N+]23CCC(CC2)[C@H](C3)OC(=O)C4(CCCCCC4)C5=CC=CC5)n1'
p4028
sg6
(lp4029
g8
(S'9.30'
p4030
tp4031
Rp4032
asg12
(lp4033
g2501
asg15
(lp4034
L13833270L
assL371302L
(dp4035
g4
S'C[N+]1(CC(=O)c2cccc(F)c2)CC[C@H](C1)N3CC(NC3=O)(c4ccc(F)cc4)c5ccc(F)cc5'
p4036
sg6
(lp4037
g8
(S'8.52'
p4038
tp4039
Rp4040
asg12
(lp4041
g2501
asg15
(lp4042
L1826482L
assL371303L
(dp4043
g4
S'C[N+]1(CC(=O)c2ccsc2)CC[C@H](C1)N3CC(NC3=O)(c4ccc(F)cc4)c5ccc(F)cc5'
p4044
sg6
(lp4045
g8
(S'8.79'
p4046
tp4047
Rp4048
asg12
(lp4049
g2501
asg15
(lp4050
L1826511L
assL565867L
(dp4051
g4
S'[Br-].CC1(C(=O)O[C@H]2C[N+]3(CCCOc4ccccc4)CCC2CC3)c5ccccc5Oc6ccccc16'
p4052
sg6
(lp4053
g8
(S'9.62'
p4054
tp4055
Rp4056
asg12
(lp4057
g2501
asg15
(lp4058
L2708943L
assL565868L
(dp4059
g4
S'[Br-].O[C@](C(=O)O[C@H]1C[N+]2(CCCOc3ccccc3)CCC1CC2)(c4ccccc4)c5cccs5'
p4060
sg6
(lp4061
g8
(S'9.60'
p4062
tp4063
Rp4064
asg12
(lp4065
g2501
asg15
(lp4066
L2708948L
assL371309L
(dp4067
g4
S'C[N+]1(CC(=O)c2cccnc2)CC[C@H](C1)N3CC(NC3=O)(c4ccc(F)cc4)c5ccc(F)cc5'
p4068
sg6
(lp4069
g8
(S'7.64'
p4070
tp4071
Rp4072
asg12
(lp4073
g2501
asg15
(lp4074
L1826510L
assL371310L
(dp4075
g4
S'C[N+]1(CC(=O)c2ccccn2)CC[C@H](C1)N3CC(NC3=O)(c4ccc(F)cc4)c5ccc(F)cc5'
p4076
sg6
(lp4077
g8
(S'8.58'
p4078
tp4079
Rp4080
asg12
(lp4081
g2501
asg15
(lp4082
L1826509L
assL1147503L
(dp4083
g4
S'O=C(O[C@H]1CN2CCC1CC2)N(Cc3ccsc3)c4ccccc4'
p4084
sg6
(lp4085
g8
(S'9.00'
p4086
tp4087
Rp4088
asg12
(lp4089
g2501
asg15
(lp4090
L6210479L
assL1147504L
(dp4091
g4
S'CCCN(C(=O)O[C@H]1CN2CCC1CC2)c3ccccc3'
p4092
sg6
(lp4093
g8
(S'7.15'
p4094
tp4095
Rp4096
asg12
(lp4097
g2501
asg15
(lp4098
L6210480L
assL1147505L
(dp4099
g4
S'CCCCN(C(=O)O[C@H]1CN2CCC1CC2)c3ccccc3'
p4100
sg6
(lp4101
g8
(S'8.37'
p4102
tp4103
Rp4104
asg12
(lp4105
g2501
asg15
(lp4106
L6210481L
assL1147506L
(dp4107
g4
S'CCCCCN(C(=O)O[C@H]1CN2CCC1CC2)c3ccccc3'
p4108
sg6
(lp4109
g8
(S'8.77'
p4110
tp4111
Rp4112
asg12
(lp4113
g2501
asg15
(lp4114
L6210482L
assL371315L
(dp4115
g4
S'C[N+]1(Cc2ccccc2)CCC(CC1)N3CC(NC3=O)(c4ccccc4)c5ccccc5'
p4116
sg6
(lp4117
g8
(S'6.21'
p4118
tp4119
Rp4120
asg12
(lp4121
g2501
asg15
(lp4122
L1826323L
assL6772L
(dp4123
g4
S'CN1CCN(CC(=O)N2c3ccccc3C(=O)Nc4cccnc24)CC1'
p4124
sg6
(lp4125
g8
(S'7.32'
p4126
tp4127
Rp4128
ag8
(S'6.70'
p4129
tp4130
Rp4131
ag8
(S'6.80'
p4132
tp4133
Rp4134
asg12
(lp4135
g2501
ag2501
ag2501
asg15
(lp4136
L2557051L
aL5084354L
aL12629833L
assL1147509L
(dp4137
g4
S'O=C(O[C@H]1CN2CCC1CC2)N(Cc3cccs3)Cc4cccs4'
p4138
sg6
(lp4139
g8
(S'8.23'
p4140
tp4141
Rp4142
asg12
(lp4143
g2501
asg15
(lp4144
L6210485L
assL1147510L
(dp4145
g4
S'CCCCN(Cc1cccs1)C(=O)O[C@H]2CN3CCC2CC3'
p4146
sg6
(lp4147
g8
(S'7.75'
p4148
tp4149
Rp4150
asg12
(lp4151
g2501
asg15
(lp4152
L6210486L
assL1147511L
(dp4153
g4
S'Cc1ccc(cc1)N(Cc2ccccc2)C(=O)O[C@H]3CN4CCC3CC4'
p4154
sg6
(lp4155
g8
(S'7.13'
p4156
tp4157
Rp4158
asg12
(lp4159
g2501
asg15
(lp4160
L6210487L
assL565880L
(dp4161
g4
S'O[C@](C(=O)O[C@H]1CN2CCC1CC2)(c3ccccc3)c4cccs4'
p4162
sg6
(lp4163
g8
(S'9.51'
p4164
tp4165
Rp4166
asg12
(lp4167
g2501
asg15
(lp4168
L2708924L
assL371321L
(dp4169
g4
S'C[N+]1(C)CCC(CC1)N2CC(NC2=O)(c3ccccc3)c4ccccc4'
p4170
sg6
(lp4171
g8
(S'6.60'
p4172
tp4173
Rp4174
asg12
(lp4175
g2501
asg15
(lp4176
L1826508L
assL371322L
(dp4177
g4
S'C[N+]1(Cc2ccccc2)C3CCC1CC(C3)N4CC(NC4=O)(c5ccccc5)c6ccccc6'
p4178
sg6
(lp4179
g8
(S'5.60'
p4180
tp4181
Rp4182
asg12
(lp4183
g2501
asg15
(lp4184
L1826507L
assL1147515L
(dp4185
g4
S'Fc1cccc(c1)N(Cc2cc(F)c(F)c(F)c2)C(=O)O[C@H]3CN4CCC3CC4'
p4186
sg6
(lp4187
g8
(S'8.82'
p4188
tp4189
Rp4190
asg12
(lp4191
g2501
asg15
(lp4192
L6210491L
assL565884L
(dp4193
g4
S'[Br-].OC(C(=O)O[C@H]1C[N+]2(Cc3ccccc3)CCC1CC2)(c4cccs4)c5cccs5'
p4194
sg6
(lp4195
g8
(S'6.70'
p4196
tp4197
Rp4198
asg12
(lp4199
g2501
asg15
(lp4200
L2708933L
assL1147517L
(dp4201
g4
S'[Br-].O=C(O[C@H]1C[N+]2(CCc3ccccc3)CCC1CC2)N(Cc4ccccc4)c5ccccc5'
p4202
sg6
(lp4203
g8
(S'7.75'
p4204
tp4205
Rp4206
asg12
(lp4207
g2501
asg15
(lp4208
L6210574L
assL1147518L
(dp4209
g4
S'[Br-].O=C(O[C@H]1C[N+]2(CCCc3ccccc3)CCC1CC2)N(Cc4ccccc4)c5ccccc5'
p4210
sg6
(lp4211
g8
(S'9.52'
p4212
tp4213
Rp4214
asg12
(lp4215
g2501
asg15
(lp4216
L6210575L
assL242303L
(dp4217
g4
S'Clc1ccc(CO\\N=C(/Cn2ccnc2)\\c3ccc(Cl)cc3Cl)c(Cl)c1'
p4218
sg6
(lp4219
g8
(S'5.34'
p4220
tp4221
Rp4222
ag8
(S'6.02'
p4223
tp4224
Rp4225
asg12
(lp4226
g2501
ag2501
asg15
(lp4227
L7740331L
aL7740332L
assL565888L
(dp4228
g4
S'[Br-].O[C@@](C1CCCC1)(C(=O)O[C@H]2C[N+]3(CCCOc4ccccc4)CCC2CC3)c5cccs5'
p4229
sg6
(lp4230
g8
(S'9.74'
p4231
tp4232
Rp4233
asg12
(lp4234
g2501
asg15
(lp4235
L2708941L
assL371330L
(dp4236
g4
S'C[N+]1(C)C2CCC1CC(C2)N3CC(NC3=O)(c4ccccc4)c5ccccc5'
p4237
sg6
(lp4238
g8
(S'6.82'
p4239
tp4240
Rp4241
asg12
(lp4242
g2501
asg15
(lp4243
L1826506L
assL371331L
(dp4244
g4
S'C[N+]1(Cc2ccccc2)CCC(C1)N3CC(NC3=O)(c4ccccc4)c5ccccc5'
p4245
sg6
(lp4246
g8
(S'6.14'
p4247
tp4248
Rp4249
asg12
(lp4250
g2501
asg15
(lp4251
L1826505L
assL135812L
(dp4252
g4
S'CN1C2CCCC1C(C2)OC(=O)OCC(Cl)(Cl)Cl'
p4253
sg6
(lp4254
g8
(S'5.17'
p4255
tp4256
Rp4257
asg12
(lp4258
g2501
asg15
(lp4259
L181856L
assL135813L
(dp4260
g4
S'CN1C2CCCC1C(C2)OC(=O)C3CCCCC3'
p4261
sg6
(lp4262
g8
(S'5.52'
p4263
tp4264
Rp4265
asg12
(lp4266
g2501
asg15
(lp4267
L148930L
assL371338L
(dp4268
g4
S'C[N+]1(C)CCC(C1)N2CC(NC2=O)(c3ccccc3)c4ccccc4'
p4269
sg6
(lp4270
g8
(S'6.51'
p4271
tp4272
Rp4273
asg12
(lp4274
g2501
asg15
(lp4275
L1826504L
assL371339L
(dp4276
g4
S'C[N+]1(Cc2ccccc2)CC[C@H](C1)N3CC(NC3=O)(c4ccccc4)c5ccccc5'
p4277
sg6
(lp4278
g8
(S'6.55'
p4279
tp4280
Rp4281
asg12
(lp4282
g2501
asg15
(lp4283
L1826503L
assL371346L
(dp4284
g4
S'C[N+]1(Cc2ccccc2)CC[C@@H](C1)N3CC(NC3=O)(c4ccccc4)c5ccccc5'
p4285
sg6
(lp4286
g8
(S'5.50'
p4287
tp4288
Rp4289
asg12
(lp4290
g2501
asg15
(lp4291
L1826502L
assL371347L
(dp4292
g4
S'C[N+](C)(CCN1CC(NC1=O)(c2ccccc2)c3ccccc3)Cc4ccccc4'
p4293
sg6
(lp4294
g8
(S'6.29'
p4295
tp4296
Rp4297
asg12
(lp4298
g2501
asg15
(lp4299
L1826501L
assL1178393L
(dp4300
g4
S'CCN\\C(=N/S(=O)(=O)c1cccc(Cl)c1)\\N2CC3(CCNCC3)C=N2'
p4301
sg6
(lp4302
g8
(S'5.00'
p4303
tp4304
Rp4305
asg12
(lp4306
g2501
asg15
(lp4307
L6379529L
assL371353L
(dp4308
g4
S'C[N+](C)(C)CCN1CC(NC1=O)(c2ccccc2)c3ccccc3'
p4309
sg6
(lp4310
g8
(S'6.47'
p4311
tp4312
Rp4313
asg12
(lp4314
g2501
asg15
(lp4315
L1826500L
assL1604719L
(dp4316
g4
S'O=C(C[N+]12CCC(CC1)[C@H](C2)OC(=O)C3(CCCCCC3)C4=CC=CC4)Nc5nncs5'
p4317
sg6
(lp4318
g8
(S'8.10'
p4319
tp4320
Rp4321
asg12
(lp4322
g2501
asg15
(lp4323
L13833261L
assL12957L
(dp4324
g4
S'CN1CCC(=C2c3ccccc3CC(=O)c4sccc24)CC1'
p4325
sg6
(lp4326
g8
(S'5.66'
p4327
tp4328
Rp4329
ag8
(S'6.33'
p4330
tp4331
Rp4332
asg12
(lp4333
g2501
ag2501
asg15
(lp4334
L7748456L
aL7748457L
assL707231L
(dp4335
g4
S'CCCCN1CCC(COC(=O)c2cc(Cl)c(NC)c3OCCOc23)CC1'
p4336
sg6
(lp4337
g8
(S'6.08'
p4338
tp4339
Rp4340
asg12
(lp4341
g2501
asg15
(lp4342
L3502788L
assL371360L
(dp4343
g4
S'C[N+](C)(C)CCCN1CC(NC1=O)(c2ccccc2)c3ccccc3'
p4344
sg6
(lp4345
g8
(S'5.69'
p4346
tp4347
Rp4348
asg12
(lp4349
g2501
asg15
(lp4350
L1826498L
assL371361L
(dp4351
g4
S'[Br-].C[N+]1(CCc2ccccc2)CCC(C1)N3CC(NC3=O)(c4ccccc4)c5ccccc5'
p4352
sg6
(lp4353
g8
(S'9.17'
p4354
tp4355
Rp4356
asg12
(lp4357
g2501
asg15
(lp4358
L1826497L
assL1604721L
(dp4359
g4
S'O=C(C[N+]12CCC(CC1)[C@H](C2)OC(=O)C3(CCCCCC3)C4=CC=CC4)Nc5occn5'
p4360
sg6
(lp4361
g8
(S'7.90'
p4362
tp4363
Rp4364
asg12
(lp4365
g2501
asg15
(lp4366
L13833259L
assL371369L
(dp4367
g4
S'C[N+]1(CCCc2ccccc2)CCC(C1)N3CC(NC3=O)(c4ccccc4)c5ccccc5'
p4368
sg6
(lp4369
g8
(S'9.15'
p4370
tp4371
Rp4372
asg12
(lp4373
g2501
asg15
(lp4374
L1826496L
assL371370L
(dp4375
g4
S'C[N+]1(CCOc2ccccc2)CCC(C1)N3CC(NC3=O)(c4ccccc4)c5ccccc5'
p4376
sg6
(lp4377
g8
(S'8.72'
p4378
tp4379
Rp4380
asg12
(lp4381
g2501
asg15
(lp4382
L1826495L
assL371378L
(dp4383
g4
S'C[N+]1(CCOCc2ccccc2)CCC(C1)N3CC(NC3=O)(c4ccccc4)c5ccccc5'
p4384
sg6
(lp4385
g8
(S'8.17'
p4386
tp4387
Rp4388
asg12
(lp4389
g2501
asg15
(lp4390
L1826494L
assL371379L
(dp4391
g4
S'C[N+]1(CCCOc2ccccc2)CCC(C1)N3CC(NC3=O)(c4ccccc4)c5ccccc5'
p4392
sg6
(lp4393
g8
(S'8.75'
p4394
tp4395
Rp4396
asg12
(lp4397
g2501
asg15
(lp4398
L1826493L
assL371387L
(dp4399
g4
S'Fc1cccc(CN2CCC(CC2)N3CC(NC3=O)(c4cccs4)c5cccs5)c1'
p4400
sg6
(lp4401
g8
(S'8.56'
p4402
tp4403
Rp4404
asg12
(lp4405
g2501
asg15
(lp4406
L1827030L
assL1559230L
(dp4407
g4
S'[I-].CC[N+](CC)(CC)CCOC(=O)C(c1ccccc1)c2ccccc2'
p4408
sg6
(lp4409
g8
(S'9.27'
p4410
tp4411
Rp4412
asg12
(lp4413
g2501
asg15
(lp4414
L13288577L
assL1559231L
(dp4415
g4
S'[Br-].C[N+](C)(C)CCOC(=O)C(c1ccccc1)c2ccccc2'
p4416
sg6
(lp4417
g8
(S'6.42'
p4418
tp4419
Rp4420
asg12
(lp4421
g2501
asg15
(lp4422
L13288592L
assL1559232L
(dp4423
g4
S'[Br-].CC[N+](C)(CC)CCOC(=O)C(c1ccccc1)c2ccccc2'
p4424
sg6
(lp4425
g8
(S'6.57'
p4426
tp4427
Rp4428
asg12
(lp4429
g2501
asg15
(lp4430
L13288591L
assL371394L
(dp4431
g4
S'O=C1NC(CN1C2CCN(CCc3ccccc3)CC2)(c4ccccc4)c5ccccc5'
p4432
sg6
(lp4433
g8
(S'6.93'
p4434
tp4435
Rp4436
asg12
(lp4437
g2501
asg15
(lp4438
L1827054L
assL371395L
(dp4439
g4
S'O=C1NC(CN1C2CCN(CCCc3ccccc3)CC2)(c4ccccc4)c5ccccc5'
p4440
sg6
(lp4441
g8
(S'5.79'
p4442
tp4443
Rp4444
asg12
(lp4445
g2501
asg15
(lp4446
L1827053L
assL1559239L
(dp4447
g4
S'CC[C@H](C)C(C(=O)OCCCN(CC)CC)c1ccccc1'
p4448
sg6
(lp4449
g8
(S'8.22'
p4450
tp4451
Rp4452
asg12
(lp4453
g2501
asg15
(lp4454
L13288587L
assL371400L
(dp4455
g4
S'O=C1NC(CN1C2CCN(CCOc3ccccc3)CC2)(c4ccccc4)c5ccccc5'
p4456
sg6
(lp4457
g8
(S'6.64'
p4458
tp4459
Rp4460
asg12
(lp4461
g2501
asg15
(lp4462
L1827052L
assL371401L
(dp4463
g4
S'O=C1NC(CN1C2CCN(Cc3cccnc3)CC2)(c4ccccc4)c5ccccc5'
p4464
sg6
(lp4465
g8
(S'5.95'
p4466
tp4467
Rp4468
asg12
(lp4469
g2501
asg15
(lp4470
L1827051L
assL371404L
(dp4471
g4
S'O=C1NC(CN1C2CCN(Cc3cccs3)CC2)(c4ccccc4)c5ccccc5'
p4472
sg6
(lp4473
g8
(S'7.87'
p4474
tp4475
Rp4476
asg12
(lp4477
g2501
asg15
(lp4478
L1827050L
assL371405L
(dp4479
g4
S'O=C1NC(CN1C2CCN(Cc3c[nH]cn3)CC2)(c4ccccc4)c5ccccc5'
p4480
sg6
(lp4481
g8
(S'5.98'
p4482
tp4483
Rp4484
asg12
(lp4485
g2501
asg15
(lp4486
L1827049L
assL1147598L
(dp4487
g4
S'[Br-].O=C(O[C@H]1C[N+]2(CCOc3ccccc3)CCC1CC2)N(Cc4ccccc4)c5ccccc5'
p4488
sg6
(lp4489
g8
(S'9.00'
p4490
tp4491
Rp4492
asg12
(lp4493
g2501
asg15
(lp4494
L6210577L
assL1147599L
(dp4495
g4
S'[Br-].C[N+]12CCC(CC1)[C@H](C2)OC(=O)N(Cc3cccs3)c4ccccc4'
p4496
sg6
(lp4497
g8
(S'7.73'
p4498
tp4499
Rp4500
asg12
(lp4501
g2501
asg15
(lp4502
L6210578L
assL1147600L
(dp4503
g4
S'[Br-].O=C(O[C@H]1C[N+]2(CCCc3cccs3)CCC1CC2)N(Cc4cccs4)c5ccccc5'
p4504
sg6
(lp4505
g8
(S'9.30'
p4506
tp4507
Rp4508
asg12
(lp4509
g2501
asg15
(lp4510
L6210579L
assL371409L
(dp4511
g4
S'Clc1ccccc1CN2CCC(CC2)N3CC(NC3=O)(c4ccccc4)c5ccccc5'
p4512
sg6
(lp4513
g8
(S'7.86'
p4514
tp4515
Rp4516
asg12
(lp4517
g2501
asg15
(lp4518
L1827048L
assL371410L
(dp4519
g4
S'Clc1cccc(CN2CCC(CC2)N3CC(NC3=O)(c4ccccc4)c5ccccc5)c1'
p4520
sg6
(lp4521
g8
(S'8.50'
p4522
tp4523
Rp4524
asg12
(lp4525
g2501
asg15
(lp4526
L1827047L
assL1147603L
(dp4527
g4
S'[Br-].O=C(O[C@H]1C[N+]2(CCOc3ccccc3)CCC1CC2)N(Cc4ccsc4)c5ccccc5'
p4528
sg6
(lp4529
g8
(S'9.70'
p4530
tp4531
Rp4532
asg12
(lp4533
g2501
asg15
(lp4534
L6210582L
assL1147604L
(dp4535
g4
S'[Br-].CCCCN(C(=O)O[C@H]1C[N+]2(CCc3ccccc3)CCC1CC2)c4ccccc4'
p4536
sg6
(lp4537
g8
(S'7.72'
p4538
tp4539
Rp4540
asg12
(lp4541
g2501
asg15
(lp4542
L6210583L
assL371413L
(dp4543
g4
S'O=C1NC(C(=O)N1C2CCN(Cc3ccccc3)CC2)(c4ccccc4)c5ccccc5'
p4544
sg6
(lp4545
g8
(S'5.66'
p4546
tp4547
Rp4548
asg12
(lp4549
g2501
asg15
(lp4550
L1827001L
assL371414L
(dp4551
g4
S'O=C1NC(CN1C2CCN(Cc3ccccc3)CC2)(c4ccccc4)c5ccccc5'
p4552
sg6
(lp4553
g8
(S'8.72'
p4554
tp4555
Rp4556
asg12
(lp4557
g2501
asg15
(lp4558
L1827006L
assL1147607L
(dp4559
g4
S'[Br-].CCCCN(C(=O)O[C@H]1C[N+]2(CCOc3ccccc3)CCC1CC2)c4ccccc4'
p4560
sg6
(lp4561
g8
(S'9.10'
p4562
tp4563
Rp4564
asg12
(lp4565
g2501
asg15
(lp4566
L6210586L
assL1147608L
(dp4567
g4
S'[Br-].Cc1cccc(c1)N(Cc2cc(F)c(F)cc2F)C(=O)O[C@H]3C[N+]4(CCCc5ccccc5)CCC3CC4'
p4568
sg6
(lp4569
g8
(S'9.05'
p4570
tp4571
Rp4572
asg12
(lp4573
g2501
asg15
(lp4574
L6210587L
assL1147609L
(dp4575
g4
S'[Br-].Cc1cccc(c1)N(Cc2cc(F)c(F)cc2F)C(=O)O[C@H]3C[N+]4(CCOc5ccccc5)CCC3CC4'
p4576
sg6
(lp4577
g8
(S'8.92'
p4578
tp4579
Rp4580
asg12
(lp4581
g2501
asg15
(lp4582
L6210588L
assL1147610L
(dp4583
g4
S'[Br-].Fc1cccc(c1)N(Cc2cc(F)c(F)c(F)c2)C(=O)O[C@H]3C[N+]4(CCOc5ccccc5)CCC3CC4'
p4584
sg6
(lp4585
g8
(S'9.22'
p4586
tp4587
Rp4588
asg12
(lp4589
g2501
asg15
(lp4590
L6210589L
assL715483L
(dp4591
g4
S'Clc1ccc(CN2CCC3(CC2)CN(CCO3)C(=O)c4occc4)cc1'
p4592
sg6
(lp4593
g8
(S'7.20'
p4594
tp4595
Rp4596
asg12
(lp4597
g2501
asg15
(lp4598
L3591695L
assL715484L
(dp4599
g4
S'Clc1ccc(CN2CCC3(CC2)CN(CCO3)C(=O)c4cccs4)cc1'
p4600
sg6
(lp4601
g8
(S'7.20'
p4602
tp4603
Rp4604
asg12
(lp4605
g2501
asg15
(lp4606
L3591696L
assL1604842L
(dp4607
g4
S'O=C(C[N+]12CCC(CC1)[C@H](C2)OC(=O)C3(CCCCCC3)C4=CC=CC4)Nc5ccncc5'
p4608
sg6
(lp4609
g8
(S'8.60'
p4610
tp4611
Rp4612
asg12
(lp4613
g2501
asg15
(lp4614
L13833254L
assL371427L
(dp4615
g4
S'Clc1ccc(CN2CCC(CC2)N3CC(NC3=O)(c4ccccc4)c5ccccc5)cc1'
p4616
sg6
(lp4617
g8
(S'7.78'
p4618
tp4619
Rp4620
asg12
(lp4621
g2501
asg15
(lp4622
L1827046L
assL371432L
(dp4623
g4
S'CN1C(=O)N(CC1(c2ccccc2)c3ccccc3)C4CCN(Cc5ccccc5)CC4'
p4624
sg6
(lp4625
g8
(S'7.73'
p4626
tp4627
Rp4628
asg12
(lp4629
g2501
asg15
(lp4630
L1827005L
assL371433L
(dp4631
g4
S'O=C1OC(CN1C2CCN(Cc3ccccc3)CC2)(c4ccccc4)c5ccccc5'
p4632
sg6
(lp4633
g8
(S'7.77'
p4634
tp4635
Rp4636
asg12
(lp4637
g2501
asg15
(lp4638
L1827004L
assL371434L
(dp4639
g4
S'COc1ccccc1CN2CCC(CC2)N3CC(NC3=O)(c4ccccc4)c5ccccc5'
p4640
sg6
(lp4641
g8
(S'7.08'
p4642
tp4643
Rp4644
asg12
(lp4645
g2501
asg15
(lp4646
L1827045L
assL371435L
(dp4647
g4
S'COc1cccc(CN2CCC(CC2)N3CC(NC3=O)(c4ccccc4)c5ccccc5)c1'
p4648
sg6
(lp4649
g8
(S'8.06'
p4650
tp4651
Rp4652
asg12
(lp4653
g2501
asg15
(lp4654
L1827044L
assL371439L
(dp4655
g4
S'O=C1N(Cc2ccccc2)C(CN1C3CCN(Cc4ccccc4)CC3)c5ccccc5'
p4656
sg6
(lp4657
g8
(S'7.57'
p4658
tp4659
Rp4660
asg12
(lp4661
g2501
asg15
(lp4662
L1827003L
assL371440L
(dp4663
g4
S'O=C1NC(CN1C2CCCN(Cc3ccccc3)C2)(c4ccccc4)c5ccccc5'
p4664
sg6
(lp4665
g8
(S'5.61'
p4666
tp4667
Rp4668
asg12
(lp4669
g2501
asg15
(lp4670
L1827021L
assL371441L
(dp4671
g4
S'COc1ccc(CN2CCC(CC2)N3CC(NC3=O)(c4ccccc4)c5ccccc5)cc1'
p4672
sg6
(lp4673
g8
(S'7.59'
p4674
tp4675
Rp4676
asg12
(lp4677
g2501
asg15
(lp4678
L1827043L
assL371442L
(dp4679
g4
S'Oc1cccc(CN2CCC(CC2)N3CC(NC3=O)(c4ccccc4)c5ccccc5)c1'
p4680
sg6
(lp4681
g8
(S'8.12'
p4682
tp4683
Rp4684
asg12
(lp4685
g2501
asg15
(lp4686
L1827042L
assL1385206L
(dp4687
g4
S'O=C(CCNC(=O)CNC(=O)CC(c1ccccc1)(c2ccccc2)c3ccccc3)NC[C@H]4CCCN(CC5CCCCC5)C4'
p4688
sg6
(lp4689
g8
(S'9.51'
p4690
tp4691
Rp4692
asg12
(lp4693
g2501
asg15
(lp4694
L1190149L
assL1385207L
(dp4695
g4
S'O=C(CCCCCNC(=O)CC(c1ccccc1)(c2ccccc2)c3ccccc3)NC[C@H]4CCCN(CC5CCCCC5)C4'
p4696
sg6
(lp4697
g8
(S'9.00'
p4698
tp4699
Rp4700
asg12
(lp4701
g2501
asg15
(lp4702
L1197663L
assL1385208L
(dp4703
g4
S'O=C(CC(c1ccccc1)(c2ccccc2)c3ccccc3)N4CCC[C@H]4C(=O)N5CCC[C@@H]5C(=O)NC[C@H]6CCCN(CC7CCCCC7)C6'
p4704
sg6
(lp4705
g8
(S'9.60'
p4706
tp4707
Rp4708
asg12
(lp4709
g2501
asg15
(lp4710
L1191340L
assL1385209L
(dp4711
g4
S'O=C(CCNC(=O)[C@@H]1CCCN1C(=O)CC(c2ccccc2)(c3ccccc3)c4ccccc4)NC[C@H]5CCCN(CC6CCCCC6)C5'
p4712
sg6
(lp4713
g8
(S'9.33'
p4714
tp4715
Rp4716
asg12
(lp4717
g2501
asg15
(lp4718
L1221431L
assL371450L
(dp4719
g4
S'Nc1cccc(CN2CCC(CC2)N3CC(NC3=O)(c4ccccc4)c5ccccc5)c1'
p4720
sg6
(lp4721
g8
(S'8.10'
p4722
tp4723
Rp4724
asg12
(lp4725
g2501
asg15
(lp4726
L1827040L
assL674555L
(dp4727
g4
S'CCN(Cc1ccncc1)C(=O)C(CO)c2ccccc2'
p4728
sg6
(lp4729
g8
(S'6.85'
p4730
tp4731
Rp4732
ag8
(S'7.52'
p4733
tp4734
Rp4735
asg12
(lp4736
g2501
ag2501
asg15
(lp4737
L7793576L
aL7793577L
assL1385212L
(dp4738
g4
S'O=C(CNC(=O)[C@@H]1CCCN1C(=O)CC(c2ccccc2)(c3ccccc3)c4ccccc4)NC[C@H]5CCCN(CC6CCCCC6)C5'
p4739
sg6
(lp4740
g8
(S'8.66'
p4741
tp4742
Rp4743
asg12
(lp4744
g2501
asg15
(lp4745
L1193792L
assL11005L
(dp4746
g4
S'CN1CCC(=C2c3ccccc3C=Cc4ccccc24)CC1'
p4747
sg6
(lp4748
g8
(S'7.34'
p4749
tp4750
Rp4751
ag8
(S'8.02'
p4752
tp4753
Rp4754
asg12
(lp4755
g2501
ag2501
asg15
(lp4756
L7710839L
aL7710840L
assL371454L
(dp4757
g4
S'O=C1NC(CN1[C@@H]2CCN(Cc3ccccc3)C2)(c4ccccc4)c5ccccc5'
p4758
sg6
(lp4759
g8
(S'7.88'
p4760
tp4761
Rp4762
asg12
(lp4763
g2501
asg15
(lp4764
L1827018L
assL371455L
(dp4765
g4
S'O=C1NC(CN1[C@H]2CCN(Cc3ccccc3)C2)(c4ccccc4)c5ccccc5'
p4766
sg6
(lp4767
g8
(S'7.09'
p4768
tp4769
Rp4770
asg12
(lp4771
g2501
asg15
(lp4772
L1827017L
assL371456L
(dp4773
g4
S'FC(F)(F)Oc1cccc(CN2CCC(CC2)N3CC(NC3=O)(c4ccccc4)c5ccccc5)c1'
p4774
sg6
(lp4775
g8
(S'5.69'
p4776
tp4777
Rp4778
asg12
(lp4779
g2501
asg15
(lp4780
L1827039L
assL371457L
(dp4781
g4
S'O=C1NC(CN1C2CCN(Cc3cccc(c3)C#N)CC2)(c4ccccc4)c5ccccc5'
p4782
sg6
(lp4783
g8
(S'6.38'
p4784
tp4785
Rp4786
asg12
(lp4787
g2501
asg15
(lp4788
L1827038L
assL469763L
(dp4789
g4
S'CN1CCC[C@@H]1CCO[C@](C)(c2ccccc2)c3ccc(Cl)cc3'
p4790
sg6
(lp4791
g8
(S'7.41'
p4792
tp4793
Rp4794
ag8
(S'8.08'
p4795
tp4796
Rp4797
asg12
(lp4798
g2501
ag2501
asg15
(lp4799
L7680288L
aL7680289L
assL371460L
(dp4800
g4
S'Fc1ccc(cc1)C2(CN(C3CCN(Cc4ccccc4)CC3)C(=O)N2)c5ccc(F)cc5'
p4801
sg6
(lp4802
g8
(S'8.55'
p4803
tp4804
Rp4805
asg12
(lp4806
g2501
asg15
(lp4807
L1827062L
assL371461L
(dp4808
g4
S'COc1ccc(cc1)C2(CN(C3CCN(Cc4ccccc4)CC3)C(=O)N2)c5ccc(OC)cc5'
p4809
sg6
(lp4810
g8
(S'6.94'
p4811
tp4812
Rp4813
asg12
(lp4814
g2501
asg15
(lp4815
L1827061L
assL568070L
(dp4816
g4
S'C[C@@H](c1ccccn1)c2c(CCN(C)C)oc3ccccc23'
p4817
sg6
(lp4818
g8
(S'7.12'
p4819
tp4820
Rp4821
asg12
(lp4822
g2501
asg15
(lp4823
L2703859L
assL371463L
(dp4824
g4
S'FC(F)(F)c1cccc(CN2CCC(CC2)N3CC(NC3=O)(c4ccccc4)c5ccccc5)c1'
p4825
sg6
(lp4826
g8
(S'7.27'
p4827
tp4828
Rp4829
asg12
(lp4830
g2501
asg15
(lp4831
L1827037L
assL494347L
(dp4832
g4
S'CC(=O)N1CCCC(C1)(C2CCN(Cc3ccc(Br)cc3)CC2)c4ccccc4'
p4833
sg6
(lp4834
g8
(S'5.52'
p4835
tp4836
Rp4837
asg12
(lp4838
g2501
asg15
(lp4839
L2252074L
assL674584L
(dp4840
g4
S'CC[C@H](C)[C@H]1O[C@]2(CC[C@@H]1C)C[C@@H]3C[C@@H](C\\C=C(/C)\\[C@@H](O[C@H]4C[C@H](OC)[C@@H](O[C@H]5C[C@H](OC)[C@@H](O)[C@H](C)O5)[C@H](C)O4)[C@@H](C)\\C=C\\C=C\\6/CO[C@@H]7[C@H](O)C(=C[C@@H](C(=O)O3)[C@]67O)C)O2.CO[C@H]8C[C@H](O[C@H]9[C@H](C)O[C@H](C[C@@H]9OC)O[C@H]%10[C@@H](C)\\C=C\\C=C\\%11/CO[C@@H]%12[C@H](O)C(=C[C@@H](C(=O)O[C@H]%13C[C@@H](C\\C=C\\%10/C)O[C@@]%14(CC[C@H](C)[C@H](O%14)C(C)C)C%13)[C@]%11%12O)C)O[C@@H](C)[C@@H]8O'
p4841
sg6
(lp4842
g8
(S'5.22'
p4843
tp4844
Rp4845
ag8
(S'5.89'
p4846
tp4847
Rp4848
asg12
(lp4849
g2501
ag2501
asg15
(lp4850
L7757006L
aL7757007L
assL371481L
(dp4851
g4
S'O=C1NC(CN1C2CCN(Cc3ccccc3)CC2)(C4CCCCC4)c5ccccc5'
p4852
sg6
(lp4853
g8
(S'8.59'
p4854
tp4855
Rp4856
asg12
(lp4857
g2501
asg15
(lp4858
L1827060L
assL1605561L
(dp4859
g4
S'O=C(O[C@H]1C[N+]2(Cc3ccccc3)CCC1CC2)C4(CCCCCC4)C5=CC=CC5'
p4860
sg6
(lp4861
g8
(S'7.40'
p4862
tp4863
Rp4864
asg12
(lp4865
g2501
asg15
(lp4866
L13833285L
assL371483L
(dp4867
g4
S'Fc1cccc(CN2CCC(CC2)N3CC(NC3=O)(c4ccccc4)c5ccccc5)c1'
p4868
sg6
(lp4869
g8
(S'8.36'
p4870
tp4871
Rp4872
asg12
(lp4873
g2501
asg15
(lp4874
L1827036L
assL371484L
(dp4875
g4
S'Fc1ccc(cc1)C2(CN(C3CCN(Cc4cccc(Cl)c4)CC3)C(=O)N2)c5ccc(F)cc5'
p4876
sg6
(lp4877
g8
(S'8.17'
p4878
tp4879
Rp4880
asg12
(lp4881
g2501
asg15
(lp4882
L1827035L
assL371488L
(dp4883
g4
S'O=C1NC(CN1C2CCN(Cc3ccccc3)CC2)(c4cccs4)c5cccs5'
p4884
sg6
(lp4885
g8
(S'8.57'
p4886
tp4887
Rp4888
asg12
(lp4889
g2501
asg15
(lp4890
L1827059L
assL371489L
(dp4891
g4
S'O=C1NC(Cc2ccccc2)(Cc3ccccc3)CN1C4CCN(Cc5ccccc5)CC4'
p4892
sg6
(lp4893
g8
(S'6.82'
p4894
tp4895
Rp4896
asg12
(lp4897
g2501
asg15
(lp4898
L1827058L
assL371491L
(dp4899
g4
S'Fc1ccc(cc1)C2(CN(C3CCN(Cc4cccc(F)c4)CC3)C(=O)N2)c5ccc(F)cc5'
p4900
sg6
(lp4901
g8
(S'8.32'
p4902
tp4903
Rp4904
asg12
(lp4905
g2501
asg15
(lp4906
L1827034L
assL371497L
(dp4907
g4
S'CN1CCC(CC1)N2CC(NC2=O)(c3ccccc3)c4ccccc4'
p4908
sg6
(lp4909
g8
(S'6.03'
p4910
tp4911
Rp4912
asg12
(lp4913
g2501
asg15
(lp4914
L1827057L
assL371498L
(dp4915
g4
S'Cc1cccc(CN2CCC(CC2)N3CC(NC3=O)(C4CCCCC4)c5ccccc5)c1'
p4916
sg6
(lp4917
g8
(S'8.34'
p4918
tp4919
Rp4920
asg12
(lp4921
g2501
asg15
(lp4922
L1827033L
assL371499L
(dp4923
g4
S'Clc1cccc(CN2CCC(CC2)N3CC(NC3=O)(C4CCCCC4)c5ccccc5)c1'
p4924
sg6
(lp4925
g8
(S'8.18'
p4926
tp4927
Rp4928
asg12
(lp4929
g2501
asg15
(lp4930
L1827032L
assL371504L
(dp4931
g4
S'O=C1NC(CN1C2CCN(CC2)c3ccccc3)(c4ccccc4)c5ccccc5'
p4932
sg6
(lp4933
g8
(S'7.00'
p4934
tp4935
Rp4936
asg12
(lp4937
g2501
asg15
(lp4938
L1827056L
assL371505L
(dp4939
g4
S'O=C1NC(CN1C2CCN(CC3CCCCC3)CC2)(c4ccccc4)c5ccccc5'
p4940
sg6
(lp4941
g8
(S'6.45'
p4942
tp4943
Rp4944
asg12
(lp4945
g2501
asg15
(lp4946
L1827055L
assL92984L
(dp4947
g4
S'CCN(CC)CCOc1ccc(cc1)\\C(=C(\\Cl)/c2ccccc2)\\c3ccccc3'
p4948
sg6
(lp4949
g8
(S'5.68'
p4950
tp4951
Rp4952
ag8
(S'6.36'
p4953
tp4954
Rp4955
asg12
(lp4956
g2501
ag2501
asg15
(lp4957
L7706090L
aL7706091L
assL716596L
(dp4958
g4
S'Clc1cccc(CN2CCC3(CC2)CCN(CC3)C(=O)c4ccccc4)c1'
p4959
sg6
(lp4960
g8
(S'7.00'
p4961
tp4962
Rp4963
asg12
(lp4964
g2501
asg15
(lp4965
L3591685L
assL371515L
(dp4966
g4
S'Cc1cccc(CN2CCC(CC2)N3CC(NC3=O)(c4cccs4)c5cccs5)c1'
p4967
sg6
(lp4968
g8
(S'8.76'
p4969
tp4970
Rp4971
asg12
(lp4972
g2501
asg15
(lp4973
L1827031L
assL1605429L
(dp4974
g4
S'Clc1ccc(NC(=O)C[N+]23CCC(CC2)[C@H](C3)OC(=O)C4(CCCCCC4)C5=CC=CC5)nn1'
p4975
sg6
(lp4976
g8
(S'9.70'
p4977
tp4978
Rp4979
asg12
(lp4980
g2501
asg15
(lp4981
L13833238L
assL396101L
(dp4982
g4
S'CN1CCCC(CN2c3ccccc3Sc4ccccc24)C1'
p4983
sg6
(lp4984
g8
(S'6.72'
p4985
tp4986
Rp4987
ag8
(S'7.40'
p4988
tp4989
Rp4990
asg12
(lp4991
g2501
ag2501
asg15
(lp4992
L7770701L
aL7770702L
assL6968L
(dp4993
g4
S'CC\\C(=C(/c1ccccc1)\\c2ccc(OCCN(C)C)cc2)\\c3ccccc3'
p4994
sg6
(lp4995
g8
(S'5.53'
p4996
tp4997
Rp4998
ag8
(S'6.20'
p4999
tp5000
Rp5001
asg12
(lp5002
g2501
ag2501
asg15
(lp5003
L7803810L
aL7803811L
assL715605L
(dp5004
g4
S'OCc1oc(cc1)C(=O)N2CCOC3(CCN(Cc4ccc(Cl)cc4)CC3)C2'
p5005
sg6
(lp5006
g8
(S'7.00'
p5007
tp5008
Rp5009
asg12
(lp5010
g2501
asg15
(lp5011
L3591697L
assL715606L
(dp5012
g4
S'Clc1ccc(CN2CCC3(CC2)CN(CCO3)C(=O)c4cocc4)cc1'
p5013
sg6
(lp5014
g8
(S'6.90'
p5015
tp5016
Rp5017
asg12
(lp5018
g2501
asg15
(lp5019
L3591698L
assL146267L
(dp5020
g4
S'Cc1oc(C[N+](C)(C)C)cc1'
p5021
sg6
(lp5022
g8
(S'5.21'
p5023
tp5024
Rp5025
asg12
(lp5026
g2501
asg15
(lp5027
L2446356L
assL860L
(dp5028
g4
S'CC\\C(=C(\\CC)/c1ccc(O)cc1)\\c2ccc(O)cc2'
p5029
sg6
(lp5030
g8
(S'5.41'
p5031
tp5032
Rp5033
asg12
(lp5034
g2501
asg15
(lp5035
L7704781L
assL1605434L
(dp5036
g4
S'O=C(C[N+]12CCC(CC1)[C@H](C2)OC(=O)C3(CCCCCC3)C4=CC=CC4)NCCCNC(=O)c5ccccn5'
p5037
sg6
(lp5038
g8
(S'8.20'
p5039
tp5040
Rp5041
asg12
(lp5042
g2501
asg15
(lp5043
L13833233L
assL187230L
(dp5044
g4
S'CN(CCCCCCCCN(C)CCCCCCN(CC(=O)N1c2ccccc2C(=O)Nc3cccnc13)CC(=O)N4c5ccccc5C(=O)Nc6cccnc46)CCCCCCNCC(=O)N7c8ccccc8C(=O)Nc9cccnc79'
p5045
sg6
(lp5046
g8
(S'6.83'
p5047
tp5048
Rp5049
ag8
(S'7.40'
p5050
tp5051
Rp5052
asg12
(lp5053
g2501
ag2501
asg15
(lp5054
L2557026L
aL5084364L
assL482144L
(dp5055
g4
S'CC[C@@H](C)[C@@H](O)C(=O)OC[C@H]1CCN2CCC[C@@H]12'
p5056
sg6
(lp5057
g8
(S'6.90'
p5058
tp5059
Rp5060
asg12
(lp5061
g2501
asg15
(lp5062
L2555318L
assL1250448L
(dp5063
g4
S'CC(C)(CCC(C(=O)N)(c1ccccc1)c2ccccc2)N3CC[C@H](C3)Oc4cccc(O)c4'
p5064
sg6
(lp5065
g8
(S'9.70'
p5066
tp5067
Rp5068
asg12
(lp5069
g2501
asg15
(lp5070
L7845082L
assL334691L
(dp5071
g4
S'CO[C@@]1(CN2CCC1CC2)C#CC(O)(c3ccc(F)cc3)c4ccc(F)cc4'
p5072
sg6
(lp5073
g8
(S'9.00'
p5074
tp5075
Rp5076
asg12
(lp5077
g2501
asg15
(lp5078
L1666553L
assL564074L
(dp5079
g4
S'[Br-].OC(C(=O)O[C@H]1C[N+]2(CCCOc3ccccc3)CCC1CC2)(c4ccsc4)c5ccsc5'
p5080
sg6
(lp5081
g8
(S'9.62'
p5082
tp5083
Rp5084
asg12
(lp5085
g2501
asg15
(lp5086
L2708946L
assL1051499L
(dp5087
g4
S'[3H]C([3H])([3H])[N+]1(C)[C@@H]2C[C@H](C[C@H]1[C@@H]3O[C@H]23)OC(=O)[C@H](CO)c4ccccc4'
p5088
sg6
(lp5089
g8
(S'9.60'
p5090
tp5091
Rp5092
asg12
(lp5093
g2501
asg15
(lp5094
L5084188L
assL342893L
(dp5095
g4
S'Cc1c(NC2CC2)nc(nc1N3CCC(CO)CC3)C4CC4'
p5096
sg6
(lp5097
g8
(S'6.30'
p5098
tp5099
Rp5100
asg12
(lp5101
g2501
asg15
(lp5102
L1702722L
assL342894L
(dp5103
g4
S'Cc1c(NC2CC2)nc(nc1N3CCC(CC3)C(F)(F)F)C4CC4'
p5104
sg6
(lp5105
g8
(S'7.00'
p5106
tp5107
Rp5108
asg12
(lp5109
g2501
asg15
(lp5110
L1702721L
assL342895L
(dp5111
g4
S'Cc1c(NC2CC2)nc(nc1N3CCC(F)(F)CC3)C4CC4'
p5112
sg6
(lp5113
g8
(S'7.30'
p5114
tp5115
Rp5116
asg12
(lp5117
g2501
asg15
(lp5118
L1702720L
assL564081L
(dp5119
g4
S'O=C(O[C@H]1CN2CCC1CC2)C3c4ccccc4CCc5ccccc35'
p5120
sg6
(lp5121
g8
(S'7.03'
p5122
tp5123
Rp5124
asg12
(lp5125
g2501
asg15
(lp5126
L2708920L
assL564083L
(dp5127
g4
S'OC(C(=O)O[C@H]1CN2CCC1CC2)(c3cccs3)c4cccs4'
p5128
sg6
(lp5129
g8
(S'9.64'
p5130
tp5131
Rp5132
asg12
(lp5133
g2501
asg15
(lp5134
L2708922L
assL564086L
(dp5135
g4
S'[Br-].OC(C(=O)O[C@H]1C[N+]2(CCCOc3ccccc3)CCC1CC2)(c4ccccc4)c5ccccc5'
p5136
sg6
(lp5137
g8
(S'9.21'
p5138
tp5139
Rp5140
asg12
(lp5141
g2501
asg15
(lp5142
L2708940L
assL1605439L
(dp5143
g4
S'O=C(O[C@H]1C[N+]2(Cc3csc(n3)c4ccccc4)CCC1CC2)C5(CCCCCC5)C6=CC=CC6'
p5144
sg6
(lp5145
g8
(S'7.60'
p5146
tp5147
Rp5148
asg12
(lp5149
g2501
asg15
(lp5150
L13833228L
assL1051518L
(dp5151
g4
S'O=C(CCNS(=O)(=O)c1cccc2nsnc12)N3CCN(CC3)c4ccncc4'
p5152
sg6
(lp5153
g8
(S'6.10'
p5154
tp5155
Rp5156
asg12
(lp5157
g2501
asg15
(lp5158
L5084355L
assL707462L
(dp5159
g4
S'CCCCN1CCC(COC(=O)c2ccc(N)c(OC)c2)CC1'
p5160
sg6
(lp5161
g8
(S'5.96'
p5162
tp5163
Rp5164
asg12
(lp5165
g2501
asg15
(lp5166
L3502832L
assL357269L
(dp5167
g4
S'CN1CCC(CNC(=O)[C@H]2CCCN2C(=O)[C@@H]3C[C@@H](O)CN3C(=O)CC(c4ccc(F)cc4)(c5ccc(F)cc5)c6ccc(F)cc6)CC1'
p5168
sg6
(lp5169
g8
(S'9.29'
p5170
tp5171
Rp5172
asg12
(lp5173
g2501
asg15
(lp5174
L1763998L
assL357270L
(dp5175
g4
S'CCN1CCC(CNC(=O)[C@H]2CCCN2C(=O)[C@@H]3C[C@@H](O)CN3C(=O)CC(c4ccc(F)cc4)(c5ccc(F)cc5)c6ccc(F)cc6)CC1'
p5176
sg6
(lp5177
g8
(S'9.04'
p5178
tp5179
Rp5180
asg12
(lp5181
g2501
asg15
(lp5182
L1763997L
assL357271L
(dp5183
g4
S'O[C@@H]1C[C@H](N(C1)C(=O)CC(c2ccc(F)cc2)(c3ccc(F)cc3)c4ccc(F)cc4)C(=O)N5CCC[C@@H]5C(=O)NCC6CCN(CC7CC7)CC6'
p5184
sg6
(lp5185
g8
(S'9.77'
p5186
tp5187
Rp5188
asg12
(lp5189
g2501
asg15
(lp5190
L1763996L
assL27546L
(dp5191
g4
S'CN1CCN(CC1)C(c2ccccc2)c3ccccc3'
p5192
sg6
(lp5193
g8
(S'6.13'
p5194
tp5195
Rp5196
ag8
(S'6.80'
p5197
tp5198
Rp5199
asg12
(lp5200
g2501
ag2501
asg15
(lp5201
L7693486L
aL7693487L
assL654235L
(dp5202
g4
S'CCN1CCC(=C(C1)C(=O)OCCc2ccc(C)cc2)c3ccccc3'
p5203
sg6
(lp5204
g8
(S'7.06'
p5205
tp5206
Rp5207
asg12
(lp5208
g2501
asg15
(lp5209
L12629811L
assL553887L
(dp5210
g4
S'[I-].C[N+](C)(C)C[C@@H]1C[S+]([O-])[C@](O1)(C2CCCCC2)c3ccccc3'
p5211
sg6
(lp5212
g8
(S'7.46'
p5213
tp5214
Rp5215
asg12
(lp5216
g2501
asg15
(lp5217
L2354576L
assL394145L
(dp5218
g4
S'Cc1c(nc(nc1N2CCCCCC2)C3CC3)N4CCCC4'
p5219
sg6
(lp5220
g8
(S'8.89'
p5221
tp5222
Rp5223
asg12
(lp5224
g2501
asg15
(lp5225
L1953895L
assL418411L
(dp5226
g4
S'OC(CCN1CCCCC1)(C2CCCCC2)c3ccccc3'
p5227
sg6
(lp5228
g8
(S'7.82'
p5229
tp5230
Rp5231
ag8
(S'8.50'
p5232
tp5233
Rp5234
asg12
(lp5235
g2501
ag2501
asg15
(lp5236
L7782833L
aL7782834L
assL394148L
(dp5237
g4
S'Cc1c(nc(nc1N2CCCCCC2)C3CC3)N4CCCCC4'
p5238
sg6
(lp5239
g8
(S'7.10'
p5240
tp5241
Rp5242
asg12
(lp5243
g2501
asg15
(lp5244
L1953894L
assL394150L
(dp5245
g4
S'Cc1c(nc(nc1N2CCCCCC2)C3CC3)N4CCCCCC4'
p5246
sg6
(lp5247
g8
(S'7.40'
p5248
tp5249
Rp5250
asg12
(lp5251
g2501
asg15
(lp5252
L1953893L
assL633771L
(dp5253
g4
S'Clc1cccc(c1)c2ccccc2C(=O)NCC3CCNCC3'
p5254
sg6
(lp5255
g8
(S'5.40'
p5256
tp5257
Rp5258
asg12
(lp5259
g2501
asg15
(lp5260
L3316125L
assL394157L
(dp5261
g4
S'CC1CN(C1)c2nc(nc(N3CCCCCC3)c2C)C4CC4'
p5262
sg6
(lp5263
g8
(S'7.70'
p5264
tp5265
Rp5266
asg12
(lp5267
g2501
asg15
(lp5268
L1953892L
assL394158L
(dp5269
g4
S'Cc1c(nc(nc1N2CC(C)(C)C2)C3CC3)N4CCCCCC4'
p5270
sg6
(lp5271
g8
(S'7.49'
p5272
tp5273
Rp5274
asg12
(lp5275
g2501
asg15
(lp5276
L1953891L
assL394159L
(dp5277
g4
S'Cc1c(nc(nc1N2CC(O)C2)C3CC3)N4CCCCCC4'
p5278
sg6
(lp5279
g8
(S'6.80'
p5280
tp5281
Rp5282
asg12
(lp5283
g2501
asg15
(lp5284
L1953890L
assL394161L
(dp5285
g4
S'Cc1c(nc(nc1N2CC(Br)C2)C3CC3)N4CCCCCC4'
p5286
sg6
(lp5287
g8
(S'6.70'
p5288
tp5289
Rp5290
asg12
(lp5291
g2501
asg15
(lp5292
L1953889L
assL406451L
(dp5293
g4
S'[I-].Cc1onc(OCC#CC[N+](C)(C)C)c1'
p5294
sg6
(lp5295
g8
(S'5.40'
p5296
tp5297
Rp5298
asg12
(lp5299
g2501
asg15
(lp5300
L1989747L
assL394166L
(dp5301
g4
S'Cc1c(nc(nc1N2CC(C2)C#N)C3CC3)N4CCCCCC4'
p5302
sg6
(lp5303
g8
(S'6.10'
p5304
tp5305
Rp5306
asg12
(lp5307
g2501
asg15
(lp5308
L1953888L
assL394167L
(dp5309
g4
S'Cc1c(nc(nc1N2CC(F)C2)C3CC3)N4CCCCCC4'
p5310
sg6
(lp5311
g8
(S'6.70'
p5312
tp5313
Rp5314
asg12
(lp5315
g2501
asg15
(lp5316
L1953887L
assL406457L
(dp5317
g4
S'[I-].Cc1onc(OCC#CC[N+]2(C)CCCC2)c1'
p5318
sg6
(lp5319
g8
(S'5.13'
p5320
tp5321
Rp5322
asg12
(lp5323
g2501
asg15
(lp5324
L1989746L
assL394170L
(dp5325
g4
S'COC1CN(C1)c2nc(nc(N3CCCCCC3)c2C)C4CC4'
p5326
sg6
(lp5327
g8
(S'7.40'
p5328
tp5329
Rp5330
asg12
(lp5331
g2501
asg15
(lp5332
L1953885L
assL1250463L
(dp5333
g4
S'CC(C)(CCC(C(=O)N)(c1ccccc1)c2ccccc2)N3CC(C3)Oc4cccc(O)c4F'
p5334
sg6
(lp5335
g8
(S'9.79'
p5336
tp5337
Rp5338
asg12
(lp5339
g2501
asg15
(lp5340
L7845085L
assL394173L
(dp5341
g4
S'C1CCCN(CC1)c2cc(nc(n2)C3CC3)N4CCC4'
p5342
sg6
(lp5343
g8
(S'7.10'
p5344
tp5345
Rp5346
asg12
(lp5347
g2501
asg15
(lp5348
L1953884L
assL394174L
(dp5349
g4
S'CC1CN(C1)c2cc(nc(n2)C3CC3)N4CCCCCC4'
p5350
sg6
(lp5351
g8
(S'7.89'
p5352
tp5353
Rp5354
asg12
(lp5355
g2501
asg15
(lp5356
L1953883L
assL406463L
(dp5357
g4
S'OC(=O)\\C=C\\C(=O)O.C(Oc1cc(on1)c2ccccc2)C#CCN3CCCC3'
p5358
sg6
(lp5359
g8
(S'5.40'
p5360
tp5361
Rp5362
asg12
(lp5363
g2501
asg15
(lp5364
L1989745L
assL1594304L
(dp5365
g4
S'[Br-].C[N+]1(C)[C@@H]2CC[C@H]1C[C@H](C2)C=C(c3cccs3)c4cccs4'
p5366
sg6
(lp5367
g8
(S'9.35'
p5368
tp5369
Rp5370
asg12
(lp5371
g2501
asg15
(lp5372
L6215834L
assL1074113L
(dp5373
g4
S'O=C(Nc1ccccc1c2ccccc2)OC3CCNCC3'
p5374
sg6
(lp5375
g8
(S'7.34'
p5376
tp5377
Rp5378
asg12
(lp5379
g2501
asg15
(lp5380
L5238400L
assL406466L
(dp5381
g4
S'[I-].C[N+]1(CC#CCOc2cc(on2)c3ccccc3)CCCC1'
p5382
sg6
(lp5383
g8
(S'5.84'
p5384
tp5385
Rp5386
asg12
(lp5387
g2501
asg15
(lp5388
L1989744L
assL1074115L
(dp5389
g4
S'CCN1CCC(CC1)OC(=O)Nc2ccccc2c3ccccc3'
p5390
sg6
(lp5391
g8
(S'7.26'
p5392
tp5393
Rp5394
asg12
(lp5395
g2501
asg15
(lp5396
L5238402L
assL1074116L
(dp5397
g4
S'CCCN1CCC(CC1)OC(=O)Nc2ccccc2c3ccccc3'
p5398
sg6
(lp5399
g8
(S'7.11'
p5400
tp5401
Rp5402
asg12
(lp5403
g2501
asg15
(lp5404
L5238403L
assL1074117L
(dp5405
g4
S'CCCCN1CCC(CC1)OC(=O)Nc2ccccc2c3ccccc3'
p5406
sg6
(lp5407
g8
(S'7.77'
p5408
tp5409
Rp5410
asg12
(lp5411
g2501
asg15
(lp5412
L5238404L
assL1074118L
(dp5413
g4
S'CCCCCN1CCC(CC1)OC(=O)Nc2ccccc2c3ccccc3'
p5414
sg6
(lp5415
g8
(S'7.85'
p5416
tp5417
Rp5418
asg12
(lp5419
g2501
asg15
(lp5420
L5238405L
assL334791L
(dp5421
g4
S'CCCCCC(O)(C#CC1(CN2CCC1CC2)OC)c3ccccc3'
p5422
sg6
(lp5423
g8
(S'8.60'
p5424
tp5425
Rp5426
asg12
(lp5427
g2501
asg15
(lp5428
L1666557L
assL715720L
(dp5429
g4
S'Clc1ccc(CN2CCC3(CC2)CN(CCO3)C(=O)c4ncccn4)cc1'
p5430
sg6
(lp5431
g8
(S'6.40'
p5432
tp5433
Rp5434
asg12
(lp5435
g2501
asg15
(lp5436
L3591700L
assL1074121L
(dp5437
g4
S'CCCCCCCCN1CCC(CC1)OC(=O)Nc2ccccc2c3ccccc3'
p5438
sg6
(lp5439
g8
(S'8.15'
p5440
tp5441
Rp5442
asg12
(lp5443
g2501
asg15
(lp5444
L5238408L
assL1074122L
(dp5445
g4
S'CCCCCCCCCN1CCC(CC1)OC(=O)Nc2ccccc2c3ccccc3'
p5446
sg6
(lp5447
g8
(S'8.02'
p5448
tp5449
Rp5450
asg12
(lp5451
g2501
asg15
(lp5452
L5238409L
assL1074123L
(dp5453
g4
S'CCCCCCCCCCN1CCC(CC1)OC(=O)Nc2ccccc2c3ccccc3'
p5454
sg6
(lp5455
g8
(S'7.60'
p5456
tp5457
Rp5458
asg12
(lp5459
g2501
asg15
(lp5460
L5238410L
assL469964L
(dp5461
g4
S'O=C(NCc1cccc(c1)c2cccc(CN3CCNCC3)c2)c4ccc5OCOc5c4'
p5462
sg6
(lp5463
g8
(S'7.50'
p5464
tp5465
Rp5466
asg12
(lp5467
g2501
asg15
(lp5468
L2365103L
assL1074125L
(dp5469
g4
S'NCCN1CCC(CC1)OC(=O)Nc2ccccc2c3ccccc3'
p5470
sg6
(lp5471
g8
(S'7.30'
p5472
tp5473
Rp5474
asg12
(lp5475
g2501
asg15
(lp5476
L5238412L
assL406478L
(dp5477
g4
S'OC(=O)C(=O)O.O=C1CCON1CC#CCN2CCCCC2'
p5478
sg6
(lp5479
g8
(S'6.27'
p5480
tp5481
Rp5482
asg12
(lp5483
g2501
asg15
(lp5484
L1989743L
assL1074127L
(dp5485
g4
S'NCCCCN1CCC(CC1)OC(=O)Nc2ccccc2c3ccccc3'
p5486
sg6
(lp5487
g8
(S'7.08'
p5488
tp5489
Rp5490
asg12
(lp5491
g2501
asg15
(lp5492
L5238414L
assL1074128L
(dp5493
g4
S'NCCCCCN1CCC(CC1)OC(=O)Nc2ccccc2c3ccccc3'
p5494
sg6
(lp5495
g8
(S'7.01'
p5496
tp5497
Rp5498
asg12
(lp5499
g2501
asg15
(lp5500
L5238415L
assL1074129L
(dp5501
g4
S'NCCCCCCN1CCC(CC1)OC(=O)Nc2ccccc2c3ccccc3'
p5502
sg6
(lp5503
g8
(S'7.72'
p5504
tp5505
Rp5506
asg12
(lp5507
g2501
asg15
(lp5508
L5238416L
assL1074130L
(dp5509
g4
S'NCCCCCCCN1CCC(CC1)OC(=O)Nc2ccccc2c3ccccc3'
p5510
sg6
(lp5511
g8
(S'9.28'
p5512
tp5513
Rp5514
asg12
(lp5515
g2501
asg15
(lp5516
L5238417L
assL334803L
(dp5517
g4
S'CCCCC(O)(C#CC1(CN2CCC1CC2)OC)c3ccccc3'
p5518
sg6
(lp5519
g8
(S'9.20'
p5520
tp5521
Rp5522
asg12
(lp5523
g2501
asg15
(lp5524
L1666556L
assL1074132L
(dp5525
g4
S'NCCCCCCCCCN1CCC(CC1)OC(=O)Nc2ccccc2c3ccccc3'
p5526
sg6
(lp5527
g8
(S'9.12'
p5528
tp5529
Rp5530
asg12
(lp5531
g2501
asg15
(lp5532
L5238419L
assL1074133L
(dp5533
g4
S'NCCCCCCCCCCN1CCC(CC1)OC(=O)Nc2ccccc2c3ccccc3'
p5534
sg6
(lp5535
g8
(S'8.80'
p5536
tp5537
Rp5538
asg12
(lp5539
g2501
asg15
(lp5540
L5238420L
assL1074134L
(dp5541
g4
S'NCCCCCCCCCCCN1CCC(CC1)OC(=O)Nc2ccccc2c3ccccc3'
p5542
sg6
(lp5543
g8
(S'8.60'
p5544
tp5545
Rp5546
asg12
(lp5547
g2501
asg15
(lp5548
L5238421L
assL1074135L
(dp5549
g4
S'NCCCCCCCCCCCCN1CCC(CC1)OC(=O)Nc2ccccc2c3ccccc3'
p5550
sg6
(lp5551
g8
(S'8.59'
p5552
tp5553
Rp5554
asg12
(lp5555
g2501
asg15
(lp5556
L5238422L
assL1074136L
(dp5557
g4
S'O[C@@H](CNCCCN1CCC(CC1)OC(=O)Nc2ccccc2c3ccccc3)c4ccc(O)c5NC(=O)C=Cc45'
p5558
sg6
(lp5559
g8
(S'7.55'
p5560
tp5561
Rp5562
asg12
(lp5563
g2501
asg15
(lp5564
L5238423L
assL1074137L
(dp5565
g4
S'O[C@@H](CNCCCCCCCN1CCC(CC1)OC(=O)Nc2ccccc2c3ccccc3)c4ccc(O)c5NC(=O)C=Cc45'
p5566
sg6
(lp5567
g8
(S'9.13'
p5568
tp5569
Rp5570
asg12
(lp5571
g2501
asg15
(lp5572
L5238424L
assL1074138L
(dp5573
g4
S'O[C@@H](CNCCCCCCCCN1CCC(CC1)OC(=O)Nc2ccccc2c3ccccc3)c4ccc(O)c5NC(=O)C=Cc45'
p5574
sg6
(lp5575
g8
(S'9.49'
p5576
tp5577
Rp5578
asg12
(lp5579
g2501
asg15
(lp5580
L5238425L
assL1074139L
(dp5581
g4
S'O[C@@H](CNCCCCCCCCCN1CCC(CC1)OC(=O)Nc2ccccc2c3ccccc3)c4ccc(O)c5NC(=O)C=Cc45'
p5582
sg6
(lp5583
g8
(S'11.00'
p5584
tp5585
Rp5586
asg12
(lp5587
g2501
asg15
(lp5588
L5238426L
assL1074140L
(dp5589
g4
S'O[C@@H](CNCCCCCCCCCN1CCC(CC1)OC(=O)Nc2ccccc2c3ccccc3)c4ccc(O)c(NC=O)c4'
p5590
sg6
(lp5591
g8
(S'9.85'
p5592
tp5593
Rp5594
asg12
(lp5595
g2501
asg15
(lp5596
L5238427L
assL334813L
(dp5597
g4
S'CO[C@@]1(CN2CCC1CC2)C#CC(O)(c3ccc(Cl)cc3)c4ccc(Cl)cc4'
p5598
sg6
(lp5599
g8
(S'8.10'
p5600
tp5601
Rp5602
asg12
(lp5603
g2501
asg15
(lp5604
L1666552L
assL406497L
(dp5605
g4
S'OC(=O)C(=O)O.C(OC1=NOCC1)C#CCN2CCCCC2'
p5606
sg6
(lp5607
g8
(S'5.41'
p5608
tp5609
Rp5610
asg12
(lp5611
g2501
asg15
(lp5612
L1989742L
assL1074146L
(dp5613
g4
S'OC(CNCCCCCCCCCN1CCC(CC1)OC(=O)Nc2ccccc2c3ccccc3)c4ccc(O)c5NC(=O)C=Cc45'
p5614
sg6
(lp5615
g8
(S'9.74'
p5616
tp5617
Rp5618
asg12
(lp5619
g2501
asg15
(lp5620
L5238430L
assL406499L
(dp5621
g4
S'[I-].C[N+]1(CC#CCOC2=NOCC2)CCCCC1'
p5622
sg6
(lp5623
g8
(S'5.32'
p5624
tp5625
Rp5626
asg12
(lp5627
g2501
asg15
(lp5628
L1989741L
assL1074148L
(dp5629
g4
S'OC(CNCCCCCCCCCN1CCC(CC1)NC(=O)Nc2ccccc2c3ccccc3)c4ccc(O)c5NC(=O)C=Cc45'
p5630
sg6
(lp5631
g8
(S'8.12'
p5632
tp5633
Rp5634
asg12
(lp5635
g2501
asg15
(lp5636
L5238432L
assL1074149L
(dp5637
g4
S'OC(CNCCCCCCCCC[N+]12CCC(CC1)[C@H](C2)OC(=O)Nc3ccccc3c4ccccc4)c5ccc(O)c6NC(=O)C=Cc56'
p5638
sg6
(lp5639
g8
(S'6.85'
p5640
tp5641
Rp5642
asg12
(lp5643
g2501
asg15
(lp5644
L5238433L
assL1074150L
(dp5645
g4
S'C[N+]1(CCCCCCCCCNC[C@H](O)c2ccc(O)c3NC(=O)C=Cc23)[C@@H]4C[C@@H](C[C@@H]1[C@H]5O[C@@H]45)OC(=O)C(O)(c6cccs6)c7cccs7'
p5646
sg6
(lp5647
g8
(S'8.34'
p5648
tp5649
Rp5650
asg12
(lp5651
g2501
asg15
(lp5652
L5238434L
assL406503L
(dp5653
g4
S'[I-].C[N+]1(CC#CCOC2=NOCC2)CCc3ccccc13'
p5654
sg6
(lp5655
g8
(S'5.26'
p5656
tp5657
Rp5658
asg12
(lp5659
g2501
asg15
(lp5660
L1989740L
assL1584104L
(dp5661
g4
S'CN(Cc1cccc(F)c1)[C@H]2C3C4CC5C6C4C2C6C(=O)C35'
p5662
sg6
(lp5663
g8
(S'5.75'
p5664
tp5665
Rp5666
asg12
(lp5667
g2501
asg15
(lp5668
L13469908L
assL406507L
(dp5669
g4
S'[I-].C[N+]1(CC#CCOC2=NOCC2)CCc3ccccc3C1'
p5670
sg6
(lp5671
g8
(S'6.05'
p5672
tp5673
Rp5674
asg12
(lp5675
g2501
asg15
(lp5676
L1989739L
assL27629L
(dp5677
g4
S'CN(C)CCOC(c1ccccc1)c2ccccc2'
p5678
sg6
(lp5679
g8
(S'6.19'
p5680
tp5681
Rp5682
ag8
(S'6.86'
p5683
tp5684
Rp5685
asg12
(lp5686
g2501
ag2501
asg15
(lp5687
L7681445L
aL7681446L
assL1584111L
(dp5688
g4
S'C(Cc1ccccc1)N[C@H]2C3C4CC5C6C4CC3C6C25'
p5689
sg6
(lp5690
g8
(S'5.67'
p5691
tp5692
Rp5693
asg12
(lp5694
g2501
asg15
(lp5695
L13469897L
assL1584112L
(dp5696
g4
S'C(Cc1ccccn1)N[C@H]2C3C4CC5C6C4CC3C6C25'
p5697
sg6
(lp5698
g8
(S'5.67'
p5699
tp5700
Rp5701
asg12
(lp5702
g2501
asg15
(lp5703
L13469895L
assL1584117L
(dp5704
g4
S'CN(CCCc1cccc(F)c1)[C@H]2C3C4CC5C6C4C2C6C(=O)C35'
p5705
sg6
(lp5706
g8
(S'5.89'
p5707
tp5708
Rp5709
asg12
(lp5710
g2501
asg15
(lp5711
L13469907L
assL334847L
(dp5712
g4
S'COC1(CN2CCC1CC2)C#CC(O)(Cc3ccccc3)Cc4ccccc4'
p5713
sg6
(lp5714
g8
(S'6.20'
p5715
tp5716
Rp5717
asg12
(lp5718
g2501
asg15
(lp5719
L1666554L
assL486405L
(dp5720
g4
S'CN1CCC[C@@H]1[C@@H]2C[S+]([O-])C(O2)(c3ccccc3)c4ccccc4'
p5721
sg6
(lp5722
g8
(S'6.29'
p5723
tp5724
Rp5725
ag8
(S'6.55'
p5726
tp5727
Rp5728
asg12
(lp5729
g2501
ag2501
asg15
(lp5730
L2338159L
aL2354433L
assL486406L
(dp5731
g4
S'CN1CCC[C@H]1[C@H]2C[S+]([O-])C(O2)(c3ccccc3)c4ccccc4'
p5732
sg6
(lp5733
g8
(S'6.52'
p5734
tp5735
Rp5736
ag8
(S'6.33'
p5737
tp5738
Rp5739
asg12
(lp5740
g2501
ag2501
asg15
(lp5741
L2354432L
aL2354434L
assL553991L
(dp5742
g4
S'[I-].CC(C)OC(=O)c1ccc(NC(=O)N[C@@H](Cc2ccc(O)cc2)C(=O)N[C@H]3CCC[N+](C)(Cc4cccc(O)c4)C3)cc1'
p5743
sg6
(lp5744
g8
(S'7.50'
p5745
tp5746
Rp5747
asg12
(lp5748
g2501
asg15
(lp5749
L2229649L
assL1605564L
(dp5750
g4
S'O=C(O[C@H]1C[N+]2(CCc3ccccc3)CCC1CC2)C4(CCCCCC4)C5=CC=CC5'
p5751
sg6
(lp5752
g8
(S'10.10'
p5753
tp5754
Rp5755
asg12
(lp5756
g2501
asg15
(lp5757
L13833282L
assL334861L
(dp5758
g4
S'COC1(CN2CCC1CC2)C#CC(O)(Cc3ccccc3)c4ccccc4'
p5759
sg6
(lp5760
g8
(S'7.40'
p5761
tp5762
Rp5763
asg12
(lp5764
g2501
asg15
(lp5765
L1666555L
assL437267L
(dp5766
g4
S'CC(C)N(CC[C@H](c1ccccc1)c2cc(CCNC(=O)CCCCCNC(=O)COc3ccc(\\C=C\\C4=[N+]5C(=Cc6ccc(c7cccs7)n6[B-]5(F)F)C=C4)cc3)ccc2O)C(C)C'
p5767
sg6
(lp5768
g8
(S'7.99'
p5769
tp5770
Rp5771
asg12
(lp5772
g2501
asg15
(lp5773
L2090909L
assL394260L
(dp5774
g4
S'Cc1c(nc(nc1N2CCCCCC2)C3CC3)N4CCC4'
p5775
sg6
(lp5776
g8
(S'7.80'
p5777
tp5778
Rp5779
asg12
(lp5780
g2501
asg15
(lp5781
L1954059L
assL1267655L
(dp5782
g4
S'CCCC[N+]12CCC(CC1)[C@H](C2)OC(=O)[C@@](C)(N3CCCCC3)c4ccccc4'
p5783
sg6
(lp5784
g8
(S'8.30'
p5785
tp5786
Rp5787
asg12
(lp5788
g2501
asg15
(lp5789
L7947419L
assL1265497L
(dp5790
g4
S'C[C@@](N1CCCCC1)(C(=O)O[C@H]2C[N+]3(CCc4ccc(Cl)s4)CCC2CC3)c5ccccc5'
p5791
sg6
(lp5792
g8
(S'10.30'
p5793
tp5794
Rp5795
asg12
(lp5796
g2501
asg15
(lp5797
L7947406L
assL1605567L
(dp5798
g4
S'O=C(O[C@H]1C[N+]2(CCc3ccc(cc3)C#N)CCC1CC2)C4(CCCCCC4)C5=CC=CC5'
p5799
sg6
(lp5800
g8
(S'8.50'
p5801
tp5802
Rp5803
asg12
(lp5804
g2501
asg15
(lp5805
L13833279L
assL1180711L
(dp5806
g4
S'Fc1cccc(F)c1n2nc(OC3CCNCC3)c4ccccc24'
p5807
sg6
(lp5808
g8
(S'7.31'
p5809
tp5810
Rp5811
asg12
(lp5812
g2501
asg15
(lp5813
L6376072L
assL633009L
(dp5814
g4
S'Clc1cccc(c1)c2ccccc2CNC(=O)C3CCNCC3'
p5815
sg6
(lp5816
g8
(S'5.70'
p5817
tp5818
Rp5819
asg12
(lp5820
g2501
asg15
(lp5821
L3312787L
assL1180712L
(dp5822
g4
S'Oc1cccc(F)c1n2nc(OC3CCNCC3)c4ccccc24'
p5823
sg6
(lp5824
g8
(S'8.00'
p5825
tp5826
Rp5827
asg12
(lp5828
g2501
asg15
(lp5829
L6376073L
assL1180713L
(dp5830
g4
S'Oc1cccc(F)c1n2nc(OC3CCNCC3)c4CCCCc24'
p5831
sg6
(lp5832
g8
(S'8.60'
p5833
tp5834
Rp5835
asg12
(lp5836
g2501
asg15
(lp5837
L6376074L
assL1180714L
(dp5838
g4
S'O[C@@H](CNCCCCCCCCCN1CCC(CC1)Oc2nn(c3CCCCc23)c4c(O)cccc4F)c5ccc(O)c6NC(=O)C=Cc56'
p5839
sg6
(lp5840
g8
(S'8.66'
p5841
tp5842
Rp5843
asg12
(lp5844
g2501
asg15
(lp5845
L6376075L
assL633011L
(dp5846
g4
S'Clc1cccc(c1)c2ccccc2CC(=O)NC3CCNCC3'
p5847
sg6
(lp5848
g8
(S'6.90'
p5849
tp5850
Rp5851
asg12
(lp5852
g2501
asg15
(lp5853
L3312791L
assL554046L
(dp5854
g4
S'[I-].C[N+]1(C)CCCC1c2occc2'
p5855
sg6
(lp5856
g8
(S'5.56'
p5857
tp5858
Rp5859
asg12
(lp5860
g2501
asg15
(lp5861
L2446364L
assL27713L
(dp5862
g4
S'CNCCCC12CCC(c3ccccc13)c4ccccc24'
p5863
sg6
(lp5864
g8
(S'6.33'
p5865
tp5866
Rp5867
ag8
(S'7.00'
p5868
tp5869
Rp5870
asg12
(lp5871
g2501
ag2501
asg15
(lp5872
L7749127L
aL7749128L
assL437319L
(dp5873
g4
S'[Br-].[Br-].CCCCN(CCCC)c1ccc(\\C=C\\c2cc[n+](CCC[N+](CC)(CC)CC)cc2)cc1'
p5874
sg6
(lp5875
g8
(S'7.52'
p5876
tp5877
Rp5878
asg12
(lp5879
g2501
asg15
(lp5880
L2090911L
assL437320L
(dp5881
g4
S'[Br-].[Br-].CCN(CC)c1ccc(\\C=C\\c2cc[n+](CCC[N+](CC)(CC)CC)cc2)cc1'
p5882
sg6
(lp5883
g8
(S'7.62'
p5884
tp5885
Rp5886
asg12
(lp5887
g2501
asg15
(lp5888
L2090910L
assL334924L
(dp5889
g4
S'CO[C@@]1(CN2CCC1CC2)C#CC(O)(c3ccc(C)cc3)c4ccc(C)cc4'
p5890
sg6
(lp5891
g8
(S'7.00'
p5892
tp5893
Rp5894
asg12
(lp5895
g2501
asg15
(lp5896
L1666551L
assL554062L
(dp5897
g4
S'[I-].C[N+]1(C)CCC[C@@H]1[C@@H]2C[S+]([O-])C(O2)(c3ccccc3)c4ccccc4'
p5898
sg6
(lp5899
g8
(S'6.38'
p5900
tp5901
Rp5902
ag8
(S'6.58'
p5903
tp5904
Rp5905
asg12
(lp5906
g2501
ag2501
asg15
(lp5907
L2338222L
aL2338224L
assL554063L
(dp5908
g4
S'[I-].C[N+]1(C)CCC[C@H]1[C@H]2C[S+]([O-])[C@](O2)(C3CCCCC3)c4ccccc4'
p5909
sg6
(lp5910
g8
(S'8.38'
p5911
tp5912
Rp5913
ag8
(S'7.57'
p5914
tp5915
Rp5916
asg12
(lp5917
g2501
ag2501
asg15
(lp5918
L2338217L
aL2338219L
assL554064L
(dp5919
g4
S'[I-].C[N+]1(C)CCC[C@@H]1[C@@H]2C[S+]([O-])[C@](O2)(C3CCCCC3)c4ccccc4'
p5920
sg6
(lp5921
g8
(S'6.79'
p5922
tp5923
Rp5924
ag8
(S'8.16'
p5925
tp5926
Rp5927
asg12
(lp5928
g2501
ag2501
asg15
(lp5929
L2338214L
aL2338216L
assL554065L
(dp5930
g4
S'[I-].C[N+]1(C)CCC[C@H]1[C@H]2C[S+]([O-])C(O2)(c3ccccc3)c4ccccc4'
p5931
sg6
(lp5932
g8
(S'7.29'
p5933
tp5934
Rp5935
ag8
(S'6.68'
p5936
tp5937
Rp5938
asg12
(lp5939
g2501
ag2501
asg15
(lp5940
L2338221L
aL2338223L
assL334933L
(dp5941
g4
S'CO[C@@]1(CN2CCC1CC2)C#CC(O)(c3cccc(F)c3)c4cccc(F)c4'
p5942
sg6
(lp5943
g8
(S'9.10'
p5944
tp5945
Rp5946
asg12
(lp5947
g2501
asg15
(lp5948
L1666550L
assL468054L
(dp5949
g4
S'CCN(CC)CCCOC(=O)N1c2ccccc2Sc3ccccc13'
p5950
sg6
(lp5951
g8
(S'6.77'
p5952
tp5953
Rp5954
asg12
(lp5955
g2501
asg15
(lp5956
L13369937L
assL468055L
(dp5957
g4
S'O=C(OCCN1CCCC1)N2c3ccccc3Sc4ccccc24'
p5958
sg6
(lp5959
g8
(S'7.18'
p5960
tp5961
Rp5962
asg12
(lp5963
g2501
asg15
(lp5964
L13369921L
assL554074L
(dp5965
g4
S'[I-].C[N+]1(C)CCC[C@@H]1[C@@H]2C[S+]([O-])[C@@](O2)(C3CCCCC3)c4ccccc4'
p5966
sg6
(lp5967
g8
(S'6.49'
p5968
tp5969
Rp5970
ag8
(S'6.54'
p5971
tp5972
Rp5973
asg12
(lp5974
g2501
ag2501
asg15
(lp5975
L2338218L
aL2338220L
assL334939L
(dp5976
g4
S'CO[C@@]1(CN2CCC1CC2)C#CC(O)(c3cccc(C)c3)c4cccc(C)c4'
p5977
sg6
(lp5978
g8
(S'8.10'
p5979
tp5980
Rp5981
asg12
(lp5982
g2501
asg15
(lp5983
L1666549L
assL334940L
(dp5984
g4
S'CO[C@@]1(CN2CCC1CC2)C#CC(O)(c3cccs3)c4cccs4'
p5985
sg6
(lp5986
g8
(S'10.30'
p5987
tp5988
Rp5989
asg12
(lp5990
g2501
asg15
(lp5991
L1666546L
assL1604706L
(dp5992
g4
S'O=C(O[C@H]1C[N+]2(CCCc3ccncc3)CCC1CC2)C4(CCCCCC4)c5cccs5'
p5993
sg6
(lp5994
g8
(S'10.30'
p5995
tp5996
Rp5997
asg12
(lp5998
g2501
asg15
(lp5999
L13833274L
assL334947L
(dp6000
g4
S'CO[C@@]1(CN2CCC1CC2)C#CC(O)(c3ccsc3)c4ccsc4'
p6001
sg6
(lp6002
g8
(S'10.10'
p6003
tp6004
Rp6005
asg12
(lp6006
g2501
asg15
(lp6007
L1666545L
assL1604708L
(dp6008
g4
S'Cc1ccc(CCC[N+]23CCC(CC2)[C@H](C3)OC(=O)C4(CCCCCC4)C5=CC=CC5)cn1'
p6009
sg6
(lp6010
g8
(S'9.80'
p6011
tp6012
Rp6013
asg12
(lp6014
g2501
asg15
(lp6015
L13833272L
assL1604709L
(dp6016
g4
S'Cc1ccc(CCC[N+]23CCC(CC2)[C@H](C3)OC(=O)C4(CCCCCC4)C5=CC=CC5)c(C)n1'
p6017
sg6
(lp6018
g8
(S'9.00'
p6019
tp6020
Rp6021
asg12
(lp6022
g2501
asg15
(lp6023
L13833271L
assL554086L
(dp6024
g4
S'[I-].Cc1oc(cc1)[C@H]2CCC[N+]2(C)C'
p6025
sg6
(lp6026
g8
(S'5.11'
p6027
tp6028
Rp6029
asg12
(lp6030
g2501
asg15
(lp6031
L2446360L
assL1604711L
(dp6032
g4
S'O=C(O[C@H]1C[N+]2(CCCc3oc4ccccc4n3)CCC1CC2)C5(CCCCCC5)C6=CC=CC6'
p6033
sg6
(lp6034
g8
(S'10.30'
p6035
tp6036
Rp6037
asg12
(lp6038
g2501
asg15
(lp6039
L13833269L
assL172008L
(dp6040
g4
S'CCCCc1[nH]c2ccc3OC4N(CCc5cc(OC)ccc45)Cc3c2c1C(=O)OCC'
p6041
sg6
(lp6042
g8
(S'6.82'
p6043
tp6044
Rp6045
asg12
(lp6046
g2501
asg15
(lp6047
L12629829L
assL1604713L
(dp6048
g4
S'O=C(C[N+]12CCC(CC1)[C@H](C2)OC(=O)C3(CCCCCC3)C4=CC=CC4)Nc5ccccc5'
p6049
sg6
(lp6050
g8
(S'9.60'
p6051
tp6052
Rp6053
asg12
(lp6054
g2501
asg15
(lp6055
L13833267L
assL334954L
(dp6056
g4
S'COC1(CN2CCC1CC2)C#CC(O)(C3CCCC3)c4ccccn4'
p6057
sg6
(lp6058
g8
(S'8.40'
p6059
tp6060
Rp6061
asg12
(lp6062
g2501
asg15
(lp6063
L1666543L
assL1604715L
(dp6064
g4
S'O=C(C[N+]12CCC(CC1)[C@H](C2)OC(=O)C3(CCCCCC3)C4=CC=CC4)N5CCOCC5'
p6065
sg6
(lp6066
g8
(S'7.00'
p6067
tp6068
Rp6069
asg12
(lp6070
g2501
asg15
(lp6071
L13833265L
assL1604717L
(dp6072
g4
S'Cc1onc(NC(=O)C[N+]23CCC(CC2)[C@H](C3)OC(=O)C4(CCCCCC4)C5=CC=CC5)c1'
p6073
sg6
(lp6074
g8
(S'9.80'
p6075
tp6076
Rp6077
asg12
(lp6078
g2501
asg15
(lp6079
L13833263L
assL1604718L
(dp6080
g4
S'O=C(C[N+]12CCC(CC1)[C@H](C2)OC(=O)C3(CCCCCC3)C4=CC=CC4)Nc5cc[nH]n5'
p6081
sg6
(lp6082
g8
(S'10.00'
p6083
tp6084
Rp6085
asg12
(lp6086
g2501
asg15
(lp6087
L13833262L
assL554095L
(dp6088
g4
S'[I-].Cc1oc(cc1)C2CCC[N+]2(C)C'
p6089
sg6
(lp6090
g8
(S'5.16'
p6091
tp6092
Rp6093
asg12
(lp6094
g2501
asg15
(lp6095
L2446361L
assL1604720L
(dp6096
g4
S'O=C(C[N+]12CCC(CC1)[C@H](C2)OC(=O)C3(CCCCCC3)C4=CC=CC4)Nc5ncns5'
p6097
sg6
(lp6098
g8
(S'9.40'
p6099
tp6100
Rp6101
asg12
(lp6102
g2501
asg15
(lp6103
L13833260L
assL554097L
(dp6104
g4
S'[I-].Cc1oc(cc1)[C@@H]2CCC[N+]2(C)C'
p6105
sg6
(lp6106
g8
(S'5.57'
p6107
tp6108
Rp6109
asg12
(lp6110
g2501
asg15
(lp6111
L2446359L
assL715838L
(dp6112
g4
S'Clc1ccc(CN2CCC3(CC2)CN(CCO3)C(=O)c4ccon4)cc1'
p6113
sg6
(lp6114
g8
(S'6.40'
p6115
tp6116
Rp6117
asg12
(lp6118
g2501
asg15
(lp6119
L3591701L
assL1074119L
(dp6120
g4
S'CCCCCCN1CCC(CC1)OC(=O)Nc2ccccc2c3ccccc3'
p6121
sg6
(lp6122
g8
(S'8.32'
p6123
tp6124
Rp6125
asg12
(lp6126
g2501
asg15
(lp6127
L5238406L
assL291960L
(dp6128
g4
S'NC(=O)C([C@@H]1CCN(CCc2ccc3OCCc3c2)C1)(c4ccccc4)c5ccccc5'
p6129
sg6
(lp6130
g8
(S'9.08'
p6131
tp6132
Rp6133
ag8
(S'8.89'
p6134
tp6135
Rp6136
ag8
(S'9.52'
p6137
tp6138
Rp6139
ag8
(S'9.10'
p6140
tp6141
Rp6142
asg12
(lp6143
g2501
ag2501
ag2501
ag2501
asg15
(lp6144
L1195096L
aL1666529L
aL5084190L
aL5084361L
assL334985L
(dp6145
g4
S'CO[C@@]1(CN2CCC1CC2)C#CC(O)(c3cccc(c3)C(F)(F)F)c4cccc(c4)C(F)(F)F'
p6146
sg6
(lp6147
g8
(S'6.00'
p6148
tp6149
Rp6150
asg12
(lp6151
g2501
asg15
(lp6152
L1666548L
assL1250443L
(dp6153
g4
S'NC(=O)C(CCCN1CC[C@@H](C1)Oc2ccccc2)(c3ccccc3)c4ccccc4'
p6154
sg6
(lp6155
g8
(S'8.72'
p6156
tp6157
Rp6158
asg12
(lp6159
g2501
asg15
(lp6160
L7844977L
assL1250444L
(dp6161
g4
S'CC(C)(CCC(C(=O)N)(c1ccccc1)c2ccccc2)N3CC[C@@H](C3)Oc4ccccc4'
p6162
sg6
(lp6163
g8
(S'8.74'
p6164
tp6165
Rp6166
asg12
(lp6167
g2501
asg15
(lp6168
L7844976L
assL1250445L
(dp6169
g4
S'CC(C)(CCC(C(=O)N)(c1ccccc1)c2ccccc2)N3CC[C@H](C3)Oc4ccccc4'
p6170
sg6
(lp6171
g8
(S'8.19'
p6172
tp6173
Rp6174
asg12
(lp6175
g2501
asg15
(lp6176
L7844975L
assL1250446L
(dp6177
g4
S'CC(C)(CCC(C(=O)N)(c1ccccc1)c2ccccc2)N3CC(C3)Oc4ccccc4'
p6178
sg6
(lp6179
g8
(S'9.96'
p6180
tp6181
Rp6182
asg12
(lp6183
g2501
asg15
(lp6184
L7844974L
assL1250447L
(dp6185
g4
S'CC(C)(CCC(C(=O)N)(c1ccccc1)c2ccccc2)N3CCC(CC3)Oc4ccccc4'
p6186
sg6
(lp6187
g8
(S'8.41'
p6188
tp6189
Rp6190
asg12
(lp6191
g2501
asg15
(lp6192
L7844973L
assL554128L
(dp6193
g4
S'[I-].C[N+]1(C)CCC[C@H]1[C@H]2C[S+]([O-])[C@@](O2)(C3CCCCC3)c4ccccc4'
p6194
sg6
(lp6195
g8
(S'7.11'
p6196
tp6197
Rp6198
ag8
(S'6.49'
p6199
tp6200
Rp6201
asg12
(lp6202
g2501
ag2501
asg15
(lp6203
L2338213L
aL2338215L
assL1250449L
(dp6204
g4
S'CC(C)(CCC(C(=O)N)(c1ccccc1)c2ccccc2)N3CC[C@@H](C3)Oc4cccc(O)c4'
p6205
sg6
(lp6206
g8
(S'9.74'
p6207
tp6208
Rp6209
asg12
(lp6210
g2501
asg15
(lp6211
L7845083L
assL191342L
(dp6212
g4
S'Clc1ccc2C(=C3CCNCC3)c4ncccc4CCc2c1'
p6213
sg6
(lp6214
g8
(S'6.35'
p6215
tp6216
Rp6217
ag8
(S'7.02'
p6218
tp6219
Rp6220
asg12
(lp6221
g2501
ag2501
asg15
(lp6222
L7700302L
aL7700303L
assL1250454L
(dp6223
g4
S'CC(C)(CCC(C(=O)N)(c1ccccc1)c2ccccc2)N3CC(C3)Oc4cccc(O)c4'
p6224
sg6
(lp6225
g8
(S'9.89'
p6226
tp6227
Rp6228
asg12
(lp6229
g2501
asg15
(lp6230
L7845084L
assL364954L
(dp6231
g4
S'COc1nsnc1OCCOCCOCCOCCOCCOc2nsnc2C3=CCCN(C)C3'
p6232
sg6
(lp6233
g8
(S'7.20'
p6234
tp6235
Rp6236
asg12
(lp6237
g2501
asg15
(lp6238
L1797304L
assL674975L
(dp6239
g4
S'[Br-].C[N+]1(C)[C@H]2C[C@@H](C[C@H]1[C@H]3O[C@@H]23)OC(=O)[C@H](CO)c4ccccc4'
p6240
sg6
(lp6241
g8
(S'8.95'
p6242
tp6243
Rp6244
ag8
(S'9.62'
p6245
tp6246
Rp6247
asg12
(lp6248
g2501
ag2501
asg15
(lp6249
L7751724L
aL7751725L
assL674978L
(dp6250
g4
S'[Br-].C[N+]1(C)CCC(C1)OC(=O)C(O)(C2CCCC2)c3ccccc3'
p6251
sg6
(lp6252
g8
(S'9.60'
p6253
tp6254
Rp6255
asg12
(lp6256
g2501
asg15
(lp6257
L3591683L
assL1594534L
(dp6258
g4
S'[Br-].C[N+]1(C)[C@@H]2CC[C@H]1C[C@@H](CC(CO)(c3ccccc3)c4ccccc4)C2'
p6259
sg6
(lp6260
g8
(S'8.60'
p6261
tp6262
Rp6263
asg12
(lp6264
g2501
asg15
(lp6265
L2701660L
assL1051505L
(dp6266
g4
S'[3H]c1ccc(cc1)C(O)(C(=O)OC2CN3CCC2CC3)c4ccc([3H])cc4'
p6267
sg6
(lp6268
g8
(S'10.05'
p6269
tp6270
Rp6271
asg12
(lp6272
g2501
asg15
(lp6273
L5084189L
assL486569L
(dp6274
g4
S'CN1CCC[C@@H]1[C@@H]2C[S+]([O-])[C@](O2)(C3CCCCC3)c4ccccc4'
p6275
sg6
(lp6276
g8
(S'6.70'
p6277
tp6278
Rp6279
ag8
(S'7.62'
p6280
tp6281
Rp6282
asg12
(lp6283
g2501
ag2501
asg15
(lp6284
L2338226L
aL2338228L
assL486570L
(dp6285
g4
S'CN1CCC[C@H]1[C@H]2C[S+]([O-])[C@@](O2)(C3CCCCC3)c4ccccc4'
p6286
sg6
(lp6287
g8
(S'6.46'
p6288
tp6289
Rp6290
ag8
(S'6.16'
p6291
tp6292
Rp6293
asg12
(lp6294
g2501
ag2501
asg15
(lp6295
L2338225L
aL2338227L
assL335020L
(dp6296
g4
S'CO[C@@]1(CN2CCC1CC2)C#CC(O)C3c4ccccc4C=Cc5ccccc35'
p6297
sg6
(lp6298
g8
(S'7.00'
p6299
tp6300
Rp6301
asg12
(lp6302
g2501
asg15
(lp6303
L1666547L
assL1594541L
(dp6304
g4
S'CN1[C@@H]2CC[C@H]1C[C@@H](CC(C#N)(c3ccccc3)c4ccccc4)C2'
p6305
sg6
(lp6306
g8
(S'9.80'
p6307
tp6308
Rp6309
asg12
(lp6310
g2501
asg15
(lp6311
L2701657L
assL715951L
(dp6312
g4
S'Clc1ccc(CN2CCC3(CC2)CN(CCO3)C(=O)c4cscn4)cc1'
p6313
sg6
(lp6314
g8
(S'6.80'
p6315
tp6316
Rp6317
asg12
(lp6318
g2501
asg15
(lp6319
L3591703L
assL715952L
(dp6320
g4
S'Cc1nc(cs1)C(=O)N2CCOC3(CCN(Cc4ccc(Cl)cc4)CC3)C2'
p6321
sg6
(lp6322
g8
(S'8.00'
p6323
tp6324
Rp6325
asg12
(lp6326
g2501
asg15
(lp6327
L3591704L
assL1594549L
(dp6328
g4
S'[Br-].C[N+]1(C)[C@@H]2CC[C@H]1C[C@@H](CC(O)(c3ccccc3)c4ccccc4)C2'
p6329
sg6
(lp6330
g8
(S'8.50'
p6331
tp6332
Rp6333
asg12
(lp6334
g2501
asg15
(lp6335
L2701656L
assL13494L
(dp6336
g4
S'Clc1ccccc1C(c2ccccc2)(c3ccccc3)n4ccnc4'
p6337
sg6
(lp6338
g8
(S'5.00'
p6339
tp6340
Rp6341
ag8
(S'5.68'
p6342
tp6343
Rp6344
asg12
(lp6345
g2501
ag2501
asg15
(lp6346
L7697620L
aL7697621L
assL1594553L
(dp6347
g4
S'CN1[C@@H]2CC[C@H]1C[C@@H](CC(O)(c3ccccc3)c4ccccc4)C2'
p6348
sg6
(lp6349
g8
(S'8.70'
p6350
tp6351
Rp6352
asg12
(lp6353
g2501
asg15
(lp6354
L2701655L
assL1605570L
(dp6355
g4
S'O=C(O[C@H]1C[N+]2(CCCOc3ccccc3)CCC1CC2)C4(CCCCCC4)C5=CC=CC5'
p6356
sg6
(lp6357
g8
(S'10.20'
p6358
tp6359
Rp6360
asg12
(lp6361
g2501
asg15
(lp6362
L13833276L
assL1594570L
(dp6363
g4
S'CN1[C@@H]2CC[C@H]1C[C@@H](CC(CO)(c3ccccc3)c4ccccc4)C2'
p6364
sg6
(lp6365
g8
(S'8.60'
p6366
tp6367
Rp6368
asg12
(lp6369
g2501
asg15
(lp6370
L2701659L
assL1265527L
(dp6371
g4
S'C[C@@](N1CCCCC1)(C(=O)O[C@H]2C[N+]3(CCCOc4ccc(F)cc4)CCC2CC3)c5cccs5'
p6372
sg6
(lp6373
g8
(S'10.10'
p6374
tp6375
Rp6376
asg12
(lp6377
g2501
asg15
(lp6378
L7947376L
assL562386L
(dp6379
g4
S'[Br-].O=C(O[C@H]1C[N+]2(CCCOc3ccccc3)CCC1CC2)C(c4cccs4)c5cccs5'
p6380
sg6
(lp6381
g8
(S'9.43'
p6382
tp6383
Rp6384
asg12
(lp6385
g2501
asg15
(lp6386
L2708945L
assL335060L
(dp6387
g4
S'COC1(CN2CCC1CC2)C#CC(O)(C3CCC3)c4ccccn4'
p6388
sg6
(lp6389
g8
(S'7.70'
p6390
tp6391
Rp6392
asg12
(lp6393
g2501
asg15
(lp6394
L1666542L
assL335067L
(dp6395
g4
S'COC1(CN2CCC1CC2)C#CC(O)(c3ccccc3)c4ccccn4'
p6396
sg6
(lp6397
g8
(S'8.00'
p6398
tp6399
Rp6400
asg12
(lp6401
g2501
asg15
(lp6402
L1666541L
assL335068L
(dp6403
g4
S'COC1(CN2CCC1CC2)C#CC(O)(c3ccccc3)c4cccnc4'
p6404
sg6
(lp6405
g8
(S'9.40'
p6406
tp6407
Rp6408
asg12
(lp6409
g2501
asg15
(lp6410
L1666540L
assL562399L
(dp6411
g4
S'OC1(C(=O)O[C@H]2CN3CCC2CC3)c4ccccc4c5ccccc15'
p6412
sg6
(lp6413
g8
(S'9.04'
p6414
tp6415
Rp6416
asg12
(lp6417
g2501
asg15
(lp6418
L2708921L
assL1348833L
(dp6419
g4
S'[I-].C[N+](C)(C)C[C@@H]1COC[C@@H](O1)c2ccccc2'
p6420
sg6
(lp6421
g8
(S'5.01'
p6422
tp6423
Rp6424
asg12
(lp6425
g2501
asg15
(lp6426
L10927305L
assL562402L
(dp6427
g4
S'[Br-].OC(C(=O)O[C@H]1C[N+]2(CCc3ccccc3)CCC1CC2)(c4cccs4)c5cccs5'
p6428
sg6
(lp6429
g8
(S'9.70'
p6430
tp6431
Rp6432
asg12
(lp6433
g2501
asg15
(lp6434
L2708934L
assL1348835L
(dp6435
g4
S'[I-].C[N+](C)(C)CC1COCC(O1)(c2ccccc2)c3ccccc3'
p6436
sg6
(lp6437
g8
(S'8.44'
p6438
tp6439
Rp6440
asg12
(lp6441
g2501
asg15
(lp6442
L10927303L
assL562404L
(dp6443
g4
S'[Br-].OC(C(=O)O[C@H]1C[N+]2(CCCOc3ccccc3)CCC1CC2)(c4cccs4)c5cccs5'
p6444
sg6
(lp6445
g8
(S'9.77'
p6446
tp6447
Rp6448
ag8
(S'9.90'
p6449
tp6450
Rp6451
asg12
(lp6452
g2501
ag2501
asg15
(lp6453
L2708936L
aL3591684L
assL1348837L
(dp6454
g4
S'[I-].C[N+](C)(C)C[C@@H]1COCC(O1)(c2ccccc2)c3ccccc3'
p6455
sg6
(lp6456
g8
(S'7.21'
p6457
tp6458
Rp6459
asg12
(lp6460
g2501
asg15
(lp6461
L10927301L
assL1348838L
(dp6462
g4
S'[I-].C[N+](C)(C)C[C@@H]1COC[C@@H](O1)C(c2ccccc2)c3ccccc3'
p6463
sg6
(lp6464
g8
(S'5.05'
p6465
tp6466
Rp6467
asg12
(lp6468
g2501
asg15
(lp6469
L10927300L
assL562407L
(dp6470
g4
S'[Br-].OC1(C(=O)O[C@H]2C[N+]3(CCCOc4ccccc4)CCC2CC3)c5ccccc5Oc6ccccc16'
p6471
sg6
(lp6472
g8
(S'8.98'
p6473
tp6474
Rp6475
asg12
(lp6476
g2501
asg15
(lp6477
L2708939L
assL1604840L
(dp6478
g4
S'O=C(C[N+]12CCC(CC1)[C@@H](C2)OC(=O)C3(CCCCCC3)C4=CC=CC4)Nc5ccccn5'
p6479
sg6
(lp6480
g8
(S'7.50'
p6481
tp6482
Rp6483
asg12
(lp6484
g2501
asg15
(lp6485
L13833256L
assL1604841L
(dp6486
g4
S'O=C(C[N+]12CCC(CC1)[C@H](C2)OC(=O)C3(CCCCCC3)C4=CC=CC4)Nc5cccnc5'
p6487
sg6
(lp6488
g8
(S'9.70'
p6489
tp6490
Rp6491
asg12
(lp6492
g2501
asg15
(lp6493
L13833255L
assL586555L
(dp6494
g4
S'CCCCCCCCN[C@H](C)[C@@H](O)c1ccc(SC(C)C)cc1'
p6495
sg6
(lp6496
g8
(S'5.34'
p6497
tp6498
Rp6499
ag8
(S'6.01'
p6500
tp6501
Rp6502
asg12
(lp6503
g2501
ag2501
asg15
(lp6504
L7812328L
aL7812329L
assL1604843L
(dp6505
g4
S'O=C(C[N+]12CCC(CC1)[C@H](C2)OC(=O)C3(CCCCCC3)C4=CC=CC4)Nc5cncnc5'
p6506
sg6
(lp6507
g8
(S'9.20'
p6508
tp6509
Rp6510
asg12
(lp6511
g2501
asg15
(lp6512
L13833253L
assL1604844L
(dp6513
g4
S'O=C(C[N+]12CCC(CC1)[C@H](C2)OC(=O)C3(CCCCCC3)C4=CC=CC4)Nc5ccncn5'
p6514
sg6
(lp6515
g8
(S'9.80'
p6516
tp6517
Rp6518
asg12
(lp6519
g2501
asg15
(lp6520
L13833252L
assL1604845L
(dp6521
g4
S'O=C(C[N+]12CCC(CC1)[C@H](C2)OC(=O)C3(CCCCCC3)C4=CC=CC4)Nc5cccnn5'
p6522
sg6
(lp6523
g8
(S'9.80'
p6524
tp6525
Rp6526
asg12
(lp6527
g2501
asg15
(lp6528
L13833251L
assL1265533L
(dp6529
g4
S'C[C@@](N1CCCCC1)(C(=O)O[C@H]2C[N+]3(CC(=O)Nc4ccccc4)CCC2CC3)c5cccs5'
p6530
sg6
(lp6531
g8
(S'9.70'
p6532
tp6533
Rp6534
asg12
(lp6535
g2501
asg15
(lp6536
L7947370L
assL1604848L
(dp6537
g4
S'Cc1ccc(NC(=O)C[N+]23CCC(CC2)[C@H](C3)OC(=O)C4(CCCCCC4)C5=CC=CC5)nc1'
p6538
sg6
(lp6539
g8
(S'9.30'
p6540
tp6541
Rp6542
asg12
(lp6543
g2501
asg15
(lp6544
L13833248L
assL1604849L
(dp6545
g4
S'Fc1ccc(NC(=O)C[N+]23CCC(CC2)[C@H](C3)OC(=O)C4(CCCCCC4)C5=CC=CC5)nc1'
p6546
sg6
(lp6547
g8
(S'9.20'
p6548
tp6549
Rp6550
asg12
(lp6551
g2501
asg15
(lp6552
L13833247L
assL1604850L
(dp6553
g4
S'Cc1ccnc(NC(=O)C[N+]23CCC(CC2)[C@H](C3)OC(=O)C4(CCCCCC4)C5=CC=CC5)c1'
p6554
sg6
(lp6555
g8
(S'9.10'
p6556
tp6557
Rp6558
asg12
(lp6559
g2501
asg15
(lp6560
L13833246L
assL1604851L
(dp6561
g4
S'FC(F)(F)c1cccc(NC(=O)C[N+]23CCC(CC2)[C@H](C3)OC(=O)C4(CCCCCC4)C5=CC=CC5)n1'
p6562
sg6
(lp6563
g8
(S'8.60'
p6564
tp6565
Rp6566
asg12
(lp6567
g2501
asg15
(lp6568
L13833245L
assL1604852L
(dp6569
g4
S'FC(F)(F)c1ccc(NC(=O)C[N+]23CCC(CC2)[C@H](C3)OC(=O)C4(CCCCCC4)C5=CC=CC5)cn1'
p6570
sg6
(lp6571
g8
(S'9.60'
p6572
tp6573
Rp6574
asg12
(lp6575
g2501
asg15
(lp6576
L13833244L
assL31989L
(dp6577
g4
S'CCN(CC)CCOC(=O)C(C)(c1ccccc1)c2ccccc2'
p6578
sg6
(lp6579
g8
(S'5.11'
p6580
tp6581
Rp6582
asg12
(lp6583
g2501
asg15
(lp6584
L13288575L
assL1604854L
(dp6585
g4
S'Cc1nccc(NC(=O)C[N+]23CCC(CC2)[C@H](C3)OC(=O)C4(CCCCCC4)C5=CC=CC5)n1'
p6586
sg6
(lp6587
g8
(S'9.40'
p6588
tp6589
Rp6590
asg12
(lp6591
g2501
asg15
(lp6592
L13833242L
assL1604855L
(dp6593
g4
S'Cc1cc(NC(=O)C[N+]23CCC(CC2)[C@H](C3)OC(=O)C4(CCCCCC4)C5=CC=CC5)ncn1'
p6594
sg6
(lp6595
g8
(S'9.00'
p6596
tp6597
Rp6598
asg12
(lp6599
g2501
asg15
(lp6600
L13833241L
assL1604856L
(dp6601
g4
S'Cc1ccc(NC(=O)C[N+]23CCC(CC2)[C@H](C3)OC(=O)C4(CCCCCC4)C5=CC=CC5)nn1'
p6602
sg6
(lp6603
g8
(S'9.10'
p6604
tp6605
Rp6606
asg12
(lp6607
g2501
asg15
(lp6608
L13833240L
assL1074124L
(dp6609
g4
S'CCCCCCCCCCCN1CCC(CC1)OC(=O)Nc2ccccc2c3ccccc3'
p6610
sg6
(lp6611
g8
(S'7.32'
p6612
tp6613
Rp6614
asg12
(lp6615
g2501
asg15
(lp6616
L5238411L
assL1605428L
(dp6617
g4
S'FC(F)(F)c1ccc(NC(=O)C[N+]23CCC(CC2)[C@H](C3)OC(=O)C4(CCCCCC4)C5=CC=CC5)nn1'
p6618
sg6
(lp6619
g8
(S'8.60'
p6620
tp6621
Rp6622
asg12
(lp6623
g2501
asg15
(lp6624
L13833239L
assL335122L
(dp6625
g4
S'CO[C@@]1(CN2CCC1CC2)C#C[C@@](O)(c3ccccc3)c4cccnc4'
p6626
sg6
(lp6627
g8
(S'9.60'
p6628
tp6629
Rp6630
asg12
(lp6631
g2501
asg15
(lp6632
L1666539L
assL335128L
(dp6633
g4
S'CO[C@@]1(CN2CCC1CC2)C#C[C@](O)(c3ccccc3)c4cccnc4'
p6634
sg6
(lp6635
g8
(S'7.89'
p6636
tp6637
Rp6638
asg12
(lp6639
g2501
asg15
(lp6640
L1666538L
assL335129L
(dp6641
g4
S'COC1(CN2CCC1CC2)C#CC(O)(c3ccccc3)c4ccncc4'
p6642
sg6
(lp6643
g8
(S'8.89'
p6644
tp6645
Rp6646
asg12
(lp6647
g2501
asg15
(lp6648
L1666537L
assL716061L
(dp6649
g4
S'Cc1nc(cs1)C(=O)N2CCOC3(CCN(Cc4cccc(Cl)c4)CC3)C2'
p6650
sg6
(lp6651
g8
(S'8.90'
p6652
tp6653
Rp6654
asg12
(lp6655
g2501
asg15
(lp6656
L3591705L
assL716062L
(dp6657
g4
S'Cc1nc(cs1)C(=O)N2CCOC3(CCN(Cc4ccccc4Cl)CC3)C2'
p6658
sg6
(lp6659
g8
(S'8.10'
p6660
tp6661
Rp6662
asg12
(lp6663
g2501
asg15
(lp6664
L3591706L
assL335135L
(dp6665
g4
S'CO[C@@]1(CN2CCC1CC2)C#CC(O)(c3cccnc3)c4cccnc4'
p6666
sg6
(lp6667
g8
(S'7.30'
p6668
tp6669
Rp6670
asg12
(lp6671
g2501
asg15
(lp6672
L1666536L
assL27937L
(dp6673
g4
S'C[C@H]1CCC[C@H](\\C=C\\[C@@H]2[C@H]3CCCC[C@@H]3C[C@H]4[C@@H]2[C@H](C)OC4=O)N1C'
p6674
sg6
(lp6675
g8
(S'7.20'
p6676
tp6677
Rp6678
asg12
(lp6679
g2501
asg15
(lp6680
L5084360L
assL118069L
(dp6681
g4
S'[Cl-].C[N+](C)(C)CC#CCOC(=O)Nc1cccc(Cl)c1'
p6682
sg6
(lp6683
g8
(S'5.62'
p6684
tp6685
Rp6686
asg12
(lp6687
g2501
asg15
(lp6688
L3075008L
assL343351L
(dp6689
g4
S'Cc1c(NC2CC2)nc(nc1N3CCC(O)CC3)C4CC4'
p6690
sg6
(lp6691
g8
(S'6.30'
p6692
tp6693
Rp6694
asg12
(lp6695
g2501
asg15
(lp6696
L1702731L
assL343358L
(dp6697
g4
S'Cc1c(NC2CC2)nc(nc1N3CCC(=O)CC3)C4CC4'
p6698
sg6
(lp6699
g8
(S'5.49'
p6700
tp6701
Rp6702
asg12
(lp6703
g2501
asg15
(lp6704
L1702730L
assL343359L
(dp6705
g4
S'Cc1c(NC2CC2)nc(nc1N3CCCCC3)C4CC4'
p6706
sg6
(lp6707
g8
(S'7.89'
p6708
tp6709
Rp6710
asg12
(lp6711
g2501
asg15
(lp6712
L1702729L
assL427328L
(dp6713
g4
S'[Br-].C[N+]1(C)[C@@H]2C[C@@H](C[C@@H]1[C@H]3O[C@@H]23)OC(=O)C(O)(c4cccs4)c5cccs5'
p6714
sg6
(lp6715
g8
(S'9.46'
p6716
tp6717
Rp6718
ag8
(S'10.30'
p6719
tp6720
Rp6721
ag8
(S'10.47'
p6722
tp6723
Rp6724
ag8
(S'10.12'
p6725
tp6726
Rp6727
ag8
(S'10.80'
p6728
tp6729
Rp6730
ag8
(S'11.00'
p6731
tp6732
Rp6733
asg12
(lp6734
g2501
ag2501
ag2501
ag2501
ag2501
ag2501
asg15
(lp6735
L2709740L
aL3591682L
aL5238429L
aL7844972L
aL13846945L
aL13846949L
assL114912L
(dp6736
g4
S'CCOC(=O)N1CCC(CC1)N2CCC(CC2)C(=C)c3ccc(cc3)S(=O)(=O)c4ccc(OC)cc4'
p6737
sg6
(lp6738
g8
(S'8.43'
p6739
tp6740
Rp6741
asg12
(lp6742
g2501
asg15
(lp6743
L349954L
assL1144231L
(dp6744
g4
S'CC(C)N(CC[C@H](c1ccccc1)c2cc(CCCNC(=O)Cc3cccc(CC(C)(C)NC[C@H](O)c4ccc(O)c(CO)c4)c3)ccc2O)C(C)C'
p6745
sg6
(lp6746
g8
(S'10.04'
p6747
tp6748
Rp6749
asg12
(lp6750
g2501
asg15
(lp6751
L6185841L
assL675154L
(dp6752
g4
S'CN1[C@@H]2CC[C@H]1C[C@H](C2)OC(c3ccccc3)c4ccccc4'
p6753
sg6
(lp6754
g8
(S'8.89'
p6755
tp6756
Rp6757
ag8
(S'9.57'
p6758
tp6759
Rp6760
asg12
(lp6761
g2501
ag2501
asg15
(lp6762
L7617941L
aL7617942L
assL675158L
(dp6763
g4
S'C[C@H]1C[C@H]2[C@@H]3CCC4=CC(=O)C=C[C@]4(C)[C@@]3(F)[C@@H](O)C[C@]2(C)[C@@]1(O)C(=O)COP(=O)(O)O'
p6764
sg6
(lp6765
g8
(S'5.19'
p6766
tp6767
Rp6768
ag8
(S'5.87'
p6769
tp6770
Rp6771
asg12
(lp6772
g2501
ag2501
asg15
(lp6773
L7621027L
aL7621028L
assL1348836L
(dp6774
g4
S'[I-].C[N+](C)(C)C[C@H]1COCC(O1)(c2ccccc2)c3ccccc3'
p6775
sg6
(lp6776
g8
(S'8.83'
p6777
tp6778
Rp6779
asg12
(lp6780
g2501
asg15
(lp6781
L10927302L
assL1511397L
(dp6782
g4
S'CN1CCC(=C(C1)C(=O)OCCc2ccc3OCCc3c2)c4ccccc4F'
p6783
sg6
(lp6784
g8
(S'5.31'
p6785
tp6786
Rp6787
asg12
(lp6788
g2501
asg15
(lp6789
L12627783L
assL1604838L
(dp6790
g4
S'CC(C)(C)c1onc(NC(=O)C[N+]23CCC(CC2)[C@H](C3)OC(=O)C4(CCCCCC4)C5=CC=CC5)c1'
p6791
sg6
(lp6792
g8
(S'8.00'
p6793
tp6794
Rp6795
asg12
(lp6796
g2501
asg15
(lp6797
L13833258L
assL1604839L
(dp6798
g4
S'O=C(C[N+]12CCC(CC1)[C@H](C2)OC(=O)C3(CCCCCC3)C4=CC=CC4)Nc5ccccn5'
p6799
sg6
(lp6800
g8
(S'9.80'
p6801
tp6802
Rp6803
asg12
(lp6804
g2501
asg15
(lp6805
L13833257L
assL443757L
(dp6806
g4
S'CCCCCCCCCC(OC(=O)C(CCCCN(O)C(=O)C)NC(=O)c1coc(n1)c2ccccc2O)C(C)C(=O)NC3CCCCN(O)C3=O'
p6807
sg6
(lp6808
g8
(S'5.23'
p6809
tp6810
Rp6811
ag8
(S'5.90'
p6812
tp6813
Rp6814
asg12
(lp6815
g2501
ag2501
asg15
(lp6816
L2544777L
aL2544783L
assL443758L
(dp6817
g4
S'CCCCCCCCCCCC(OC(=O)C(CCCCN(O)C(=O)C)NC(=O)c1coc(n1)c2ccccc2O)C(C)C(=O)NC3CCCCN(O)C3=O'
p6818
sg6
(lp6819
g8
(S'6.20'
p6820
tp6821
Rp6822
ag8
(S'6.89'
p6823
tp6824
Rp6825
asg12
(lp6826
g2501
ag2501
asg15
(lp6827
L2544778L
aL2544784L
assL357743L
(dp6828
g4
S'O[C@@H]1C[C@H](N(C1)C(=O)CC(c2ccc(F)cc2)(c3ccc(F)cc3)c4ccc(F)cc4)C(=O)N5CCC[C@@H]5C(=O)NCC6CCN(CC7CCC7)CC6'
p6829
sg6
(lp6830
g8
(S'9.28'
p6831
tp6832
Rp6833
asg12
(lp6834
g2501
asg15
(lp6835
L1763995L
assL443760L
(dp6836
g4
S'CCCCCCCCCCCCCC(OC(=O)C(CCCCN(O)C(=O)C)NC(=O)c1coc(n1)c2ccccc2O)C(C)C(=O)NC3CCCCN(O)C3=O'
p6837
sg6
(lp6838
g8
(S'5.96'
p6839
tp6840
Rp6841
ag8
(S'6.64'
p6842
tp6843
Rp6844
asg12
(lp6845
g2501
ag2501
asg15
(lp6846
L2544780L
aL2544786L
assL357745L
(dp6847
g4
S'CC(C)NC(=O)[C@H]1CCCN1C(=O)[C@@H]2C[C@@H](O)CN2C(=O)CC(c3ccc(F)cc3)(c4ccc(F)cc4)c5ccc(F)cc5'
p6848
sg6
(lp6849
g8
(S'8.62'
p6850
tp6851
Rp6852
asg12
(lp6853
g2501
asg15
(lp6854
L1763993L
assL443762L
(dp6855
g4
S'CCCCCCCCCCCCCCCC(OC(=O)C(CCCCN(O)C(=O)C)NC(=O)c1coc(n1)c2ccccc2O)C(C)C(=O)NC3CCCCN(O)C3=O'
p6856
sg6
(lp6857
g8
(S'5.20'
p6858
tp6859
Rp6860
ag8
(S'5.88'
p6861
tp6862
Rp6863
asg12
(lp6864
g2501
ag2501
asg15
(lp6865
L2544782L
aL2544788L
assL357747L
(dp6866
g4
S'O[C@@H]1C[C@H](N(C1)C(=O)CC(c2ccc(F)cc2)(c3ccc(F)cc3)c4ccc(F)cc4)C(=O)N5CCC[C@@H]5C(=O)NCC6CCN(CC6)C7CCCC7'
p6867
sg6
(lp6868
g8
(S'9.29'
p6869
tp6870
Rp6871
asg12
(lp6872
g2501
asg15
(lp6873
L1763992L
assL1348984L
(dp6874
g4
S'CN(C)CC1COCC(O1)(c2ccccc2)c3ccccc3.OC(=O)C(=O)O'
p6875
sg6
(lp6876
g8
(S'8.66'
p6877
tp6878
Rp6879
asg12
(lp6880
g2501
asg15
(lp6881
L10927298L
assL1348985L
(dp6882
g4
S'CN(C)C[C@H]1COCC(O1)(c2ccccc2)c3ccccc3.OC(=O)C(=O)O'
p6883
sg6
(lp6884
g8
(S'8.82'
p6885
tp6886
Rp6887
asg12
(lp6888
g2501
asg15
(lp6889
L10927297L
assL1348986L
(dp6890
g4
S'CN(C)C[C@@H]1COCC(O1)(c2ccccc2)c3ccccc3.OC(=O)C(=O)O'
p6891
sg6
(lp6892
g8
(S'7.14'
p6893
tp6894
Rp6895
asg12
(lp6896
g2501
asg15
(lp6897
L10927296L
assL335228L
(dp6898
g4
S'CO[C@]1(CN2CCC1CC2)C#CC(O)(c3ccccc3)c4ccccc4'
p6899
sg6
(lp6900
g8
(S'7.20'
p6901
tp6902
Rp6903
asg12
(lp6904
g2501
asg15
(lp6905
L1666563L
assL335229L
(dp6906
g4
S'CO[C@@]1(CN2CCC1CC2)C#CC(O)(C3CCCCC3)c4ccccc4'
p6907
sg6
(lp6908
g8
(S'9.70'
p6909
tp6910
Rp6911
asg12
(lp6912
g2501
asg15
(lp6913
L1666562L
assL343422L
(dp6914
g4
S'Cc1c(NC2CC2)nc(nc1N3CCSCC3)C4CC4'
p6915
sg6
(lp6916
g8
(S'7.10'
p6917
tp6918
Rp6919
asg12
(lp6920
g2501
asg15
(lp6921
L1702686L
assL357760L
(dp6922
g4
S'NCC1CCN(CC1)C(=O)[C@H]2CCCN2C(=O)[C@@H]3CCCN3C(=O)CC(c4ccccc4)(c5ccccc5)c6ccccc6.OC(=O)C(F)(F)F'
p6923
sg6
(lp6924
g8
(S'6.82'
p6925
tp6926
Rp6927
asg12
(lp6928
g2501
asg15
(lp6929
L1763923L
assL357761L
(dp6930
g4
S'OC(=O)C(F)(F)F.O=C(CC(c1ccccc1)(c2ccccc2)c3ccccc3)N4CCC[C@H]4C(=O)N5CCC[C@@H]5C(=O)NCC6CCNCC6'
p6931
sg6
(lp6932
g8
(S'7.31'
p6933
tp6934
Rp6935
asg12
(lp6936
g2501
asg15
(lp6937
L1763924L
assL357763L
(dp6938
g4
S'OC(=O)C(F)(F)F.O=C(CC(c1ccccc1)(c2ccccc2)c3ccccc3)N4CCC[C@H]4C(=O)N5CCC[C@@H]5C(=O)NC[C@@H]6CCCNC6'
p6939
sg6
(lp6940
g8
(S'7.64'
p6941
tp6942
Rp6943
asg12
(lp6944
g2501
asg15
(lp6945
L1763925L
assL716167L
(dp6946
g4
S'CCc1nc(cs1)C(=O)N2CCOC3(CCN(Cc4ccc(Cl)cc4)CC3)C2'
p6947
sg6
(lp6948
g8
(S'7.80'
p6949
tp6950
Rp6951
asg12
(lp6952
g2501
asg15
(lp6953
L3591707L
assL34197L
(dp6954
g4
S'CN1CCN(CC1)C2=Nc3ccccc3Nc4sc(C)cc24'
p6955
sg6
(lp6956
g8
(S'6.41'
p6957
tp6958
Rp6959
ag8
(S'7.08'
p6960
tp6961
Rp6962
asg12
(lp6963
g2501
ag2501
asg15
(lp6964
L7735922L
aL7735923L
assL1559108L
(dp6965
g4
S'CCN(CC)CCOC(=O)c1ccccc1Sc2ccc(Cl)cc2'
p6966
sg6
(lp6967
g8
(S'6.96'
p6968
tp6969
Rp6970
asg12
(lp6971
g2501
asg15
(lp6972
L13288585L
assL1604847L
(dp6973
g4
S'Fc1cccnc1NC(=O)C[N+]23CCC(CC2)[C@H](C3)OC(=O)C4(CCCCCC4)C5=CC=CC5'
p6974
sg6
(lp6975
g8
(S'9.60'
p6976
tp6977
Rp6978
asg12
(lp6979
g2501
asg15
(lp6980
L13833249L
assL654234L
(dp6981
g4
S'CCN1CCC(=C(C1)C(=O)OC)c2ccccc2'
p6982
sg6
(lp6983
g8
(S'5.26'
p6984
tp6985
Rp6986
asg12
(lp6987
g2501
asg15
(lp6988
L12629812L
assL343460L
(dp6989
g4
S'CC1CCN(CC1)c2nc(nc(NC3CC3)c2C)C4CC4'
p6990
sg6
(lp6991
g8
(S'7.80'
p6992
tp6993
Rp6994
asg12
(lp6995
g2501
asg15
(lp6996
L1702728L
assL155045L
(dp6997
g4
S'Clc1ccc2Oc3ccccc3N=C(N4CCNCC4)c2c1'
p6998
sg6
(lp6999
g8
(S'5.75'
p7000
tp7001
Rp7002
ag8
(S'6.42'
p7003
tp7004
Rp7005
asg12
(lp7006
g2501
ag2501
asg15
(lp7007
L7624173L
aL7624174L
assL335271L
(dp7008
g4
S'CO[C@@]1(CN2CCC1CC2)C#C[C@](O)(C3CCCCC3)c4ccccc4'
p7009
sg6
(lp7010
g8
(S'8.49'
p7011
tp7012
Rp7013
asg12
(lp7014
g2501
asg15
(lp7015
L1666560L
assL1144232L
(dp7016
g4
S'CC(C)N(CC[C@H](c1ccccc1)c2cc(CCCNC(=O)Cc3cccc(CC(C)(C)NC[C@H](O)c4ccc(O)c(NS(=O)(=O)C)c4)c3)ccc2O)C(C)C'
p7017
sg6
(lp7018
g8
(S'9.56'
p7019
tp7020
Rp7021
asg12
(lp7022
g2501
asg15
(lp7023
L6185842L
assL357801L
(dp7024
g4
S'NC1CCCC(C1)NC(=O)[C@H]2CCCN2C(=O)[C@@H]3CCCN3C(=O)CC(c4ccccc4)(c5ccccc5)c6ccccc6.OC(=O)C(F)(F)F'
p7025
sg6
(lp7026
g8
(S'6.77'
p7027
tp7028
Rp7029
asg12
(lp7030
g2501
asg15
(lp7031
L1763927L
assL335278L
(dp7032
g4
S'COC1(CN2CCC1CC2)C#CC(O)(C3CCCC3)c4ccccc4'
p7033
sg6
(lp7034
g8
(S'9.60'
p7035
tp7036
Rp7037
asg12
(lp7038
g2501
asg15
(lp7039
L1666559L
assL335279L
(dp7040
g4
S'COC1(CN2CCC1CC2)C#CC(O)(C3CCC3)c4ccccc4'
p7041
sg6
(lp7042
g8
(S'9.00'
p7043
tp7044
Rp7045
asg12
(lp7046
g2501
asg15
(lp7047
L1666558L
assL499120L
(dp7048
g4
S'[Br-].OC(c1ccccc1)(c2ccccc2)C34CC[N+](CCOCc5ccccc5)(CC3)CC4'
p7049
sg6
(lp7050
g8
(S'10.22'
p7051
tp7052
Rp7053
asg12
(lp7054
g2501
asg15
(lp7055
L2421828L
assL357809L
(dp7056
g4
S'N[C@H]1CCCC[C@@H]1NC(=O)[C@H]2CCCN2C(=O)[C@@H]3CCCN3C(=O)CC(c4ccccc4)(c5ccccc5)c6ccccc6.OC(=O)C(F)(F)F'
p7057
sg6
(lp7058
g8
(S'7.32'
p7059
tp7060
Rp7061
asg12
(lp7062
g2501
asg15
(lp7063
L1763928L
assL1559113L
(dp7064
g4
S'CCN(CC)CCOC(=O)C(O)(C1CCCCC1)c2cccs2'
p7065
sg6
(lp7066
g8
(S'8.18'
p7067
tp7068
Rp7069
asg12
(lp7070
g2501
asg15
(lp7071
L13288582L
assL1559114L
(dp7072
g4
S'CN1CCC(CC1)OC(=O)C(CO)c2cccc(c2)C(F)(F)F'
p7073
sg6
(lp7074
g8
(S'7.95'
p7075
tp7076
Rp7077
asg12
(lp7078
g2501
asg15
(lp7079
L13288581L
assL1604853L
(dp7080
g4
S'Cc1ccc(NC(=O)C[N+]23CCC(CC2)[C@H](C3)OC(=O)C4(CCCCCC4)C5=CC=CC5)cn1'
p7081
sg6
(lp7082
g8
(S'9.10'
p7083
tp7084
Rp7085
asg12
(lp7086
g2501
asg15
(lp7087
L13833243L
assL1559115L
(dp7088
g4
S'CCN(CC)CCOC(=O)C(c1ccccc1)C2(O)CCCCC2'
p7089
sg6
(lp7090
g8
(S'8.08'
p7091
tp7092
Rp7093
asg12
(lp7094
g2501
asg15
(lp7095
L13288580L
assL560592L
(dp7096
g4
S'O=C(O[C@H]1CN2CCC1CC2)C3c4ccccc4Oc5ccccc35'
p7097
sg6
(lp7098
g8
(S'9.12'
p7099
tp7100
Rp7101
asg12
(lp7102
g2501
asg15
(lp7103
L2708919L
assL368083L
(dp7104
g4
S'[Cl-].CC(C)(C)CC(C)(C)c1ccc(OCCOCC[N+](C)(C)Cc2ccccc2)cc1'
p7105
sg6
(lp7106
g8
(S'6.42'
p7107
tp7108
Rp7109
ag8
(S'7.09'
p7110
tp7111
Rp7112
asg12
(lp7113
g2501
ag2501
asg15
(lp7114
L7600801L
aL7600802L
assL560596L
(dp7115
g4
S'O[C@](C1CCCC1)(C(=O)O[C@H]2CN3CCC2CC3)c4cccs4'
p7116
sg6
(lp7117
g8
(S'9.15'
p7118
tp7119
Rp7120
asg12
(lp7121
g2501
asg15
(lp7122
L2708927L
assL62934L
(dp7123
g4
S'Clc1ccc2Nc3ccccc3C(=Nc2c1)N4CCNCC4'
p7124
sg6
(lp7125
g8
(S'7.05'
p7126
tp7127
Rp7128
asg12
(lp7129
g2501
asg15
(lp7130
L3430245L
assL560599L
(dp7131
g4
S'[Br-].CCCCCCC[N+]12CCC(CC1)[C@H](C2)OC(=O)C(O)(c3cccs3)c4cccs4'
p7132
sg6
(lp7133
g8
(S'9.41'
p7134
tp7135
Rp7136
asg12
(lp7137
g2501
asg15
(lp7138
L2708932L
assL1383332L
(dp7139
g4
S'CCN(CC)CCOC(=O)C(N1CCCCC1)c2ccccc2'
p7140
sg6
(lp7141
g8
(S'6.73'
p7142
tp7143
Rp7144
asg12
(lp7145
g2501
asg15
(lp7146
L13288584L
assL560602L
(dp7147
g4
S'[Br-].OC(C(=O)O[C@H]1C[N+]2(CCCCc3ccccc3)CCC1CC2)(c4cccs4)c5cccs5'
p7148
sg6
(lp7149
g8
(S'9.35'
p7150
tp7151
Rp7152
asg12
(lp7153
g2501
asg15
(lp7154
L2708935L
assL560603L
(dp7155
g4
S'[Br-].O[C@](C1CCCC1)(C(=O)O[C@H]2C[N+]3(CCCOc4ccccc4)CCC2CC3)c5cccs5'
p7156
sg6
(lp7157
g8
(S'8.79'
p7158
tp7159
Rp7160
asg12
(lp7161
g2501
asg15
(lp7162
L2708942L
assL1074131L
(dp7163
g4
S'NCCCCCCCCN1CCC(CC1)OC(=O)Nc2ccccc2c3ccccc3'
p7164
sg6
(lp7165
g8
(S'8.74'
p7166
tp7167
Rp7168
asg12
(lp7169
g2501
asg15
(lp7170
L5238418L
assL675304L
(dp7171
g4
S'CN(C)CC[C@@H](c1ccc(Cl)cc1)c2ccccn2'
p7172
sg6
(lp7173
g8
(S'5.59'
p7174
tp7175
Rp7176
ag8
(S'6.26'
p7177
tp7178
Rp7179
asg12
(lp7180
g2501
ag2501
asg15
(lp7181
L7678875L
aL7678876L
assL1144297L
(dp7182
g4
S'CC(C)N(CC[C@H](c1ccccc1)c2cc(CCNC[C@H](O)c3ccc(O)c(NS(=O)(=O)C)c3)ccc2O)C(C)C'
p7183
sg6
(lp7184
g8
(S'8.21'
p7185
tp7186
Rp7187
asg12
(lp7188
g2501
asg15
(lp7189
L6185844L
assL1144298L
(dp7190
g4
S'CC(C)N(CC[C@H](c1ccccc1)c2cc(CCCNC(=O)CCCCCCCCCCNC[C@H](O)c3ccc(O)c(NS(=O)(=O)C)c3)ccc2O)C(C)C'
p7191
sg6
(lp7192
g8
(S'8.84'
p7193
tp7194
Rp7195
asg12
(lp7196
g2501
asg15
(lp7197
L6185845L
assL1144299L
(dp7198
g4
S'CC(C)N(CC[C@H](c1ccccc1)c2cc(CCCCOc3ccc(CCNC[C@H](O)c4ccc(O)c(NS(=O)(=O)C)c4)cc3)ccc2O)C(C)C'
p7199
sg6
(lp7200
g8
(S'9.20'
p7201
tp7202
Rp7203
asg12
(lp7204
g2501
asg15
(lp7205
L6185846L
assL1144300L
(dp7206
g4
S'CC(C)N(CC[C@H](c1ccccc1)c2cc(CCCCOc3ccc(CCNC[C@H](O)c4ccc(O)c(CO)c4)cc3)ccc2O)C(C)C'
p7207
sg6
(lp7208
g8
(S'9.12'
p7209
tp7210
Rp7211
asg12
(lp7212
g2501
asg15
(lp7213
L6185847L
assL1144301L
(dp7214
g4
S'CC(C)N(CC[C@H](c1ccccc1)c2cc(CCCCOc3ccc(CCNC[C@H](O)c4ccc(O)c(O)c4)cc3)ccc2O)C(C)C'
p7215
sg6
(lp7216
g8
(S'8.33'
p7217
tp7218
Rp7219
asg12
(lp7220
g2501
asg15
(lp7221
L6185848L
assL1144302L
(dp7222
g4
S'CC(C)N(CC[C@H](c1ccccc1)c2cc(CCCCOCCCCCCNC[C@H](O)c3ccc(O)c(NS(=O)(=O)C)c3)ccc2O)C(C)C'
p7223
sg6
(lp7224
g8
(S'9.00'
p7225
tp7226
Rp7227
asg12
(lp7228
g2501
asg15
(lp7229
L6185849L
assL1144303L
(dp7230
g4
S'CC(C)N(CC[C@H](c1ccccc1)c2cc(CCCCOc3ccc(CCNC[C@H](O)c4ccc(O)c5NC(=O)C=Cc45)cc3)ccc2O)C(C)C'
p7231
sg6
(lp7232
g8
(S'9.52'
p7233
tp7234
Rp7235
asg12
(lp7236
g2501
asg15
(lp7237
L6185850L
assL716275L
(dp7238
g4
S'CC(C)c1nc(cs1)C(=O)N2CCOC3(CCN(Cc4ccc(Cl)cc4)CC3)C2'
p7239
sg6
(lp7240
g8
(S'7.80'
p7241
tp7242
Rp7243
asg12
(lp7244
g2501
asg15
(lp7245
L3591709L
assL716276L
(dp7246
g4
S'CC(C)c1nc(cs1)C(=O)N2CCOC3(CCN(Cc4ccccc4)CC3)C2'
p7247
sg6
(lp7248
g8
(S'8.40'
p7249
tp7250
Rp7251
asg12
(lp7252
g2501
asg15
(lp7253
L3591710L
assL1529L
(dp7254
g4
S'CC1(COc2ccc(CC3SC(=O)NC3=O)cc2)CCCCC1'
p7255
sg6
(lp7256
g8
(S'5.50'
p7257
tp7258
Rp7259
asg12
(lp7260
g2501
asg15
(lp7261
L7686428L
assL8917L
(dp7262
g4
S'Clc1ccc(COC(Cn2ccnc2)c3ccc(Cl)cc3Cl)c(Cl)c1'
p7263
sg6
(lp7264
g8
(S'5.50'
p7265
tp7266
Rp7267
ag8
(S'6.18'
p7268
tp7269
Rp7270
asg12
(lp7271
g2501
ag2501
asg15
(lp7272
L7756231L
aL7756232L
assL351785L
(dp7273
g4
S'CN[C@@H]1CCN(C1)c2ccc(cn2)N3N=Cc4cc(sc4C3=O)c5ccc(cc5)C(F)(F)F'
p7274
sg6
(lp7275
g8
(S'6.80'
p7276
tp7277
Rp7278
asg12
(lp7279
g2501
asg15
(lp7280
L1746737L
assL357934L
(dp7281
g4
S'O=C(CC(c1ccccc1)(c2ccccc2)c3ccccc3)N4CCC[C@H]4C(=O)N5CCC[C@@H]5C(=O)NC[C@H]6CCCNC6'
p7282
sg6
(lp7283
g8
(S'7.00'
p7284
tp7285
Rp7286
asg12
(lp7287
g2501
asg15
(lp7288
L1763922L
assL1147513L
(dp7289
g4
S'Fc1cccc(CN(C(=O)O[C@H]2CN3CCC2CC3)c4cccc(F)c4)c1'
p7290
sg6
(lp7291
g8
(S'8.62'
p7292
tp7293
Rp7294
asg12
(lp7295
g2501
asg15
(lp7296
L6210489L
assL1605559L
(dp7297
g4
S'O=C(O[C@H]1CN2CCC1CC2)C3(CCCCCC3)c4cccs4'
p7298
sg6
(lp7299
g8
(S'10.10'
p7300
tp7301
Rp7302
asg12
(lp7303
g2501
asg15
(lp7304
L13833287L
assL1605560L
(dp7305
g4
S'C[N+]12CCC(CC1)[C@H](C2)OC(=O)C3(CCCCCC3)C4=CC=CC4'
p7306
sg6
(lp7307
g8
(S'8.60'
p7308
tp7309
Rp7310
asg12
(lp7311
g2501
asg15
(lp7312
L13833286L
assL343637L
(dp7313
g4
S'CCC1CCN(CC1)c2nc(nc(NC3CC3)c2C)C4CC4'
p7314
sg6
(lp7315
g8
(S'7.30'
p7316
tp7317
Rp7318
asg12
(lp7319
g2501
asg15
(lp7320
L1702727L
assL394169L
(dp7321
g4
S'Cc1c(nc(nc1N2CC(=O)C2)C3CC3)N4CCCCCC4'
p7322
sg6
(lp7323
g8
(S'6.20'
p7324
tp7325
Rp7326
asg12
(lp7327
g2501
asg15
(lp7328
L1953886L
assL1584102L
(dp7329
g4
S'C(N[C@H]1C2C3CC4C5C3CC2C5C14)C67C8C9C%10C(C6C8%10)C79'
p7330
sg6
(lp7331
g8
(S'6.33'
p7332
tp7333
Rp7334
asg12
(lp7335
g2501
asg15
(lp7336
L13469893L
assL343642L
(dp7337
g4
S'Cc1c(NC2CC2)nc(nc1N3CCC=CC3)C4CC4'
p7338
sg6
(lp7339
g8
(S'7.49'
p7340
tp7341
Rp7342
asg12
(lp7343
g2501
asg15
(lp7344
L1702726L
assL343643L
(dp7345
g4
S'Cc1c(NC2CC2)nc(nc1N3CCC(C)(C)CC3)C4CC4'
p7346
sg6
(lp7347
g8
(S'7.60'
p7348
tp7349
Rp7350
asg12
(lp7351
g2501
asg15
(lp7352
L1702725L
assL343644L
(dp7353
g4
S'Cc1c(NC2CC2)nc(nc1N3CCC4(CCCC4)CC3)C5CC5'
p7354
sg6
(lp7355
g8
(S'6.80'
p7356
tp7357
Rp7358
asg12
(lp7359
g2501
asg15
(lp7360
L1702724L
assL1605562L
(dp7361
g4
S'Fc1ccc(C[N+]23CCC(CC2)[C@H](C3)OC(=O)C4(CCCCCC4)C5=CC=CC5)cc1F'
p7362
sg6
(lp7363
g8
(S'7.40'
p7364
tp7365
Rp7366
asg12
(lp7367
g2501
asg15
(lp7368
L13833284L
assL9826L
(dp7369
g4
S'Cc1cccc(C(=O)N2CCC(CC2)N3CCC(Cc4ccc(cc4)S(=O)(=O)c5cccc(Cl)c5)CC3)c1N'
p7370
sg6
(lp7371
g8
(S'6.15'
p7372
tp7373
Rp7374
asg12
(lp7375
g2501
asg15
(lp7376
L12629831L
assL1605563L
(dp7377
g4
S'COc1cccc(C[N+]23CCC(CC2)[C@H](C3)OC(=O)C4(CCCCCC4)C5=CC=CC5)c1'
p7378
sg6
(lp7379
g8
(S'8.50'
p7380
tp7381
Rp7382
asg12
(lp7383
g2501
asg15
(lp7384
L13833283L
assL343652L
(dp7385
g4
S'Cc1c(NC2CC2)nc(nc1N3CCC(Cc4ccccc4)CC3)C5CC5'
p7386
sg6
(lp7387
g8
(S'6.10'
p7388
tp7389
Rp7390
asg12
(lp7391
g2501
asg15
(lp7392
L1702723L
assL1147514L
(dp7393
g4
S'Cc1cccc(c1)N(Cc2cc(F)c(F)cc2F)C(=O)O[C@H]3CN4CCC3CC4'
p7394
sg6
(lp7395
g8
(S'8.85'
p7396
tp7397
Rp7398
asg12
(lp7399
g2501
asg15
(lp7400
L6210490L
assL716393L
(dp7401
g4
S'CC(C)c1nc(cs1)C(=O)N2CCOC3(CCN(Cc4ccccc4Cl)CC3)C2'
p7402
sg6
(lp7403
g8
(S'7.70'
p7404
tp7405
Rp7406
asg12
(lp7407
g2501
asg15
(lp7408
L3591711L
assL716394L
(dp7409
g4
S'CC(C)c1nc(cs1)C(=O)N2CCOC3(CCN(Cc4cccc(Cl)c4)CC3)C2'
p7410
sg6
(lp7411
g8
(S'8.30'
p7412
tp7413
Rp7414
asg12
(lp7415
g2501
asg15
(lp7416
L3591712L
assL1605565L
(dp7417
g4
S'Cc1ccc(CC[N+]23CCC(CC2)[C@H](C3)OC(=O)C4(CCCCCC4)C5=CC=CC5)s1'
p7418
sg6
(lp7419
g8
(S'10.20'
p7420
tp7421
Rp7422
asg12
(lp7423
g2501
asg15
(lp7424
L13833281L
assL370289L
(dp7425
g4
S'C[N+]1(C)[C@@H]2C[C@H](C[C@H]1[C@@H]3O[C@H]23)OC(=O)[C@H](CO)c4ccccc4'
p7426
sg6
(lp7427
g8
(S'9.87'
p7428
tp7429
Rp7430
asg12
(lp7431
g2501
asg15
(lp7432
L2983692L
assL335476L
(dp7433
g4
S'COC1(CN2CCC1CC2)C#CC(O)(c3ccccc3)c4ccc(F)nc4'
p7434
sg6
(lp7435
g8
(S'9.49'
p7436
tp7437
Rp7438
asg12
(lp7439
g2501
asg15
(lp7440
L1666535L
assL1379957L
(dp7441
g4
S'[Br-].CCC(C)C(C(=O)OCC[N+](C)(CC)CC)c1ccccc1'
p7442
sg6
(lp7443
g8
(S'7.59'
p7444
tp7445
Rp7446
ag8
(S'8.25'
p7447
tp7448
Rp7449
asg12
(lp7450
g2501
ag2501
asg15
(lp7451
L7783066L
aL7783067L
assL1584103L
(dp7452
g4
S'CN(Cc1ccccc1)[C@H]2C3C4CC5C6C4C2C6C(=O)C35'
p7453
sg6
(lp7454
g8
(S'5.98'
p7455
tp7456
Rp7457
asg12
(lp7458
g2501
asg15
(lp7459
L13469909L
assL394175L
(dp7460
g4
S'FC1CN(C1)c2cc(nc(n2)C3CC3)N4CCCCCC4'
p7461
sg6
(lp7462
g8
(S'6.30'
p7463
tp7464
Rp7465
asg12
(lp7466
g2501
asg15
(lp7467
L1953882L
assL1605568L
(dp7468
g4
S'O=C(O[C@H]1C[N+]2(CCOc3ccccc3)CCC1CC2)C4(CCCCCC4)C5=CC=CC5'
p7469
sg6
(lp7470
g8
(S'9.80'
p7471
tp7472
Rp7473
asg12
(lp7474
g2501
asg15
(lp7475
L13833278L
assL372354L
(dp7476
g4
S'CC(C)C[C@H](NC(=O)CNC(=O)C(C)(C)NC(=O)[C@@H](NC(=O)C(C)(C)NC(=O)[C@H](CCC(=O)N)NC(=O)[C@H](C)NC(=O)C(C)(C)NC(=O)[C@H](C)NC(=O)C(C)(C)NC(=O)[C@@H]1CCCN1C(=O)C(C)(C)NC(=O)C)C(C)C)C(=O)NC(C)(C)C(=O)N2CCC[C@H]2C(=O)N[C@@H](C(C)C)C(=O)NC(C)(C)C(=O)NC(C)(C)C(=O)N[C@@H](CCC(=O)O)C(=O)N[C@@H](CCC(=O)N)C(=O)N[C@H](CO)Cc3ccccc3'
p7477
sg6
(lp7478
g8
(S'6.21'
p7479
tp7480
Rp7481
asg12
(lp7482
g2501
asg15
(lp7483
L1826499L
assL1147499L
(dp7484
g4
S'O=C(O[C@H]1CN2CCC1CC2)N(c3ccccc3)c4ccccc4'
p7485
sg6
(lp7486
g8
(S'6.10'
p7487
tp7488
Rp7489
asg12
(lp7490
g2501
asg15
(lp7491
L6210475L
assL1605569L
(dp7492
g4
S'O=C(O[C@H]1C[N+]2(CCOCc3ccccc3)CCC1CC2)C4(CCCCCC4)C5=CC=CC5'
p7493
sg6
(lp7494
g8
(S'9.90'
p7495
tp7496
Rp7497
asg12
(lp7498
g2501
asg15
(lp7499
L13833277L
assL1147500L
(dp7500
g4
S'O=C(O[C@H]1CN2CCC1CC2)N(Cc3ccccc3)c4ccccc4'
p7501
sg6
(lp7502
g8
(S'8.92'
p7503
tp7504
Rp7505
asg12
(lp7506
g2501
asg15
(lp7507
L6210476L
assL52874L
(dp7508
g4
S'Clc1ccc(COC(Cn2ccnc2)c3ccc(Cl)cc3Cl)cc1'
p7509
sg6
(lp7510
g8
(S'5.75'
p7511
tp7512
Rp7513
ag8
(S'6.42'
p7514
tp7515
Rp7516
asg12
(lp7517
g2501
ag2501
asg15
(lp7518
L7652034L
aL7652035L
assL1074114L
(dp7519
g4
S'CN1CCC(CC1)OC(=O)Nc2ccccc2c3ccccc3'
p7520
sg6
(lp7521
g8
(S'7.66'
p7522
tp7523
Rp7524
asg12
(lp7525
g2501
asg15
(lp7526
L5238401L
assL1147501L
(dp7527
g4
S'O=C(O[C@H]1CN2CCC1CC2)N(CCc3ccccc3)c4ccccc4'
p7528
sg6
(lp7529
g8
(S'8.44'
p7530
tp7531
Rp7532
asg12
(lp7533
g2501
asg15
(lp7534
L6210477L
assL1147502L
(dp7535
g4
S'O=C(O[C@H]1CN2CCC1CC2)N(Cc3cccs3)c4ccccc4'
p7536
sg6
(lp7537
g8
(S'9.22'
p7538
tp7539
Rp7540
asg12
(lp7541
g2501
asg15
(lp7542
L6210478L
assL358046L
(dp7543
g4
S'O[C@@H]1C[C@H](N(C1)C(=O)CC(c2ccc(Cl)cc2)(c3ccc(Cl)cc3)c4ccc(Cl)cc4)C(=O)N5CCC[C@@H]5C(=O)NC[C@@H]6CCCNC6'
p7544
sg6
(lp7545
g8
(S'8.80'
p7546
tp7547
Rp7548
asg12
(lp7549
g2501
asg15
(lp7550
L1764001L
assL358047L
(dp7551
g4
S'O[C@@H]1C[C@H](N(C1)C(=O)CC(c2ccc(F)cc2)(c3ccc(F)cc3)c4ccc(F)cc4)C(=O)N5CCC[C@@H]5C(=O)NCC6CCNCC6'
p7552
sg6
(lp7553
g8
(S'9.52'
p7554
tp7555
Rp7556
asg12
(lp7557
g2501
asg15
(lp7558
L1764006L
assL358048L
(dp7559
g4
S'O[C@@H]1C[C@H](N(C1)C(=O)CC(c2ccc(F)cc2)(c3ccc(F)cc3)c4ccc(F)cc4)C(=O)N5CCC[C@@H]5C(=O)NCCC6CCNCC6'
p7560
sg6
(lp7561
g8
(S'9.32'
p7562
tp7563
Rp7564
asg12
(lp7565
g2501
asg15
(lp7566
L1764000L
assL358049L
(dp7567
g4
S'O[C@@H]1C[C@H](N(C1)C(=O)CC(c2ccc(F)cc2)(c3ccc(F)cc3)c4ccc(F)cc4)C(=O)N5CCC[C@@H]5C(=O)NC[C@@H]6CCCNC6'
p7568
sg6
(lp7569
g8
(S'9.41'
p7570
tp7571
Rp7572
asg12
(lp7573
g2501
asg15
(lp7574
L1763999L
assL335528L
(dp7575
g4
S'COC1(CN2CCC1CC2)C#CC(O)(c3ccccc3)c4cccnn4'
p7576
sg6
(lp7577
g8
(S'8.10'
p7578
tp7579
Rp7580
asg12
(lp7581
g2501
asg15
(lp7582
L1666533L
assL335529L
(dp7583
g4
S'COC1(CN2CCC1CC2)C#CC(O)(c3ccccc3)c4cncnc4'
p7584
sg6
(lp7585
g8
(S'9.00'
p7586
tp7587
Rp7588
asg12
(lp7589
g2501
asg15
(lp7590
L1666532L
assL715719L
(dp7591
g4
S'Clc1ccc(CN2CCC3(CC2)CN(CCO3)C(=O)c4cnsn4)cc1'
p7592
sg6
(lp7593
g8
(S'6.70'
p7594
tp7595
Rp7596
asg12
(lp7597
g2501
asg15
(lp7598
L3591699L
assL558766L
(dp7599
g4
S'[Br-].CC(C(=O)O[C@H]1C[N+]2(CCCOc3ccccc3)CCC1CC2)(c4cccs4)c5cccs5'
p7600
sg6
(lp7601
g8
(S'9.23'
p7602
tp7603
Rp7604
asg12
(lp7605
g2501
asg15
(lp7606
L2708947L
assL1074120L
(dp7607
g4
S'CCCCCCCN1CCC(CC1)OC(=O)Nc2ccccc2c3ccccc3'
p7608
sg6
(lp7609
g8
(S'8.29'
p7610
tp7611
Rp7612
asg12
(lp7613
g2501
asg15
(lp7614
L5238407L
assL1147507L
(dp7615
g4
S'CC(C)N(C(=O)O[C@H]1CN2CCC1CC2)c3ccccc3'
p7616
sg6
(lp7617
g8
(S'6.18'
p7618
tp7619
Rp7620
asg12
(lp7621
g2501
asg15
(lp7622
L6210483L
assL1147508L
(dp7623
g4
S'O=C(O[C@H]1CN2CCC1CC2)N(Cc3ccccc3)Cc4cccs4'
p7624
sg6
(lp7625
g8
(S'7.65'
p7626
tp7627
Rp7628
asg12
(lp7629
g2501
asg15
(lp7630
L6210484L
assL292542L
(dp7631
g4
S'O=C(CCCNC(=O)CNC(=O)CC(c1ccccc1)(c2ccccc2)c3ccccc3)NCC4CCCN(CC5CCCCC5)C4'
p7632
sg6
(lp7633
g8
(S'8.48'
p7634
tp7635
Rp7636
asg12
(lp7637
g2501
asg15
(lp7638
L1200340L
assL229058L
(dp7639
g4
S'CCN(CC)CC#CCOC(=O)C(O)(C1CCCCC1)c2ccccc2'
p7640
sg6
(lp7641
g8
(S'8.89'
p7642
tp7643
Rp7644
ag8
(S'9.11'
p7645
tp7646
Rp7647
ag8
(S'8.57'
p7648
tp7649
Rp7650
ag8
(S'9.24'
p7651
tp7652
Rp7653
ag8
(S'8.82'
p7654
tp7655
Rp7656
asg12
(lp7657
g2501
ag2501
ag2501
ag2501
ag2501
asg15
(lp7658
L1666530L
aL1960490L
aL7744645L
aL7744646L
aL10927294L
assL716489L
(dp7659
g4
S'CC(C)c1nc(cs1)C(=O)N2CCOC3(CCN(Cc4ccccc4C)CC3)C2'
p7660
sg6
(lp7661
g8
(S'6.40'
p7662
tp7663
Rp7664
asg12
(lp7665
g2501
asg15
(lp7666
L3591713L
assL702157L
(dp7667
g4
S'O=C(Cc1ccccc1)NC2CCN(CCCN3C(=O)COc4ccccc34)CC2'
p7668
sg6
(lp7669
g8
(S'5.15'
p7670
tp7671
Rp7672
asg12
(lp7673
g2501
asg15
(lp7674
L3430242L
assL1147512L
(dp7675
g4
S'Fc1ccc(cc1)N(Cc2ccccc2)C(=O)O[C@H]3CN4CCC3CC4'
p7676
sg6
(lp7677
g8
(S'7.82'
p7678
tp7679
Rp7680
asg12
(lp7681
g2501
asg15
(lp7682
L6210488L
assL1074126L
(dp7683
g4
S'NCCCN1CCC(CC1)OC(=O)Nc2ccccc2c3ccccc3'
p7684
sg6
(lp7685
g8
(S'7.17'
p7686
tp7687
Rp7688
asg12
(lp7689
g2501
asg15
(lp7690
L5238413L
assL565881L
(dp7691
g4
S'O[C@@](C(=O)O[C@H]1CN2CCC1CC2)(c3ccccc3)c4cccs4'
p7692
sg6
(lp7693
g8
(S'9.38'
p7694
tp7695
Rp7696
asg12
(lp7697
g2501
asg15
(lp7698
L2708925L
assL1337051L
(dp7699
g4
S'CN(C)[C@@H]1CCCC[C@H]1N(C)CC(=O)N2c3ccccc3NC(=O)c4ccccc24.OC(=O)C(=O)O.OC(=O)C(=O)O'
p7700
sg6
(lp7701
g8
(S'7.35'
p7702
tp7703
Rp7704
asg12
(lp7705
g2501
asg15
(lp7706
L2557050L
assL1337052L
(dp7707
g4
S'CN(C)[C@H]1CCCC[C@@H]1N(C)CC(=O)N2c3ccccc3NC(=O)c4ccccc24.OC(=O)C(=O)O.OC(=O)C(=O)O'
p7708
sg6
(lp7709
g8
(S'7.40'
p7710
tp7711
Rp7712
asg12
(lp7713
g2501
asg15
(lp7714
L2557049L
assL1337053L
(dp7715
g4
S'CN(C)[C@@H]1CCCC[C@@H]1N(C)CC(=O)N2c3ccccc3NC(=O)c4ccccc24.OC(=O)C(=O)O.OC(=O)C(=O)O'
p7716
sg6
(lp7717
g8
(S'7.31'
p7718
tp7719
Rp7720
asg12
(lp7721
g2501
asg15
(lp7722
L2557048L
assL1337054L
(dp7723
g4
S'CN(C)[C@H]1CCCC[C@H]1N(C)CC(=O)N2c3ccccc3NC(=O)c4ccccc24.OC(=O)C(=O)O.OC(=O)C(=O)O'
p7724
sg6
(lp7725
g8
(S'7.39'
p7726
tp7727
Rp7728
asg12
(lp7729
g2501
asg15
(lp7730
L2557047L
assL134881L
(dp7731
g4
S'O=C(OC1CC2CCCC1N2)c3ccccc3'
p7732
sg6
(lp7733
g8
(S'5.89'
p7734
tp7735
Rp7736
asg12
(lp7737
g2501
asg15
(lp7738
L158638L
assL1524815L
(dp7739
g4
S'Clc1cc(Cl)cc(c1)N2CCNCC2'
p7740
sg6
(lp7741
g8
(S'5.10'
p7742
tp7743
Rp7744
asg12
(lp7745
g2501
asg15
(lp7746
L12679351L
assL1248997L
(dp7747
g4
S'[Br-].CC[N+]1(CCOC(=O)C(O)(c2ccccc2)c3ccccc3)CCCCC1'
p7748
sg6
(lp7749
g8
(S'6.80'
p7750
tp7751
Rp7752
ag8
(S'7.48'
p7753
tp7754
Rp7755
asg12
(lp7756
g2501
ag2501
asg15
(lp7757
L7745310L
aL7745311L
assL702184L
(dp7758
g4
S'CCCCC1CCN(CCCC(=O)c2ccccc2C)CC1'
p7759
sg6
(lp7760
g8
(S'5.55'
p7761
tp7762
Rp7763
asg12
(lp7764
g2501
asg15
(lp7765
L3430244L
assL1147516L
(dp7766
g4
S'Cl.O=C(Nc1ccccc1c2ccccc2)OC34CCN(CC3)CC4'
p7767
sg6
(lp7768
g8
(S'8.22'
p7769
tp7770
Rp7771
asg12
(lp7772
g2501
asg15
(lp7773
L6210493L
assL478956L
(dp7774
g4
S'Brc1ccc(CN2C(=O)C(=O)c3ccccc23)cc1'
p7775
sg6
(lp7776
g8
(S'5.20'
p7777
tp7778
Rp7779
asg12
(lp7780
g2501
asg15
(lp7781
L2623376L
assL358126L
(dp7782
g4
S'O[C@@H]1C[C@H](N(C1)C(=O)CC(c2ccccc2)(c3ccccc3)c4ccccc4)C(=O)N5CCC[C@@H]5C(=O)NCC6CCNCC6'
p7783
sg6
(lp7784
g8
(S'8.38'
p7785
tp7786
Rp7787
asg12
(lp7788
g2501
asg15
(lp7789
L1763991L
assL445395L
(dp7790
g4
S'CN1[C@@H]2CC[C@H]1C[C@H](C2)OC(=O)C(CO)c3ccccc3'
p7791
sg6
(lp7792
g8
(S'9.30'
p7793
tp7794
Rp7795
ag8
(S'9.05'
p7796
tp7797
Rp7798
ag8
(S'8.68'
p7799
tp7800
Rp7801
ag8
(S'9.36'
p7802
tp7803
Rp7804
ag8
(S'8.66'
p7805
tp7806
Rp7807
asg12
(lp7808
g2501
ag2501
ag2501
ag2501
ag2501
asg15
(lp7809
L1193801L
aL3430422L
aL7613028L
aL7613029L
aL13288588L
assL1591028L
(dp7810
g4
S'CN1[C@@H]2CC[C@H]1CC(C2)OC(=O)[C@H](CO)c3ccccc3'
p7811
sg6
(lp7812
g8
(S'9.57'
p7813
tp7814
Rp7815
ag8
(S'9.57'
p7816
tp7817
Rp7818
asg12
(lp7819
g2501
ag2501
asg15
(lp7820
L13876475L
aL13876509L
assL654293L
(dp7821
g4
S'CCN1CCC(=C(C1)C(=O)OCCc2ccc(OC)cc2)c3ccccc3'
p7822
sg6
(lp7823
g8
(S'5.86'
p7824
tp7825
Rp7826
asg12
(lp7827
g2501
asg15
(lp7828
L12627789L
assL343813L
(dp7829
g4
S'CN(Cc1ccccc1)c2nc(nc(NC3CC3)c2C)C4CC4'
p7830
sg6
(lp7831
g8
(S'6.60'
p7832
tp7833
Rp7834
asg12
(lp7835
g2501
asg15
(lp7836
L1702711L
assL343814L
(dp7837
g4
S'C1CCCN(CC1)c2cc(NC3CC3)nc(n2)C4CC4'
p7838
sg6
(lp7839
g8
(S'7.20'
p7840
tp7841
Rp7842
asg12
(lp7843
g2501
asg15
(lp7844
L1702699L
assL343815L
(dp7845
g4
S'Fc1c(NC2CC2)nc(nc1N3CCCCCC3)C4CC4'
p7846
sg6
(lp7847
g8
(S'6.60'
p7848
tp7849
Rp7850
asg12
(lp7851
g2501
asg15
(lp7852
L1702698L
assL358156L
(dp7853
g4
S'O[C@@H]1C[C@H](N(C1)C(=O)CC(c2ccccc2)(c3ccccc3)c4ccccc4)C(=O)N5CCC[C@@H]5C(=O)NCCC6CCNCC6'
p7854
sg6
(lp7855
g8
(S'8.55'
p7856
tp7857
Rp7858
asg12
(lp7859
g2501
asg15
(lp7860
L1764005L
assL358157L
(dp7861
g4
S'O[C@@H]1C[C@H](N(C1)C(=O)CC(c2ccccc2)(c3ccccc3)c4ccccc4)C(=O)N5CCC[C@@H]5C(=O)NC[C@@H]6CCCNC6'
p7862
sg6
(lp7863
g8
(S'8.43'
p7864
tp7865
Rp7866
asg12
(lp7867
g2501
asg15
(lp7868
L1764004L
assL343822L
(dp7869
g4
S'Brc1c(NC2CC2)nc(nc1N3CCCCCC3)C4CC4'
p7870
sg6
(lp7871
g8
(S'6.50'
p7872
tp7873
Rp7874
asg12
(lp7875
g2501
asg15
(lp7876
L1702697L
assL358159L
(dp7877
g4
S'O[C@@H]1C[C@H](N(C1)C(=O)CC(c2ccc(Cl)cc2)(c3ccc(Cl)cc3)c4ccc(Cl)cc4)C(=O)N5CCC[C@@H]5C(=O)NCCC6CCNCC6'
p7878
sg6
(lp7879
g8
(S'8.92'
p7880
tp7881
Rp7882
asg12
(lp7883
g2501
asg15
(lp7884
L1764002L
assL343832L
(dp7885
g4
S'Cc1c(NC2CCC2)nc(nc1N3CCCCCC3)C4CC4'
p7886
sg6
(lp7887
g8
(S'8.10'
p7888
tp7889
Rp7890
asg12
(lp7891
g2501
asg15
(lp7892
L1702691L
assL343844L
(dp7893
g4
S'Cc1c(NC2CC2)nc(nc1N3CCC(=C)CC3)C4CC4'
p7894
sg6
(lp7895
g8
(S'7.10'
p7896
tp7897
Rp7898
asg12
(lp7899
g2501
asg15
(lp7900
L1702719L
assL343845L
(dp7901
g4
S'Cc1c(NC2CC2)nc(nc1N3CCCC3)C4CC4'
p7902
sg6
(lp7903
g8
(S'7.00'
p7904
tp7905
Rp7906
asg12
(lp7907
g2501
asg15
(lp7908
L1702718L
assL343850L
(dp7909
g4
S'Cc1c(NC2CC2)nc(nc1N3CCCCCC3)C4CC4'
p7910
sg6
(lp7911
g8
(S'8.49'
p7912
tp7913
Rp7914
asg12
(lp7915
g2501
asg15
(lp7916
L1702717L
assL343851L
(dp7917
g4
S'Cc1c(NC2CC2)nc(nc1N3CCCCCCC3)C4CC4'
p7918
sg6
(lp7919
g8
(S'7.80'
p7920
tp7921
Rp7922
asg12
(lp7923
g2501
asg15
(lp7924
L1702716L
assL343852L
(dp7925
g4
S'Cc1c(NC2CC2)nc(nc1NC3CCCCC3)C4CC4'
p7926
sg6
(lp7927
g8
(S'6.50'
p7928
tp7929
Rp7930
asg12
(lp7931
g2501
asg15
(lp7932
L1702715L
assL1074141L
(dp7933
g4
S'OCc1cc(ccc1O)[C@@H](O)CNCCCCCCCCCN2CCC(CC2)OC(=O)Nc3ccccc3c4ccccc4'
p7934
sg6
(lp7935
g8
(S'9.85'
p7936
tp7937
Rp7938
asg12
(lp7939
g2501
asg15
(lp7940
L5238428L
assL343860L
(dp7941
g4
S'C[C@@H]1C[C@H]1c2nc(NC3CC3)c(C)c(n2)N4CCCCCC4'
p7942
sg6
(lp7943
g8
(S'7.49'
p7944
tp7945
Rp7946
asg12
(lp7947
g2501
asg15
(lp7948
L1702701L
assL716597L
(dp7949
g4
S'Cc1cccc(CN2CCC3(CC2)CCN(CC3)C(=O)c4ccccc4)c1'
p7950
sg6
(lp7951
g8
(S'7.00'
p7952
tp7953
Rp7954
asg12
(lp7955
g2501
asg15
(lp7956
L3591686L
assL1605430L
(dp7957
g4
S'Cc1cnc(NC(=O)C[N+]23CCC(CC2)[C@H](C3)OC(=O)C4(CCCCCC4)C5=CC=CC5)cn1'
p7958
sg6
(lp7959
g8
(S'9.10'
p7960
tp7961
Rp7962
asg12
(lp7963
g2501
asg15
(lp7964
L13833237L
assL1605431L
(dp7965
g4
S'Cc1cncc(NC(=O)C[N+]23CCC(CC2)[C@H](C3)OC(=O)C4(CCCCCC4)C5=CC=CC5)n1'
p7966
sg6
(lp7967
g8
(S'9.20'
p7968
tp7969
Rp7970
asg12
(lp7971
g2501
asg15
(lp7972
L13833236L
assL1605432L
(dp7973
g4
S'Clc1cncc(NC(=O)C[N+]23CCC(CC2)[C@H](C3)OC(=O)C4(CCCCCC4)C5=CC=CC5)n1'
p7974
sg6
(lp7975
g8
(S'10.00'
p7976
tp7977
Rp7978
asg12
(lp7979
g2501
asg15
(lp7980
L13833235L
assL1605433L
(dp7981
g4
S'O=C(C[N+]12CCC(CC1)[C@H](C2)OC(=O)C3(CCCCCC3)C4=CC=CC4)NCCNC(=O)c5cnccn5'
p7982
sg6
(lp7983
g8
(S'8.50'
p7984
tp7985
Rp7986
asg12
(lp7987
g2501
asg15
(lp7988
L13833234L
assL343866L
(dp7989
g4
S'C[C@@H]1C[C@H]1c2nc(NC3CC3)cc(n2)N4CCCCCC4'
p7990
sg6
(lp7991
g8
(S'6.40'
p7992
tp7993
Rp7994
asg12
(lp7995
g2501
asg15
(lp7996
L1702700L
assL1605435L
(dp7997
g4
S'O=C(O[C@H]1C[N+]2(Cc3oc4ccccc4n3)CCC1CC2)C5(CCCCCC5)C6=CC=CC6'
p7998
sg6
(lp7999
g8
(S'10.00'
p8000
tp8001
Rp8002
asg12
(lp8003
g2501
asg15
(lp8004
L13833232L
assL1605436L
(dp8005
g4
S'O=C(O[C@H]1C[N+]2(Cc3onc(n3)c4ccccc4)CCC1CC2)C5(CCCCCC5)C6=CC=CC6'
p8006
sg6
(lp8007
g8
(S'9.80'
p8008
tp8009
Rp8010
asg12
(lp8011
g2501
asg15
(lp8012
L13833231L
assL1605437L
(dp8013
g4
S'O=C(O[C@H]1C[N+]2(Cc3onc(c3)c4ccccc4)CCC1CC2)C5(CCCCCC5)C6=CC=CC6'
p8014
sg6
(lp8015
g8
(S'9.60'
p8016
tp8017
Rp8018
asg12
(lp8019
g2501
asg15
(lp8020
L13833230L
assL1605438L
(dp8021
g4
S'O=C(O[C@H]1C[N+]2(Cc3ccn(n3)c4ccccc4)CCC1CC2)C5(CCCCCC5)C6=CC=CC6'
p8022
sg6
(lp8023
g8
(S'9.40'
p8024
tp8025
Rp8026
asg12
(lp8027
g2501
asg15
(lp8028
L13833229L
assL343871L
(dp8029
g4
S'CCc1c(NC2CC2)nc(nc1N3CCSCC3)C4CC4'
p8030
sg6
(lp8031
g8
(S'7.00'
p8032
tp8033
Rp8034
asg12
(lp8035
g2501
asg15
(lp8036
L1702692L
assL1605440L
(dp8037
g4
S'O=C(O[C@H]1C[N+]2(Cc3cc(on3)c4ccccc4)CCC1CC2)C5(CCCCCC5)C6=CC=CC6'
p8038
sg6
(lp8039
g8
(S'10.10'
p8040
tp8041
Rp8042
asg12
(lp8043
g2501
asg15
(lp8044
L13833227L
assL1605441L
(dp8045
g4
S'O=C(O[C@H]1C[N+]2(Cc3oc(nn3)c4ccccc4)CCC1CC2)C5(CCCCCC5)C6=CC=CC6'
p8046
sg6
(lp8047
g8
(S'9.50'
p8048
tp8049
Rp8050
asg12
(lp8051
g2501
asg15
(lp8052
L13833226L
assL1605442L
(dp8053
g4
S'CC(C1CCCC1)(C(=O)OC2CC[N+](C)(C)CC2)c3ccccc3'
p8054
sg6
(lp8055
g8
(S'10.50'
p8056
tp8057
Rp8058
asg12
(lp8059
g2501
asg15
(lp8060
L13833290L
assL1605443L
(dp8061
g4
S'C[N+]1(C)CCC(CC1)OC(=O)C2(CCCCCC2)c3ccccc3'
p8062
sg6
(lp8063
g8
(S'9.60'
p8064
tp8065
Rp8066
asg12
(lp8067
g2501
asg15
(lp8068
L13833289L
assL1605444L
(dp8069
g4
S'O=C(O[C@H]1CN2CCC1CC2)C3(CCCCCC3)c4ccccc4'
p8070
sg6
(lp8071
g8
(S'10.20'
p8072
tp8073
Rp8074
asg12
(lp8075
g2501
asg15
(lp8076
L13833288L
assL1265500L
(dp8077
g4
S'C[C@@](N1CCCCC1)(C(=O)O[C@H]2C[N+]3(CCc4cccnc4)CCC2CC3)c5ccccc5'
p8078
sg6
(lp8079
g8
(S'8.50'
p8080
tp8081
Rp8082
asg12
(lp8083
g2501
asg15
(lp8084
L7947403L
assL1376073L
(dp8085
g4
S'[Br-].C[N+]1(C)[C@@H]2CC[C@H]1C[C@@H](CC(C#N)(c3ccccc3)c4ccccc4)C2'
p8086
sg6
(lp8087
g8
(S'10.20'
p8088
tp8089
Rp8090
ag8
(S'10.22'
p8091
tp8092
Rp8093
asg12
(lp8094
g2501
ag2501
asg15
(lp8095
L2701658L
aL6215843L
assL743246L
(dp8096
g4
S'Br.CN1[C@@H]2CC[C@H]1C[C@H](C2)OC(=O)C(O)c3ccccc3'
p8097
sg6
(lp8098
g8
(S'7.12'
p8099
tp8100
Rp8101
ag8
(S'7.80'
p8102
tp8103
Rp8104
asg12
(lp8105
g2501
ag2501
asg15
(lp8106
L7660085L
aL7660086L
assL5970L
(dp8107
g4
S'CSc1ccc2Sc3ccccc3N(CCC4CCCCN4C)c2c1'
p8108
sg6
(lp8109
g8
(S'7.05'
p8110
tp8111
Rp8112
ag8
(S'7.72'
p8113
tp8114
Rp8115
asg12
(lp8116
g2501
ag2501
asg15
(lp8117
L7802047L
aL7802048L
assL1074147L
(dp8118
g4
S'NC(=O)C([C@@H]1CCN(CCCCCCCCCNCC(O)c2ccc(O)c3NC(=O)C=Cc23)C1)(c4ccccc4)c5ccccc5'
p8119
sg6
(lp8120
g8
(S'7.49'
p8121
tp8122
Rp8123
asg12
(lp8124
g2501
asg15
(lp8125
L5238431L
assL1265493L
(dp8126
g4
S'C[C@@](N1CCCCC1)(C(=O)O[C@H]2C[N+]3(CCc4ccc(F)cc4)CCC2CC3)c5ccccc5'
p8127
sg6
(lp8128
g8
(S'9.80'
p8129
tp8130
Rp8131
asg12
(lp8132
g2501
asg15
(lp8133
L7947410L
assL1265496L
(dp8134
g4
S'C[C@@](N1CCCCC1)(C(=O)O[C@H]2C[N+]3(CCc4cccc(Br)c4)CCC2CC3)c5ccccc5'
p8135
sg6
(lp8136
g8
(S'10.20'
p8137
tp8138
Rp8139
asg12
(lp8140
g2501
asg15
(lp8141
L7947407L
assL996L
(dp8142
g4
S'CN(C)CCCN1c2ccccc2CCc3ccc(Cl)cc13'
p8143
sg6
(lp8144
g8
(S'6.77'
p8145
tp8146
Rp8147
ag8
(S'7.44'
p8148
tp8149
Rp8150
asg12
(lp8151
g2501
ag2501
asg15
(lp8152
L7710458L
aL7710459L
assL1265499L
(dp8153
g4
S'C[C@@](N1CCCCC1)(C(=O)O[C@H]2C[N+]3(CCc4ccc5ccccc5c4)CCC2CC3)c6ccccc6'
p8154
sg6
(lp8155
g8
(S'9.70'
p8156
tp8157
Rp8158
asg12
(lp8159
g2501
asg15
(lp8160
L7947404L
assL343900L
(dp8161
g4
S'[O-][N+](=O)c1c(NC2CC2)nc(nc1N3CCCCCC3)C4CC4'
p8162
sg6
(lp8163
g8
(S'5.60'
p8164
tp8165
Rp8166
asg12
(lp8167
g2501
asg15
(lp8168
L1702696L
assL1265501L
(dp8169
g4
S'C[C@@](N1CCCCC1)(C(=O)O[C@H]2C[N+]3(CCC4=CC5CCOC5C=C4)CCC2CC3)c6ccccc6'
p8170
sg6
(lp8171
g8
(S'9.80'
p8172
tp8173
Rp8174
asg12
(lp8175
g2501
asg15
(lp8176
L7947402L
assL1265502L
(dp8177
g4
S'C[C@@](N1CCCCC1)(C(=O)O[C@H]2C[N+]3(CCc4oc5ccccc5c4)CCC2CC3)c6ccccc6'
p8178
sg6
(lp8179
g8
(S'8.20'
p8180
tp8181
Rp8182
asg12
(lp8183
g2501
asg15
(lp8184
L7947401L
assL1265503L
(dp8185
g4
S'C[C@@](N1CCCCC1)(C(=O)O[C@H]2C[N+]3(CCc4c[nH]c5ccccc45)CCC2CC3)c6ccccc6'
p8186
sg6
(lp8187
g8
(S'8.80'
p8188
tp8189
Rp8190
asg12
(lp8191
g2501
asg15
(lp8192
L7947400L
assL1265504L
(dp8193
g4
S'C[C@@](N1CCCCC1)(C(=O)O[C@H]2C[N+]3(CCC4CCCCC4)CCC2CC3)c5cccs5'
p8194
sg6
(lp8195
g8
(S'9.70'
p8196
tp8197
Rp8198
asg12
(lp8199
g2501
asg15
(lp8200
L7947399L
assL1265507L
(dp8201
g4
S'C[C@@](N1CCCCC1)(C(=O)O[C@H]2C[N+]3(CCCc4ccncc4)CCC2CC3)c5ccccc5'
p8202
sg6
(lp8203
g8
(S'10.10'
p8204
tp8205
Rp8206
asg12
(lp8207
g2501
asg15
(lp8208
L7947396L
assL1265508L
(dp8209
g4
S'C[C@@](N1CCCCC1)(C(=O)O[C@H]2C[N+]3(CCCc4ccncc4)CCC2CC3)c5cccs5'
p8210
sg6
(lp8211
g8
(S'9.80'
p8212
tp8213
Rp8214
asg12
(lp8215
g2501
asg15
(lp8216
L7947395L
assL1265509L
(dp8217
g4
S'Cc1cc(CCC[N+]23CCC(CC2)[C@H](C3)OC(=O)[C@@](C)(N4CCCCC4)c5ccccc5)ccn1'
p8218
sg6
(lp8219
g8
(S'9.90'
p8220
tp8221
Rp8222
asg12
(lp8223
g2501
asg15
(lp8224
L7947394L
assL1265510L
(dp8225
g4
S'Cc1cc(CCC[N+]23CCC(CC2)[C@H](C3)OC(=O)[C@@](C)(N4CCCCC4)c5ccccc5)cc(C)n1'
p8226
sg6
(lp8227
g8
(S'8.60'
p8228
tp8229
Rp8230
asg12
(lp8231
g2501
asg15
(lp8232
L7947393L
assL1265511L
(dp8233
g4
S'C[C@@](N1CCCCC1)(C(=O)O[C@H]2C[N+]3(CCCc4cccnc4)CCC2CC3)c5ccccc5'
p8234
sg6
(lp8235
g8
(S'9.50'
p8236
tp8237
Rp8238
asg12
(lp8239
g2501
asg15
(lp8240
L7947392L
assL1265512L
(dp8241
g4
S'Cc1ccc(CCC[N+]23CCC(CC2)[C@H](C3)OC(=O)[C@@](C)(N4CCCCC4)c5ccccc5)cn1'
p8242
sg6
(lp8243
g8
(S'8.90'
p8244
tp8245
Rp8246
asg12
(lp8247
g2501
asg15
(lp8248
L7947391L
assL1265513L
(dp8249
g4
S'C[C@@](N1CCCCC1)(C(=O)O[C@H]2C[N+]3(CCCc4cncnc4)CCC2CC3)c5ccccc5'
p8250
sg6
(lp8251
g8
(S'8.50'
p8252
tp8253
Rp8254
asg12
(lp8255
g2501
asg15
(lp8256
L7947390L
assL1265514L
(dp8257
g4
S'C[C@@](N1CCCCC1)(C(=O)O[C@H]2C[N+]3(CCCc4oc5ccccc5n4)CCC2CC3)c6ccccc6'
p8258
sg6
(lp8259
g8
(S'9.50'
p8260
tp8261
Rp8262
asg12
(lp8263
g2501
asg15
(lp8264
L7947389L
assL1265515L
(dp8265
g4
S'C[C@@](N1CCCCC1)(C(=O)O[C@H]2C[N+]3(CCCc4cc5ccccc5s4)CCC2CC3)c6ccccc6'
p8266
sg6
(lp8267
g8
(S'10.20'
p8268
tp8269
Rp8270
asg12
(lp8271
g2501
asg15
(lp8272
L7947388L
assL38764L
(dp8273
g4
S'Fc1ccc(cc1)C(N2CCN(C\\C=C\\c3ccccc3)CC2)c4ccc(F)cc4'
p8274
sg6
(lp8275
g8
(S'5.83'
p8276
tp8277
Rp8278
ag8
(S'6.50'
p8279
tp8280
Rp8281
asg12
(lp8282
g2501
ag2501
asg15
(lp8283
L7665614L
aL7665615L
assL1265517L
(dp8284
g4
S'C[C@@](N1CCCCC1)(C(=O)O[C@H]2C[N+]3(CCCCc4ccccc4)CCC2CC3)c5ccccc5'
p8285
sg6
(lp8286
g8
(S'9.70'
p8287
tp8288
Rp8289
asg12
(lp8290
g2501
asg15
(lp8291
L7947386L
assL3950L
(dp8292
g4
S'O=C1CCON1CC#CCN2CCCC2'
p8293
sg6
(lp8294
g8
(S'6.41'
p8295
tp8296
Rp8297
asg12
(lp8298
g2501
asg15
(lp8299
L1989749L
assL1265519L
(dp8300
g4
S'C[C@@](N1CCCCC1)(C(=O)O[C@H]2C[N+]3(CCOc4ccccc4)CCC2CC3)c5ccccc5'
p8301
sg6
(lp8302
g8
(S'9.20'
p8303
tp8304
Rp8305
asg12
(lp8306
g2501
asg15
(lp8307
L7947384L
assL1265520L
(dp8308
g4
S'C[C@@](N1CCCCC1)(C(=O)O[C@H]2C[N+]3(CCOc4ccc(F)cc4)CCC2CC3)c5ccccc5'
p8309
sg6
(lp8310
g8
(S'8.50'
p8311
tp8312
Rp8313
asg12
(lp8314
g2501
asg15
(lp8315
L7947383L
assL1265521L
(dp8316
g4
S'C[C@@](N1CCCCC1)(C(=O)O[C@H]2C[N+]3(CCOc4ccc(Cl)cc4)CCC2CC3)c5ccccc5'
p8317
sg6
(lp8318
g8
(S'8.90'
p8319
tp8320
Rp8321
asg12
(lp8322
g2501
asg15
(lp8323
L7947382L
assL1265522L
(dp8324
g4
S'Cc1ccc(OCC[N+]23CCC(CC2)[C@H](C3)OC(=O)[C@@](C)(N4CCCCC4)c5ccccc5)cc1'
p8325
sg6
(lp8326
g8
(S'9.50'
p8327
tp8328
Rp8329
asg12
(lp8330
g2501
asg15
(lp8331
L7947381L
assL1265523L
(dp8332
g4
S'Cc1cccc(OCC[N+]23CCC(CC2)[C@H](C3)OC(=O)[C@@](C)(N4CCCCC4)c5ccccc5)c1'
p8333
sg6
(lp8334
g8
(S'9.00'
p8335
tp8336
Rp8337
asg12
(lp8338
g2501
asg15
(lp8339
L7947380L
assL405364L
(dp8340
g4
S'C[C@]12Cc3cnoc3C=C1CC[C@@H]4[C@@H]2CC[C@@]5(C)[C@H]4CC[C@@]5(O)C#C'
p8341
sg6
(lp8342
g8
(S'5.42'
p8343
tp8344
Rp8345
asg12
(lp8346
g2501
asg15
(lp8347
L7708920L
assL1265525L
(dp8348
g4
S'C[C@@](N1CCCCC1)(C(=O)O[C@H]2C[N+]3(CCCOc4ccccc4)CCC2CC3)c5cccs5'
p8349
sg6
(lp8350
g8
(S'10.20'
p8351
tp8352
Rp8353
asg12
(lp8354
g2501
asg15
(lp8355
L7947378L
assL1265526L
(dp8356
g4
S'C[C@@](N1CCCCC1)(C(=O)O[C@H]2C[N+]3(CCCOc4ccc(F)cc4)CCC2CC3)c5ccccc5'
p8357
sg6
(lp8358
g8
(S'9.20'
p8359
tp8360
Rp8361
asg12
(lp8362
g2501
asg15
(lp8363
L7947377L
assL259959L
(dp8364
g4
S'CC(C)N1CCN(CC1)c2ccc(OC[C@H]3CO[C@@](Cn4cncn4)(O3)c5ccc(Cl)cc5Cl)cc2'
p8365
sg6
(lp8366
g8
(S'5.51'
p8367
tp8368
Rp8369
asg12
(lp8370
g2501
asg15
(lp8371
L7814764L
assL1265528L
(dp8372
g4
S'C[C@@](N1CCCCC1)(C(=O)O[C@H]2C[N+]3(CCOCc4ccccc4)CCC2CC3)c5ccccc5'
p8373
sg6
(lp8374
g8
(S'9.10'
p8375
tp8376
Rp8377
asg12
(lp8378
g2501
asg15
(lp8379
L7947375L
assL1265529L
(dp8380
g4
S'C[C@@](N1CCCCC1)(C(=O)O[C@H]2C[N+]3(CCOCCc4ccccc4)CCC2CC3)c5ccccc5'
p8381
sg6
(lp8382
g8
(S'9.30'
p8383
tp8384
Rp8385
asg12
(lp8386
g2501
asg15
(lp8387
L7947374L
assL1265530L
(dp8388
g4
S'C[C@@](N1CCCCC1)(C(=O)O[C@H]2C[N+]3(CC(=O)N)CCC2CC3)c4ccccc4'
p8389
sg6
(lp8390
g8
(S'9.70'
p8391
tp8392
Rp8393
asg12
(lp8394
g2501
asg15
(lp8395
L7947373L
assL1265531L
(dp8396
g4
S'C[C@@](N1CCCCC1)(C(=O)O[C@H]2C[N+]3(CC(=O)N)CCC2CC3)c4cccs4'
p8397
sg6
(lp8398
g8
(S'9.90'
p8399
tp8400
Rp8401
asg12
(lp8402
g2501
asg15
(lp8403
L7947372L
assL1265532L
(dp8404
g4
S'C[C@@](N1CCCCC1)(C(=O)O[C@H]2C[N+]3(CC(=O)Nc4ccccc4)CCC2CC3)c5ccccc5'
p8405
sg6
(lp8406
g8
(S'9.70'
p8407
tp8408
Rp8409
asg12
(lp8410
g2501
asg15
(lp8411
L7947371L
assL1265642L
(dp8412
g4
S'C[C@@](N1CCCCC1)(C(=O)O[C@H]2C[N+]3(CC(=O)Nc4ccon4)CCC2CC3)c5ccccc5'
p8413
sg6
(lp8414
g8
(S'9.80'
p8415
tp8416
Rp8417
asg12
(lp8418
g2501
asg15
(lp8419
L7947363L
assL1265534L
(dp8420
g4
S'C[C@@](N1CCCCC1)(C(=O)O[C@H]2C[N+]3(CC(=O)Nc4cccc(F)c4)CCC2CC3)c5ccccc5'
p8421
sg6
(lp8422
g8
(S'9.70'
p8423
tp8424
Rp8425
asg12
(lp8426
g2501
asg15
(lp8427
L7947369L
assL1265535L
(dp8428
g4
S'C[C@@](N1CCCCC1)(C(=O)O[C@H]2C[N+]3(CC(=O)Nc4cccc(F)c4)CCC2CC3)c5cccs5'
p8429
sg6
(lp8430
g8
(S'10.00'
p8431
tp8432
Rp8433
asg12
(lp8434
g2501
asg15
(lp8435
L7947368L
assL1265536L
(dp8436
g4
S'C[C@@](N1CCCCC1)(C(=O)O[C@H]2C[N+]3(CC(=O)Nc4ccccn4)CCC2CC3)c5ccccc5'
p8437
sg6
(lp8438
g8
(S'9.90'
p8439
tp8440
Rp8441
asg12
(lp8442
g2501
asg15
(lp8443
L7947367L
assL343937L
(dp8444
g4
S'Cc1c(NC2CC2)nc(nc1NC3CCCCCC3)C4CC4'
p8445
sg6
(lp8446
g8
(S'6.40'
p8447
tp8448
Rp8449
asg12
(lp8450
g2501
asg15
(lp8451
L1702714L
assL343938L
(dp8452
g4
S'Cc1c(NC2CC2)nc(nc1N3CC4CCC(C4)C3)C5CC5'
p8453
sg6
(lp8454
g8
(S'8.20'
p8455
tp8456
Rp8457
asg12
(lp8458
g2501
asg15
(lp8459
L1702713L
assL343939L
(dp8460
g4
S'Cc1c(NCc2ccccc2)nc(nc1NC3CC3)C4CC4'
p8461
sg6
(lp8462
g8
(S'6.70'
p8463
tp8464
Rp8465
asg12
(lp8466
g2501
asg15
(lp8467
L1702712L
assL165774L
(dp8468
g4
S'CCN(CC)CCOC(=O)C1(CCCCC1)C2CCCCC2'
p8469
sg6
(lp8470
g8
(S'8.36'
p8471
tp8472
Rp8473
ag8
(S'9.03'
p8474
tp8475
Rp8476
asg12
(lp8477
g2501
ag2501
asg15
(lp8478
L7691877L
aL7691878L
assL1511407L
(dp8479
g4
S'CN1CCC(=C(C1)C(=O)OCCc2ccc3OCCc3c2)c4ccccc4'
p8480
sg6
(lp8481
g8
(S'5.55'
p8482
tp8483
Rp8484
asg12
(lp8485
g2501
asg15
(lp8486
L12627786L
assL716709L
(dp8487
g4
S'O=C(N1CCC2(CCN(Cc3ccccc3)CC2)CC1)c4ccccc4'
p8488
sg6
(lp8489
g8
(S'6.90'
p8490
tp8491
Rp8492
asg12
(lp8493
g2501
asg15
(lp8494
L3591687L
assL665510L
(dp8495
g4
S'CCN(CC)CCOC(=O)C(CC)(c1ccccc1)c2ccccc2'
p8496
sg6
(lp8497
g8
(S'6.61'
p8498
tp8499
Rp8500
asg12
(lp8501
g2501
asg15
(lp8502
L13288576L
assL1267636L
(dp8503
g4
S'C[C@@](N1CCCCC1)(C(=O)O[C@H]2C[N+]3(CCc4ccccc4F)CCC2CC3)c5cccs5'
p8504
sg6
(lp8505
g8
(S'9.80'
p8506
tp8507
Rp8508
asg12
(lp8509
g2501
asg15
(lp8510
L7947413L
assL1267637L
(dp8511
g4
S'[Br-].CC(C1CCCC1)(C(=O)O[C@@H]2CC[N+](C)(C)C2)c3ccccc3'
p8512
sg6
(lp8513
g8
(S'8.80'
p8514
tp8515
Rp8516
asg12
(lp8517
g2501
asg15
(lp8518
L7947451L
assL1267638L
(dp8519
g4
S'[Br-].C[C@@](C1CCCC1)(C(=O)OC2CC[N+](C)(C)CC2)c3ccccc3'
p8520
sg6
(lp8521
g8
(S'10.50'
p8522
tp8523
Rp8524
asg12
(lp8525
g2501
asg15
(lp8526
L7947450L
assL1267639L
(dp8527
g4
S'CC(N1CCCC1)(C(=O)OC2CC[N+](C)(C)CC2)c3ccccc3'
p8528
sg6
(lp8529
g8
(S'8.50'
p8530
tp8531
Rp8532
asg12
(lp8533
g2501
asg15
(lp8534
L7947436L
assL1267640L
(dp8535
g4
S'CC(N1CCCCC1)(C(=O)OC2CC[N+](C)(C)CC2)c3ccccc3'
p8536
sg6
(lp8537
g8
(S'9.60'
p8538
tp8539
Rp8540
asg12
(lp8541
g2501
asg15
(lp8542
L7947435L
assL1267641L
(dp8543
g4
S'CC(N1C=CC=CC=C1)(C(=O)OC2CC[N+](C)(C)CC2)c3ccccc3'
p8544
sg6
(lp8545
g8
(S'9.10'
p8546
tp8547
Rp8548
asg12
(lp8549
g2501
asg15
(lp8550
L7947434L
assL1267642L
(dp8551
g4
S'CC(N1CCSCC1)(C(=O)OC2CC[N+](C)(C)CC2)c3ccccc3'
p8552
sg6
(lp8553
g8
(S'9.10'
p8554
tp8555
Rp8556
asg12
(lp8557
g2501
asg15
(lp8558
L7947433L
assL1267643L
(dp8559
g4
S'CC(N1CCC(F)(F)CC1)(C(=O)OC2CC[N+](C)(C)CC2)c3ccccc3'
p8560
sg6
(lp8561
g8
(S'8.90'
p8562
tp8563
Rp8564
asg12
(lp8565
g2501
asg15
(lp8566
L7947432L
assL1267644L
(dp8567
g4
S'CC1CCN(CC1)C(C)(C(=O)OC2CC[N+](C)(C)CC2)c3ccccc3'
p8568
sg6
(lp8569
g8
(S'9.00'
p8570
tp8571
Rp8572
asg12
(lp8573
g2501
asg15
(lp8574
L7947431L
assL1267645L
(dp8575
g4
S'CN(C)C(C)(C(=O)OC1CC[N+](C)(C)CC1)c2ccccc2'
p8576
sg6
(lp8577
g8
(S'8.00'
p8578
tp8579
Rp8580
asg12
(lp8581
g2501
asg15
(lp8582
L7947430L
assL1267646L
(dp8583
g4
S'CCCN(CCC)C(C)(C(=O)OC1CC[N+](C)(C)CC1)c2ccccc2'
p8584
sg6
(lp8585
g8
(S'6.80'
p8586
tp8587
Rp8588
asg12
(lp8589
g2501
asg15
(lp8590
L7947428L
assL1267647L
(dp8591
g4
S'CC(N1CCCCC1)(C(=O)OC2CC[N+](C)(C)CC2)c3cccs3'
p8592
sg6
(lp8593
g8
(S'10.00'
p8594
tp8595
Rp8596
asg12
(lp8597
g2501
asg15
(lp8598
L7947429L
assL1267648L
(dp8599
g4
S'CC(N1CCCCC1)(C(=O)OC2CC[N+](C)(C)CC2)c3ccc(Cl)cc3'
p8600
sg6
(lp8601
g8
(S'8.60'
p8602
tp8603
Rp8604
asg12
(lp8605
g2501
asg15
(lp8606
L7947426L
assL1267649L
(dp8607
g4
S'CN1CCC(CC1)OC(=O)C(C)(N2CCCC2)c3ccccc3'
p8608
sg6
(lp8609
g8
(S'8.30'
p8610
tp8611
Rp8612
asg12
(lp8613
g2501
asg15
(lp8614
L7947427L
assL1267650L
(dp8615
g4
S'CC(N1CCCC1)(C(=O)O[C@H]2CN3CCC2CC3)c4ccccc4'
p8616
sg6
(lp8617
g8
(S'8.30'
p8618
tp8619
Rp8620
asg12
(lp8621
g2501
asg15
(lp8622
L7947425L
assL1267651L
(dp8623
g4
S'C[C@@](N1CCCCC1)(C(=O)O[C@H]2C[N+]3(CCCOc4ccccc4)CCC2CC3)c5ccccc5'
p8624
sg6
(lp8625
g8
(S'10.30'
p8626
tp8627
Rp8628
asg12
(lp8629
g2501
asg15
(lp8630
L7947423L
assL1267652L
(dp8631
g4
S'C[C@](N1CCCCC1)(C(=O)O[C@H]2C[N+]3(CCCOc4ccccc4)CCC2CC3)c5ccccc5'
p8632
sg6
(lp8633
g8
(S'8.50'
p8634
tp8635
Rp8636
asg12
(lp8637
g2501
asg15
(lp8638
L7947422L
assL1267653L
(dp8639
g4
S'CC(C)[N+]12CCC(CC1)[C@H](C2)OC(=O)[C@@](C)(N3CCCCC3)c4ccccc4'
p8640
sg6
(lp8641
g8
(S'9.00'
p8642
tp8643
Rp8644
asg12
(lp8645
g2501
asg15
(lp8646
L7947421L
assL1267654L
(dp8647
g4
S'CCC(CC)[N+]12CCC(CC1)[C@H](C2)OC(=O)[C@@](C)(N3CCCCC3)c4ccccc4'
p8648
sg6
(lp8649
g8
(S'6.60'
p8650
tp8651
Rp8652
asg12
(lp8653
g2501
asg15
(lp8654
L7947420L
assL335521L
(dp8655
g4
S'COC1(CN2CCC1CC2)C#CC(O)(c3ccccc3)c4cccnc4F'
p8656
sg6
(lp8657
g8
(S'9.10'
p8658
tp8659
Rp8660
asg12
(lp8661
g2501
asg15
(lp8662
L1666534L
assL1267656L
(dp8663
g4
S'C[C@@](N1CCCCC1)(C(=O)O[C@H]2C[N+]3(CCCC#N)CCC2CC3)c4ccccc4'
p8664
sg6
(lp8665
g8
(S'8.10'
p8666
tp8667
Rp8668
asg12
(lp8669
g2501
asg15
(lp8670
L7947418L
assL1267657L
(dp8671
g4
S'CC(=CCC[N+]12CCC(CC1)[C@H](C2)OC(=O)[C@@](C)(N3CCCCC3)c4ccccc4)C'
p8672
sg6
(lp8673
g8
(S'9.20'
p8674
tp8675
Rp8676
asg12
(lp8677
g2501
asg15
(lp8678
L7947417L
assL1267660L
(dp8679
g4
S'C[C@@](N1CCCCC1)(C(=O)O[C@H]2C[N+]3(CCc4ccccc4F)CCC2CC3)c5ccccc5'
p8680
sg6
(lp8681
g8
(S'9.90'
p8682
tp8683
Rp8684
asg12
(lp8685
g2501
asg15
(lp8686
L7947414L
assL77779L
(dp8687
g4
S'CN(C)CCOC(c1ccccc1)c2ccccc2C'
p8688
sg6
(lp8689
g8
(S'6.76'
p8690
tp8691
Rp8692
ag8
(S'7.43'
p8693
tp8694
Rp8695
asg12
(lp8696
g2501
ag2501
asg15
(lp8697
L7714670L
aL7714671L
assL468965L
(dp8698
g4
S'C[C@H]1CN(Cc2cccc(c2)c3cc(CNC(=O)c4cccc(CC5CCNCC5)c4)ccc3F)CCN1'
p8699
sg6
(lp8700
g8
(S'10.50'
p8701
tp8702
Rp8703
asg12
(lp8704
g2501
asg15
(lp8705
L2365069L
assL1265639L
(dp8706
g4
S'C[C@@](N1CCCCC1)(C(=O)O[C@H]2C[N+]3(CC(=O)Nc4ccncn4)CCC2CC3)c5ccccc5'
p8707
sg6
(lp8708
g8
(S'8.90'
p8709
tp8710
Rp8711
asg12
(lp8712
g2501
asg15
(lp8713
L7947366L
assL1265640L
(dp8714
g4
S'C[C@@](N1CCCCC1)(C(=O)O[C@H]2C[N+]3(CC(=O)Nc4cccnn4)CCC2CC3)c5ccccc5'
p8715
sg6
(lp8716
g8
(S'9.00'
p8717
tp8718
Rp8719
asg12
(lp8720
g2501
asg15
(lp8721
L7947365L
assL1265641L
(dp8722
g4
S'C[C@@](N1CCCCC1)(C(=O)O[C@H]2C[N+]3(CC(=O)Nc4cnccn4)CCC2CC3)c5ccccc5'
p8723
sg6
(lp8724
g8
(S'9.70'
p8725
tp8726
Rp8727
asg12
(lp8728
g2501
asg15
(lp8729
L7947364L
assL36842L
(dp8730
g4
S'OCCN1CCN(CCCN2c3ccccc3Sc4ccc(cc24)C(F)(F)F)CC1'
p8731
sg6
(lp8732
g8
(S'5.33'
p8733
tp8734
Rp8735
ag8
(S'6.00'
p8736
tp8737
Rp8738
asg12
(lp8739
g2501
ag2501
asg15
(lp8740
L7669996L
aL7669997L
assL557035L
(dp8741
g4
S'[Br-].CC1(C(=O)O[C@H]2C[N+]3(CCCOc4ccccc4)CCC2CC3)c5ccccc5c6ccccc16'
p8742
sg6
(lp8743
g8
(S'9.02'
p8744
tp8745
Rp8746
asg12
(lp8747
g2501
asg15
(lp8748
L2708944L
assL1265644L
(dp8749
g4
S'C[C@@](N1CCCCC1)(C(=O)O[C@H]2C[N+]3(CC(=O)Nc4cncc(Cl)n4)CCC2CC3)c5cccs5'
p8750
sg6
(lp8751
g8
(S'10.00'
p8752
tp8753
Rp8754
asg12
(lp8755
g2501
asg15
(lp8756
L7947361L
assL1265645L
(dp8757
g4
S'Cc1ccc2nc(C[N+]34CCC(CC3)[C@H](C4)OC(=O)[C@@](C)(N5CCCCC5)c6ccccc6)oc2c1'
p8758
sg6
(lp8759
g8
(S'9.80'
p8760
tp8761
Rp8762
asg12
(lp8763
g2501
asg15
(lp8764
L7947360L
assL1265646L
(dp8765
g4
S'C[C@@](N1CCCCC1)(C(=O)O[C@H]2C[N+]3(Cc4cc(on4)c5ccccc5)CCC2CC3)c6ccccc6'
p8766
sg6
(lp8767
g8
(S'9.70'
p8768
tp8769
Rp8770
asg12
(lp8771
g2501
asg15
(lp8772
L7947359L
assL1265647L
(dp8773
g4
S'C[C@@](N1CCCCC1)(C(=O)O[C@H]2C[N+]3(Cc4onc(n4)c5ccccc5)CCC2CC3)c6ccccc6'
p8774
sg6
(lp8775
g8
(S'9.50'
p8776
tp8777
Rp8778
asg12
(lp8779
g2501
asg15
(lp8780
L7947358L
assL1265648L
(dp8781
g4
S'C[C@@](N1CCCCC1)(C(=O)O[C@H]2C[N+]3(Cc4onc(c4)c5ccccc5)CCC2CC3)c6cccs6'
p8782
sg6
(lp8783
g8
(S'9.40'
p8784
tp8785
Rp8786
asg12
(lp8787
g2501
asg15
(lp8788
L7947357L
assL1265649L
(dp8789
g4
S'C[C@@](N1CCCCC1)(C(=O)O[C@H]2C[N+]3(Cc4noc(n4)c5ccccc5)CCC2CC3)c6cccs6'
p8790
sg6
(lp8791
g8
(S'9.60'
p8792
tp8793
Rp8794
asg12
(lp8795
g2501
asg15
(lp8796
L7947356L
assL499055L
(dp8797
g4
S'[Br-].OC(c1ccccc1)(c2ccccc2)C34CC[N+](CCCOc5ccccc5)(CC3)CC4'
p8798
sg6
(lp8799
g8
(S'9.89'
p8800
tp8801
Rp8802
asg12
(lp8803
g2501
asg15
(lp8804
L2421749L
assL1595386L
(dp8805
g4
S'OC(CCN1CCCCC1)([C@H]2C[C@H]3C[C@@H]2C=C3)c4ccccc4'
p8806
sg6
(lp8807
g8
(S'8.23'
p8808
tp8809
Rp8810
asg12
(lp8811
g2501
asg15
(lp8812
L13288578L
assL557052L
(dp8813
g4
S'[Br-].C[N+]12CCC(CC1)[C@H](C2)OC(=O)C(O)(c3cccs3)c4cccs4'
p8814
sg6
(lp8815
g8
(S'9.22'
p8816
tp8817
Rp8818
asg12
(lp8819
g2501
asg15
(lp8820
L2708931L
assL557055L
(dp8821
g4
S'[Br-].OC1(C(=O)O[C@H]2C[N+]3(CCc4ccccc4)CCC2CC3)c5ccccc5Oc6ccccc16'
p8822
sg6
(lp8823
g8
(S'9.55'
p8824
tp8825
Rp8826
asg12
(lp8827
g2501
asg15
(lp8828
L2708938L
asss.